         w __Jv_RegisterClasses
         U __ZN13sc_mti_access17mti_set_dpi_valueEPv
         U __ZN13sc_mti_access17mti_set_dpi_valueEPv
         U __ZN13sc_mti_access17mti_set_dpi_valueEPv
         U __ZN13sc_mti_access17mti_set_dpi_valueEPv
         U __ZN13sc_mti_access17mti_set_dpi_valueEPv
         U __ZN13sc_mti_access17mti_set_dpi_valueEPv
         U __ZN13sc_mti_access17mti_set_dpi_valueEPv
         U __ZN13sc_mti_access17mti_set_dpi_valueEPv
         U __ZN13sc_mti_access17mti_set_dpi_valueEPv
         U __ZN13sc_mti_access17mti_set_dpi_valueEPv
         U __ZN13sc_mti_access17mti_set_dpi_valueEPv
         U __ZN13sc_mti_access17mti_set_dpi_valueEPv
         U __ZN13sc_mti_access17mti_set_dpi_valueEPv
         U __ZN13sc_mti_access17mti_set_dpi_valueEPv
         U __ZN13sc_mti_access17mti_set_dpi_valueEPv
         U __ZN13sc_mti_access17mti_set_dpi_valueEPv
         U __ZN13sc_mti_access17mti_set_dpi_valueEPv
         U __ZN13sc_mti_access17mti_set_dpi_valueEPv
         U __ZN13sc_mti_access17mti_set_dpi_valueEPv
         U __ZN13sc_mti_access17mti_set_dpi_valueEPv
         U __ZN13sc_mti_access17mti_set_dpi_valueEPv
         U __ZN13sc_mti_access17mti_set_dpi_valueEPv
         U __ZN13sc_mti_access17mti_set_dpi_valueEPv
         U __ZN13sc_mti_access17mti_set_dpi_valueEPv
         U __ZN13sc_mti_access17mti_set_dpi_valueEPv
         U __ZN13sc_mti_access17mti_set_dpi_valueEPv
         U __ZN13sc_mti_access17mti_set_dpi_valueEPv
         U __ZN13sc_mti_access17mti_set_dpi_valueEPv
         U __ZN13sc_mti_access17mti_set_dpi_valueEPv
         U __ZN13sc_mti_access17mti_set_dpi_valueEPv
         U __ZN13sc_mti_access17mti_set_dpi_valueEPv
         U __ZN13sc_mti_access18mti_get_value_sizeEPiS0_S0_
         U __ZN13sc_mti_access18mti_get_value_sizeEPiS0_S0_
         U __ZN13sc_mti_access18mti_get_value_sizeEPiS0_S0_
         U __ZN13sc_mti_access18mti_get_value_sizeEPiS0_S0_
         U __ZN13sc_mti_access18mti_get_value_sizeEPiS0_S0_
         U __ZN13sc_mti_access18mti_get_value_sizeEPiS0_S0_
         U __ZN13sc_mti_access18mti_get_value_sizeEPiS0_S0_
         U __ZN13sc_mti_access18mti_get_value_sizeEPiS0_S0_
         U __ZN13sc_mti_access18mti_get_value_sizeEPiS0_S0_
         U __ZN13sc_mti_access18mti_get_value_sizeEPiS0_S0_
         U __ZN13sc_mti_access18mti_get_value_sizeEPiS0_S0_
         U __ZN13sc_mti_access18mti_get_value_sizeEPiS0_S0_
         U __ZN13sc_mti_access18mti_get_value_sizeEPiS0_S0_
         U __ZN13sc_mti_access18mti_get_value_sizeEPiS0_S0_
         U __ZN13sc_mti_access18mti_get_value_sizeEPiS0_S0_
         U __ZN13sc_mti_access18mti_get_value_sizeEPiS0_S0_
         U __ZN13sc_mti_access18mti_get_value_sizeEPiS0_S0_
         U __ZN13sc_mti_access18mti_get_value_sizeEPiS0_S0_
         U __ZN13sc_mti_access18mti_get_value_sizeEPiS0_S0_
         U __ZN13sc_mti_access18mti_get_value_sizeEPiS0_S0_
         U __ZN13sc_mti_access18mti_get_value_sizeEPiS0_S0_
         U __ZN13sc_mti_access18mti_get_value_sizeEPiS0_S0_
         U __ZN13sc_mti_access18mti_get_value_sizeEPiS0_S0_
         U __ZN13sc_mti_access18mti_get_value_sizeEPiS0_S0_
         U __ZN13sc_mti_access18mti_get_value_sizeEPiS0_S0_
         U __ZN13sc_mti_access18mti_get_value_sizeEPiS0_S0_
         U __ZN13sc_mti_access18mti_get_value_sizeEPiS0_S0_
         U __ZN13sc_mti_access18mti_get_value_sizeEPiS0_S0_
         U __ZN13sc_mti_access18mti_get_value_sizeEPiS0_S0_
         U __ZN13sc_mti_access18mti_get_value_sizeEPiS0_S0_
         U __ZN13sc_mti_access18mti_get_value_sizeEPiS0_S0_
         U __ZN13sc_mti_access18mti_get_value_typeEv
         U __ZN13sc_mti_access18mti_get_value_typeEv
         U __ZN13sc_mti_access18mti_get_value_typeEv
         U __ZN13sc_mti_access18mti_get_value_typeEv
         U __ZN13sc_mti_access18mti_get_value_typeEv
         U __ZN13sc_mti_access18mti_get_value_typeEv
         U __ZN13sc_mti_access18mti_get_value_typeEv
         U __ZN13sc_mti_access18mti_get_value_typeEv
         U __ZN13sc_mti_access18mti_get_value_typeEv
         U __ZN13sc_mti_access18mti_get_value_typeEv
         U __ZN13sc_mti_access18mti_get_value_typeEv
         U __ZN13sc_mti_access18mti_get_value_typeEv
         U __ZN13sc_mti_access18mti_get_value_typeEv
         U __ZN13sc_mti_access18mti_get_value_typeEv
         U __ZN13sc_mti_access18mti_get_value_typeEv
         U __ZN13sc_mti_access18mti_get_value_typeEv
         U __ZN13sc_mti_access18mti_get_value_typeEv
         U __ZN13sc_mti_access18mti_get_value_typeEv
         U __ZN13sc_mti_access18mti_get_value_typeEv
         U __ZN13sc_mti_access18mti_get_value_typeEv
         U __ZN13sc_mti_access18mti_get_value_typeEv
         U __ZN13sc_mti_access18mti_get_value_typeEv
         U __ZN13sc_mti_access18mti_get_value_typeEv
         U __ZN13sc_mti_access18mti_get_value_typeEv
         U __ZN13sc_mti_access18mti_get_value_typeEv
         U __ZN13sc_mti_access18mti_get_value_typeEv
         U __ZN13sc_mti_access18mti_get_value_typeEv
         U __ZN13sc_mti_access18mti_get_value_typeEv
         U __ZN13sc_mti_access18mti_get_value_typeEv
         U __ZN13sc_mti_access18mti_get_value_typeEv
         U __ZN13sc_mti_access18mti_get_value_typeEv
         U __ZN13sc_mti_accessD0Ev
         U __ZN13sc_mti_accessD0Ev
         U __ZN13sc_mti_accessD0Ev
         U __ZN13sc_mti_accessD0Ev
         U __ZN13sc_mti_accessD0Ev
         U __ZN13sc_mti_accessD0Ev
         U __ZN13sc_mti_accessD0Ev
         U __ZN13sc_mti_accessD0Ev
         U __ZN13sc_mti_accessD0Ev
         U __ZN13sc_mti_accessD0Ev
         U __ZN13sc_mti_accessD0Ev
         U __ZN13sc_mti_accessD0Ev
         U __ZN13sc_mti_accessD0Ev
         U __ZN13sc_mti_accessD0Ev
         U __ZN13sc_mti_accessD0Ev
         U __ZN13sc_mti_accessD0Ev
         U __ZN13sc_mti_accessD0Ev
         U __ZN13sc_mti_accessD0Ev
         U __ZN13sc_mti_accessD0Ev
         U __ZN13sc_mti_accessD0Ev
         U __ZN13sc_mti_accessD0Ev
         U __ZN13sc_mti_accessD0Ev
         U __ZN13sc_mti_accessD0Ev
         U __ZN13sc_mti_accessD0Ev
         U __ZN13sc_mti_accessD0Ev
         U __ZN13sc_mti_accessD0Ev
         U __ZN13sc_mti_accessD0Ev
         U __ZN13sc_mti_accessD0Ev
         U __ZN13sc_mti_accessD0Ev
         U __ZN13sc_mti_accessD0Ev
         U __ZN13sc_mti_accessD0Ev
         U __ZN13sc_mti_accessD1Ev
         U __ZN13sc_mti_accessD1Ev
         U __ZN13sc_mti_accessD1Ev
         U __ZN13sc_mti_accessD1Ev
         U __ZN13sc_mti_accessD1Ev
         U __ZN13sc_mti_accessD1Ev
         U __ZN13sc_mti_accessD1Ev
         U __ZN13sc_mti_accessD1Ev
         U __ZN13sc_mti_accessD1Ev
         U __ZN13sc_mti_accessD1Ev
         U __ZN13sc_mti_accessD1Ev
         U __ZN13sc_mti_accessD1Ev
         U __ZN13sc_mti_accessD1Ev
         U __ZN13sc_mti_accessD1Ev
         U __ZN13sc_mti_accessD1Ev
         U __ZN13sc_mti_accessD1Ev
         U __ZN13sc_mti_accessD1Ev
         U __ZN13sc_mti_accessD1Ev
         U __ZN13sc_mti_accessD1Ev
         U __ZN13sc_mti_accessD1Ev
         U __ZN13sc_mti_accessD1Ev
         U __ZN13sc_mti_accessD1Ev
         U __ZN13sc_mti_accessD1Ev
         U __ZN13sc_mti_accessD1Ev
         U __ZN13sc_mti_accessD1Ev
         U __ZN13sc_mti_accessD1Ev
         U __ZN13sc_mti_accessD1Ev
         U __ZN13sc_mti_accessD1Ev
         U __ZN13sc_mti_accessD1Ev
         U __ZN13sc_mti_accessD1Ev
         U __ZN13sc_mti_accessD1Ev
         U __ZN5sc_dt11scfx_stringpLEc
         U __ZN5sc_dt13sc_fxnum_fastD0Ev
         U __ZN5sc_dt13sc_fxnum_fastD0Ev
         U __ZN5sc_dt13sc_fxnum_fastD0Ev
         U __ZN5sc_dt13sc_fxnum_fastD0Ev
         U __ZN5sc_dt13sc_fxnum_fastD0Ev
         U __ZN5sc_dt13sc_fxnum_fastD0Ev
         U __ZN5sc_dt13sc_fxnum_fastD0Ev
         U __ZN5sc_dt13sc_fxnum_fastD0Ev
         U __ZN5sc_dt13sc_fxnum_fastD0Ev
         U __ZN5sc_dt13sc_fxnum_fastD0Ev
         U __ZN5sc_dt13sc_fxnum_fastD0Ev
         U __ZN5sc_dt13sc_fxnum_fastD0Ev
         U __ZN5sc_dt13sc_fxnum_fastD0Ev
         U __ZN5sc_dt13sc_fxnum_fastD0Ev
         U __ZN5sc_dt13sc_fxnum_fastD0Ev
         U __ZN5sc_dt13sc_fxnum_fastD0Ev
         U __ZN5sc_dt13sc_fxnum_fastD0Ev
         U __ZN5sc_dt13sc_fxnum_fastD0Ev
         U __ZN5sc_dt13sc_fxnum_fastD0Ev
         U __ZN5sc_dt13sc_fxnum_fastD0Ev
         U __ZN5sc_dt13sc_fxnum_fastD0Ev
         U __ZN5sc_dt13sc_fxnum_fastD0Ev
         U __ZN5sc_dt13sc_fxnum_fastD0Ev
         U __ZN5sc_dt13sc_fxnum_fastD0Ev
         U __ZN5sc_dt13sc_fxnum_fastD0Ev
         U __ZN5sc_dt13sc_fxnum_fastD0Ev
         U __ZN5sc_dt13sc_fxnum_fastD0Ev
         U __ZN5sc_dt13sc_fxnum_fastD0Ev
         U __ZN5sc_dt13sc_fxnum_fastD1Ev
         U __ZN5sc_dt13sc_fxnum_fastD1Ev
         U __ZN5sc_dt13sc_fxnum_fastD1Ev
         U __ZN5sc_dt13sc_fxnum_fastD1Ev
         U __ZN5sc_dt13sc_fxnum_fastD1Ev
         U __ZN5sc_dt13sc_fxnum_fastD1Ev
         U __ZN5sc_dt13sc_fxnum_fastD1Ev
         U __ZN5sc_dt13sc_fxnum_fastD1Ev
         U __ZN5sc_dt13sc_fxnum_fastD1Ev
         U __ZN5sc_dt13sc_fxnum_fastD1Ev
         U __ZN5sc_dt13sc_fxnum_fastD1Ev
         U __ZN5sc_dt13sc_fxnum_fastD1Ev
         U __ZN5sc_dt13sc_fxnum_fastD1Ev
         U __ZN5sc_dt13sc_fxnum_fastD1Ev
         U __ZN5sc_dt13sc_fxnum_fastD1Ev
         U __ZN5sc_dt13sc_fxnum_fastD1Ev
         U __ZN5sc_dt13sc_fxnum_fastD1Ev
         U __ZN5sc_dt13sc_fxnum_fastD1Ev
         U __ZN5sc_dt13sc_fxnum_fastD1Ev
         U __ZN5sc_dt13sc_fxnum_fastD1Ev
         U __ZN5sc_dt13sc_fxnum_fastD1Ev
         U __ZN5sc_dt13sc_fxnum_fastD1Ev
         U __ZN5sc_dt13sc_fxnum_fastD1Ev
         U __ZN5sc_dt13sc_fxnum_fastD1Ev
         U __ZN5sc_dt13sc_fxnum_fastD1Ev
         U __ZN5sc_dt13sc_fxnum_fastD1Ev
         U __ZN5sc_dt13sc_fxnum_fastD1Ev
         U __ZN5sc_dt13sc_fxnum_fastD1Ev
         U __ZN5sc_dt17sc_fxnum_observer4readERKNS_8sc_fxnumE
         U __ZN5sc_dt17sc_fxnum_observer4readERKNS_8sc_fxnumE
         U __ZN5sc_dt17sc_fxnum_observer4readERKNS_8sc_fxnumE
         U __ZN5sc_dt17sc_fxnum_observer4readERKNS_8sc_fxnumE
         U __ZN5sc_dt17sc_fxnum_observer4readERKNS_8sc_fxnumE
         U __ZN5sc_dt17sc_fxnum_observer4readERKNS_8sc_fxnumE
         U __ZN5sc_dt17sc_fxnum_observer4readERKNS_8sc_fxnumE
         U __ZN5sc_dt17sc_fxnum_observer4readERKNS_8sc_fxnumE
         U __ZN5sc_dt17sc_fxnum_observer4readERKNS_8sc_fxnumE
         U __ZN5sc_dt17sc_fxnum_observer4readERKNS_8sc_fxnumE
         U __ZN5sc_dt17sc_fxnum_observer4readERKNS_8sc_fxnumE
         U __ZN5sc_dt17sc_fxnum_observer4readERKNS_8sc_fxnumE
         U __ZN5sc_dt17sc_fxnum_observer4readERKNS_8sc_fxnumE
         U __ZN5sc_dt17sc_fxnum_observer4readERKNS_8sc_fxnumE
         U __ZN5sc_dt17sc_fxnum_observer4readERKNS_8sc_fxnumE
         U __ZN5sc_dt17sc_fxnum_observer4readERKNS_8sc_fxnumE
         U __ZN5sc_dt17sc_fxnum_observer4readERKNS_8sc_fxnumE
         U __ZN5sc_dt17sc_fxnum_observer4readERKNS_8sc_fxnumE
         U __ZN5sc_dt17sc_fxnum_observer4readERKNS_8sc_fxnumE
         U __ZN5sc_dt17sc_fxnum_observer4readERKNS_8sc_fxnumE
         U __ZN5sc_dt17sc_fxnum_observer4readERKNS_8sc_fxnumE
         U __ZN5sc_dt17sc_fxnum_observer4readERKNS_8sc_fxnumE
         U __ZN5sc_dt17sc_fxnum_observer4readERKNS_8sc_fxnumE
         U __ZN5sc_dt17sc_fxnum_observer4readERKNS_8sc_fxnumE
         U __ZN5sc_dt17sc_fxnum_observer4readERKNS_8sc_fxnumE
         U __ZN5sc_dt17sc_fxnum_observer4readERKNS_8sc_fxnumE
         U __ZN5sc_dt17sc_fxnum_observer4readERKNS_8sc_fxnumE
         U __ZN5sc_dt17sc_fxnum_observer4readERKNS_8sc_fxnumE
         U __ZN5sc_dt17sc_fxnum_observer5writeERKNS_8sc_fxnumE
         U __ZN5sc_dt17sc_fxnum_observer5writeERKNS_8sc_fxnumE
         U __ZN5sc_dt17sc_fxnum_observer5writeERKNS_8sc_fxnumE
         U __ZN5sc_dt17sc_fxnum_observer5writeERKNS_8sc_fxnumE
         U __ZN5sc_dt17sc_fxnum_observer5writeERKNS_8sc_fxnumE
         U __ZN5sc_dt17sc_fxnum_observer5writeERKNS_8sc_fxnumE
         U __ZN5sc_dt17sc_fxnum_observer5writeERKNS_8sc_fxnumE
         U __ZN5sc_dt17sc_fxnum_observer5writeERKNS_8sc_fxnumE
         U __ZN5sc_dt17sc_fxnum_observer5writeERKNS_8sc_fxnumE
         U __ZN5sc_dt17sc_fxnum_observer5writeERKNS_8sc_fxnumE
         U __ZN5sc_dt17sc_fxnum_observer5writeERKNS_8sc_fxnumE
         U __ZN5sc_dt17sc_fxnum_observer5writeERKNS_8sc_fxnumE
         U __ZN5sc_dt17sc_fxnum_observer5writeERKNS_8sc_fxnumE
         U __ZN5sc_dt17sc_fxnum_observer5writeERKNS_8sc_fxnumE
         U __ZN5sc_dt17sc_fxnum_observer5writeERKNS_8sc_fxnumE
         U __ZN5sc_dt17sc_fxnum_observer5writeERKNS_8sc_fxnumE
         U __ZN5sc_dt17sc_fxnum_observer5writeERKNS_8sc_fxnumE
         U __ZN5sc_dt17sc_fxnum_observer5writeERKNS_8sc_fxnumE
         U __ZN5sc_dt17sc_fxnum_observer5writeERKNS_8sc_fxnumE
         U __ZN5sc_dt17sc_fxnum_observer5writeERKNS_8sc_fxnumE
         U __ZN5sc_dt17sc_fxnum_observer5writeERKNS_8sc_fxnumE
         U __ZN5sc_dt17sc_fxnum_observer5writeERKNS_8sc_fxnumE
         U __ZN5sc_dt17sc_fxnum_observer5writeERKNS_8sc_fxnumE
         U __ZN5sc_dt17sc_fxnum_observer5writeERKNS_8sc_fxnumE
         U __ZN5sc_dt17sc_fxnum_observer5writeERKNS_8sc_fxnumE
         U __ZN5sc_dt17sc_fxnum_observer5writeERKNS_8sc_fxnumE
         U __ZN5sc_dt17sc_fxnum_observer5writeERKNS_8sc_fxnumE
         U __ZN5sc_dt17sc_fxnum_observer5writeERKNS_8sc_fxnumE
         U __ZN5sc_dt17sc_fxnum_observer8destructERKNS_8sc_fxnumE
         U __ZN5sc_dt17sc_fxnum_observer8destructERKNS_8sc_fxnumE
         U __ZN5sc_dt17sc_fxnum_observer8destructERKNS_8sc_fxnumE
         U __ZN5sc_dt17sc_fxnum_observer8destructERKNS_8sc_fxnumE
         U __ZN5sc_dt17sc_fxnum_observer8destructERKNS_8sc_fxnumE
         U __ZN5sc_dt17sc_fxnum_observer8destructERKNS_8sc_fxnumE
         U __ZN5sc_dt17sc_fxnum_observer8destructERKNS_8sc_fxnumE
         U __ZN5sc_dt17sc_fxnum_observer8destructERKNS_8sc_fxnumE
         U __ZN5sc_dt17sc_fxnum_observer8destructERKNS_8sc_fxnumE
         U __ZN5sc_dt17sc_fxnum_observer8destructERKNS_8sc_fxnumE
         U __ZN5sc_dt17sc_fxnum_observer8destructERKNS_8sc_fxnumE
         U __ZN5sc_dt17sc_fxnum_observer8destructERKNS_8sc_fxnumE
         U __ZN5sc_dt17sc_fxnum_observer8destructERKNS_8sc_fxnumE
         U __ZN5sc_dt17sc_fxnum_observer8destructERKNS_8sc_fxnumE
         U __ZN5sc_dt17sc_fxnum_observer8destructERKNS_8sc_fxnumE
         U __ZN5sc_dt17sc_fxnum_observer8destructERKNS_8sc_fxnumE
         U __ZN5sc_dt17sc_fxnum_observer8destructERKNS_8sc_fxnumE
         U __ZN5sc_dt17sc_fxnum_observer8destructERKNS_8sc_fxnumE
         U __ZN5sc_dt17sc_fxnum_observer8destructERKNS_8sc_fxnumE
         U __ZN5sc_dt17sc_fxnum_observer8destructERKNS_8sc_fxnumE
         U __ZN5sc_dt17sc_fxnum_observer8destructERKNS_8sc_fxnumE
         U __ZN5sc_dt17sc_fxnum_observer8destructERKNS_8sc_fxnumE
         U __ZN5sc_dt17sc_fxnum_observer8destructERKNS_8sc_fxnumE
         U __ZN5sc_dt17sc_fxnum_observer8destructERKNS_8sc_fxnumE
         U __ZN5sc_dt17sc_fxnum_observer8destructERKNS_8sc_fxnumE
         U __ZN5sc_dt17sc_fxnum_observer8destructERKNS_8sc_fxnumE
         U __ZN5sc_dt17sc_fxnum_observer8destructERKNS_8sc_fxnumE
         U __ZN5sc_dt17sc_fxnum_observer8destructERKNS_8sc_fxnumE
         U __ZN5sc_dt17sc_fxnum_observer9constructERKNS_8sc_fxnumE
         U __ZN5sc_dt17sc_fxnum_observer9constructERKNS_8sc_fxnumE
         U __ZN5sc_dt17sc_fxnum_observer9constructERKNS_8sc_fxnumE
         U __ZN5sc_dt17sc_fxnum_observer9constructERKNS_8sc_fxnumE
         U __ZN5sc_dt17sc_fxnum_observer9constructERKNS_8sc_fxnumE
         U __ZN5sc_dt17sc_fxnum_observer9constructERKNS_8sc_fxnumE
         U __ZN5sc_dt17sc_fxnum_observer9constructERKNS_8sc_fxnumE
         U __ZN5sc_dt17sc_fxnum_observer9constructERKNS_8sc_fxnumE
         U __ZN5sc_dt17sc_fxnum_observer9constructERKNS_8sc_fxnumE
         U __ZN5sc_dt17sc_fxnum_observer9constructERKNS_8sc_fxnumE
         U __ZN5sc_dt17sc_fxnum_observer9constructERKNS_8sc_fxnumE
         U __ZN5sc_dt17sc_fxnum_observer9constructERKNS_8sc_fxnumE
         U __ZN5sc_dt17sc_fxnum_observer9constructERKNS_8sc_fxnumE
         U __ZN5sc_dt17sc_fxnum_observer9constructERKNS_8sc_fxnumE
         U __ZN5sc_dt17sc_fxnum_observer9constructERKNS_8sc_fxnumE
         U __ZN5sc_dt17sc_fxnum_observer9constructERKNS_8sc_fxnumE
         U __ZN5sc_dt17sc_fxnum_observer9constructERKNS_8sc_fxnumE
         U __ZN5sc_dt17sc_fxnum_observer9constructERKNS_8sc_fxnumE
         U __ZN5sc_dt17sc_fxnum_observer9constructERKNS_8sc_fxnumE
         U __ZN5sc_dt17sc_fxnum_observer9constructERKNS_8sc_fxnumE
         U __ZN5sc_dt17sc_fxnum_observer9constructERKNS_8sc_fxnumE
         U __ZN5sc_dt17sc_fxnum_observer9constructERKNS_8sc_fxnumE
         U __ZN5sc_dt17sc_fxnum_observer9constructERKNS_8sc_fxnumE
         U __ZN5sc_dt17sc_fxnum_observer9constructERKNS_8sc_fxnumE
         U __ZN5sc_dt17sc_fxnum_observer9constructERKNS_8sc_fxnumE
         U __ZN5sc_dt17sc_fxnum_observer9constructERKNS_8sc_fxnumE
         U __ZN5sc_dt17sc_fxnum_observer9constructERKNS_8sc_fxnumE
         U __ZN5sc_dt17sc_fxnum_observer9constructERKNS_8sc_fxnumE
         U __ZN5sc_dt17sc_fxnum_observerD0Ev
         U __ZN5sc_dt17sc_fxnum_observerD0Ev
         U __ZN5sc_dt17sc_fxnum_observerD0Ev
         U __ZN5sc_dt17sc_fxnum_observerD0Ev
         U __ZN5sc_dt17sc_fxnum_observerD0Ev
         U __ZN5sc_dt17sc_fxnum_observerD0Ev
         U __ZN5sc_dt17sc_fxnum_observerD0Ev
         U __ZN5sc_dt17sc_fxnum_observerD0Ev
         U __ZN5sc_dt17sc_fxnum_observerD0Ev
         U __ZN5sc_dt17sc_fxnum_observerD0Ev
         U __ZN5sc_dt17sc_fxnum_observerD0Ev
         U __ZN5sc_dt17sc_fxnum_observerD0Ev
         U __ZN5sc_dt17sc_fxnum_observerD0Ev
         U __ZN5sc_dt17sc_fxnum_observerD0Ev
         U __ZN5sc_dt17sc_fxnum_observerD0Ev
         U __ZN5sc_dt17sc_fxnum_observerD0Ev
         U __ZN5sc_dt17sc_fxnum_observerD0Ev
         U __ZN5sc_dt17sc_fxnum_observerD0Ev
         U __ZN5sc_dt17sc_fxnum_observerD0Ev
         U __ZN5sc_dt17sc_fxnum_observerD0Ev
         U __ZN5sc_dt17sc_fxnum_observerD0Ev
         U __ZN5sc_dt17sc_fxnum_observerD0Ev
         U __ZN5sc_dt17sc_fxnum_observerD0Ev
         U __ZN5sc_dt17sc_fxnum_observerD0Ev
         U __ZN5sc_dt17sc_fxnum_observerD0Ev
         U __ZN5sc_dt17sc_fxnum_observerD0Ev
         U __ZN5sc_dt17sc_fxnum_observerD0Ev
         U __ZN5sc_dt17sc_fxnum_observerD0Ev
         U __ZN5sc_dt17sc_fxnum_observerD1Ev
         U __ZN5sc_dt17sc_fxnum_observerD1Ev
         U __ZN5sc_dt17sc_fxnum_observerD1Ev
         U __ZN5sc_dt17sc_fxnum_observerD1Ev
         U __ZN5sc_dt17sc_fxnum_observerD1Ev
         U __ZN5sc_dt17sc_fxnum_observerD1Ev
         U __ZN5sc_dt17sc_fxnum_observerD1Ev
         U __ZN5sc_dt17sc_fxnum_observerD1Ev
         U __ZN5sc_dt17sc_fxnum_observerD1Ev
         U __ZN5sc_dt17sc_fxnum_observerD1Ev
         U __ZN5sc_dt17sc_fxnum_observerD1Ev
         U __ZN5sc_dt17sc_fxnum_observerD1Ev
         U __ZN5sc_dt17sc_fxnum_observerD1Ev
         U __ZN5sc_dt17sc_fxnum_observerD1Ev
         U __ZN5sc_dt17sc_fxnum_observerD1Ev
         U __ZN5sc_dt17sc_fxnum_observerD1Ev
         U __ZN5sc_dt17sc_fxnum_observerD1Ev
         U __ZN5sc_dt17sc_fxnum_observerD1Ev
         U __ZN5sc_dt17sc_fxnum_observerD1Ev
         U __ZN5sc_dt17sc_fxnum_observerD1Ev
         U __ZN5sc_dt17sc_fxnum_observerD1Ev
         U __ZN5sc_dt17sc_fxnum_observerD1Ev
         U __ZN5sc_dt17sc_fxnum_observerD1Ev
         U __ZN5sc_dt17sc_fxnum_observerD1Ev
         U __ZN5sc_dt17sc_fxnum_observerD1Ev
         U __ZN5sc_dt17sc_fxnum_observerD1Ev
         U __ZN5sc_dt17sc_fxnum_observerD1Ev
         U __ZN5sc_dt17sc_fxnum_observerD1Ev
         U __ZN5sc_dt17sc_fxval_observer4readERKNS_8sc_fxvalE
         U __ZN5sc_dt17sc_fxval_observer4readERKNS_8sc_fxvalE
         U __ZN5sc_dt17sc_fxval_observer4readERKNS_8sc_fxvalE
         U __ZN5sc_dt17sc_fxval_observer4readERKNS_8sc_fxvalE
         U __ZN5sc_dt17sc_fxval_observer4readERKNS_8sc_fxvalE
         U __ZN5sc_dt17sc_fxval_observer4readERKNS_8sc_fxvalE
         U __ZN5sc_dt17sc_fxval_observer4readERKNS_8sc_fxvalE
         U __ZN5sc_dt17sc_fxval_observer4readERKNS_8sc_fxvalE
         U __ZN5sc_dt17sc_fxval_observer4readERKNS_8sc_fxvalE
         U __ZN5sc_dt17sc_fxval_observer4readERKNS_8sc_fxvalE
         U __ZN5sc_dt17sc_fxval_observer4readERKNS_8sc_fxvalE
         U __ZN5sc_dt17sc_fxval_observer4readERKNS_8sc_fxvalE
         U __ZN5sc_dt17sc_fxval_observer4readERKNS_8sc_fxvalE
         U __ZN5sc_dt17sc_fxval_observer4readERKNS_8sc_fxvalE
         U __ZN5sc_dt17sc_fxval_observer4readERKNS_8sc_fxvalE
         U __ZN5sc_dt17sc_fxval_observer4readERKNS_8sc_fxvalE
         U __ZN5sc_dt17sc_fxval_observer4readERKNS_8sc_fxvalE
         U __ZN5sc_dt17sc_fxval_observer4readERKNS_8sc_fxvalE
         U __ZN5sc_dt17sc_fxval_observer4readERKNS_8sc_fxvalE
         U __ZN5sc_dt17sc_fxval_observer4readERKNS_8sc_fxvalE
         U __ZN5sc_dt17sc_fxval_observer4readERKNS_8sc_fxvalE
         U __ZN5sc_dt17sc_fxval_observer4readERKNS_8sc_fxvalE
         U __ZN5sc_dt17sc_fxval_observer4readERKNS_8sc_fxvalE
         U __ZN5sc_dt17sc_fxval_observer4readERKNS_8sc_fxvalE
         U __ZN5sc_dt17sc_fxval_observer4readERKNS_8sc_fxvalE
         U __ZN5sc_dt17sc_fxval_observer4readERKNS_8sc_fxvalE
         U __ZN5sc_dt17sc_fxval_observer4readERKNS_8sc_fxvalE
         U __ZN5sc_dt17sc_fxval_observer4readERKNS_8sc_fxvalE
         U __ZN5sc_dt17sc_fxval_observer4readERKNS_8sc_fxvalE
         U __ZN5sc_dt17sc_fxval_observer5writeERKNS_8sc_fxvalE
         U __ZN5sc_dt17sc_fxval_observer5writeERKNS_8sc_fxvalE
         U __ZN5sc_dt17sc_fxval_observer5writeERKNS_8sc_fxvalE
         U __ZN5sc_dt17sc_fxval_observer5writeERKNS_8sc_fxvalE
         U __ZN5sc_dt17sc_fxval_observer5writeERKNS_8sc_fxvalE
         U __ZN5sc_dt17sc_fxval_observer5writeERKNS_8sc_fxvalE
         U __ZN5sc_dt17sc_fxval_observer5writeERKNS_8sc_fxvalE
         U __ZN5sc_dt17sc_fxval_observer5writeERKNS_8sc_fxvalE
         U __ZN5sc_dt17sc_fxval_observer5writeERKNS_8sc_fxvalE
         U __ZN5sc_dt17sc_fxval_observer5writeERKNS_8sc_fxvalE
         U __ZN5sc_dt17sc_fxval_observer5writeERKNS_8sc_fxvalE
         U __ZN5sc_dt17sc_fxval_observer5writeERKNS_8sc_fxvalE
         U __ZN5sc_dt17sc_fxval_observer5writeERKNS_8sc_fxvalE
         U __ZN5sc_dt17sc_fxval_observer5writeERKNS_8sc_fxvalE
         U __ZN5sc_dt17sc_fxval_observer5writeERKNS_8sc_fxvalE
         U __ZN5sc_dt17sc_fxval_observer5writeERKNS_8sc_fxvalE
         U __ZN5sc_dt17sc_fxval_observer5writeERKNS_8sc_fxvalE
         U __ZN5sc_dt17sc_fxval_observer5writeERKNS_8sc_fxvalE
         U __ZN5sc_dt17sc_fxval_observer5writeERKNS_8sc_fxvalE
         U __ZN5sc_dt17sc_fxval_observer5writeERKNS_8sc_fxvalE
         U __ZN5sc_dt17sc_fxval_observer5writeERKNS_8sc_fxvalE
         U __ZN5sc_dt17sc_fxval_observer5writeERKNS_8sc_fxvalE
         U __ZN5sc_dt17sc_fxval_observer5writeERKNS_8sc_fxvalE
         U __ZN5sc_dt17sc_fxval_observer5writeERKNS_8sc_fxvalE
         U __ZN5sc_dt17sc_fxval_observer5writeERKNS_8sc_fxvalE
         U __ZN5sc_dt17sc_fxval_observer5writeERKNS_8sc_fxvalE
         U __ZN5sc_dt17sc_fxval_observer5writeERKNS_8sc_fxvalE
         U __ZN5sc_dt17sc_fxval_observer5writeERKNS_8sc_fxvalE
         U __ZN5sc_dt17sc_fxval_observer5writeERKNS_8sc_fxvalE
         U __ZN5sc_dt17sc_fxval_observer8destructERKNS_8sc_fxvalE
         U __ZN5sc_dt17sc_fxval_observer8destructERKNS_8sc_fxvalE
         U __ZN5sc_dt17sc_fxval_observer8destructERKNS_8sc_fxvalE
         U __ZN5sc_dt17sc_fxval_observer8destructERKNS_8sc_fxvalE
         U __ZN5sc_dt17sc_fxval_observer8destructERKNS_8sc_fxvalE
         U __ZN5sc_dt17sc_fxval_observer8destructERKNS_8sc_fxvalE
         U __ZN5sc_dt17sc_fxval_observer8destructERKNS_8sc_fxvalE
         U __ZN5sc_dt17sc_fxval_observer8destructERKNS_8sc_fxvalE
         U __ZN5sc_dt17sc_fxval_observer8destructERKNS_8sc_fxvalE
         U __ZN5sc_dt17sc_fxval_observer8destructERKNS_8sc_fxvalE
         U __ZN5sc_dt17sc_fxval_observer8destructERKNS_8sc_fxvalE
         U __ZN5sc_dt17sc_fxval_observer8destructERKNS_8sc_fxvalE
         U __ZN5sc_dt17sc_fxval_observer8destructERKNS_8sc_fxvalE
         U __ZN5sc_dt17sc_fxval_observer8destructERKNS_8sc_fxvalE
         U __ZN5sc_dt17sc_fxval_observer8destructERKNS_8sc_fxvalE
         U __ZN5sc_dt17sc_fxval_observer8destructERKNS_8sc_fxvalE
         U __ZN5sc_dt17sc_fxval_observer8destructERKNS_8sc_fxvalE
         U __ZN5sc_dt17sc_fxval_observer8destructERKNS_8sc_fxvalE
         U __ZN5sc_dt17sc_fxval_observer8destructERKNS_8sc_fxvalE
         U __ZN5sc_dt17sc_fxval_observer8destructERKNS_8sc_fxvalE
         U __ZN5sc_dt17sc_fxval_observer8destructERKNS_8sc_fxvalE
         U __ZN5sc_dt17sc_fxval_observer8destructERKNS_8sc_fxvalE
         U __ZN5sc_dt17sc_fxval_observer8destructERKNS_8sc_fxvalE
         U __ZN5sc_dt17sc_fxval_observer8destructERKNS_8sc_fxvalE
         U __ZN5sc_dt17sc_fxval_observer8destructERKNS_8sc_fxvalE
         U __ZN5sc_dt17sc_fxval_observer8destructERKNS_8sc_fxvalE
         U __ZN5sc_dt17sc_fxval_observer8destructERKNS_8sc_fxvalE
         U __ZN5sc_dt17sc_fxval_observer8destructERKNS_8sc_fxvalE
         U __ZN5sc_dt17sc_fxval_observer8destructERKNS_8sc_fxvalE
         U __ZN5sc_dt17sc_fxval_observer9constructERKNS_8sc_fxvalE
         U __ZN5sc_dt17sc_fxval_observer9constructERKNS_8sc_fxvalE
         U __ZN5sc_dt17sc_fxval_observer9constructERKNS_8sc_fxvalE
         U __ZN5sc_dt17sc_fxval_observer9constructERKNS_8sc_fxvalE
         U __ZN5sc_dt17sc_fxval_observer9constructERKNS_8sc_fxvalE
         U __ZN5sc_dt17sc_fxval_observer9constructERKNS_8sc_fxvalE
         U __ZN5sc_dt17sc_fxval_observer9constructERKNS_8sc_fxvalE
         U __ZN5sc_dt17sc_fxval_observer9constructERKNS_8sc_fxvalE
         U __ZN5sc_dt17sc_fxval_observer9constructERKNS_8sc_fxvalE
         U __ZN5sc_dt17sc_fxval_observer9constructERKNS_8sc_fxvalE
         U __ZN5sc_dt17sc_fxval_observer9constructERKNS_8sc_fxvalE
         U __ZN5sc_dt17sc_fxval_observer9constructERKNS_8sc_fxvalE
         U __ZN5sc_dt17sc_fxval_observer9constructERKNS_8sc_fxvalE
         U __ZN5sc_dt17sc_fxval_observer9constructERKNS_8sc_fxvalE
         U __ZN5sc_dt17sc_fxval_observer9constructERKNS_8sc_fxvalE
         U __ZN5sc_dt17sc_fxval_observer9constructERKNS_8sc_fxvalE
         U __ZN5sc_dt17sc_fxval_observer9constructERKNS_8sc_fxvalE
         U __ZN5sc_dt17sc_fxval_observer9constructERKNS_8sc_fxvalE
         U __ZN5sc_dt17sc_fxval_observer9constructERKNS_8sc_fxvalE
         U __ZN5sc_dt17sc_fxval_observer9constructERKNS_8sc_fxvalE
         U __ZN5sc_dt17sc_fxval_observer9constructERKNS_8sc_fxvalE
         U __ZN5sc_dt17sc_fxval_observer9constructERKNS_8sc_fxvalE
         U __ZN5sc_dt17sc_fxval_observer9constructERKNS_8sc_fxvalE
         U __ZN5sc_dt17sc_fxval_observer9constructERKNS_8sc_fxvalE
         U __ZN5sc_dt17sc_fxval_observer9constructERKNS_8sc_fxvalE
         U __ZN5sc_dt17sc_fxval_observer9constructERKNS_8sc_fxvalE
         U __ZN5sc_dt17sc_fxval_observer9constructERKNS_8sc_fxvalE
         U __ZN5sc_dt17sc_fxval_observer9constructERKNS_8sc_fxvalE
         U __ZN5sc_dt17sc_fxval_observer9constructERKNS_8sc_fxvalE
         U __ZN5sc_dt17sc_fxval_observerD0Ev
         U __ZN5sc_dt17sc_fxval_observerD0Ev
         U __ZN5sc_dt17sc_fxval_observerD0Ev
         U __ZN5sc_dt17sc_fxval_observerD0Ev
         U __ZN5sc_dt17sc_fxval_observerD0Ev
         U __ZN5sc_dt17sc_fxval_observerD0Ev
         U __ZN5sc_dt17sc_fxval_observerD0Ev
         U __ZN5sc_dt17sc_fxval_observerD0Ev
         U __ZN5sc_dt17sc_fxval_observerD0Ev
         U __ZN5sc_dt17sc_fxval_observerD0Ev
         U __ZN5sc_dt17sc_fxval_observerD0Ev
         U __ZN5sc_dt17sc_fxval_observerD0Ev
         U __ZN5sc_dt17sc_fxval_observerD0Ev
         U __ZN5sc_dt17sc_fxval_observerD0Ev
         U __ZN5sc_dt17sc_fxval_observerD0Ev
         U __ZN5sc_dt17sc_fxval_observerD0Ev
         U __ZN5sc_dt17sc_fxval_observerD0Ev
         U __ZN5sc_dt17sc_fxval_observerD0Ev
         U __ZN5sc_dt17sc_fxval_observerD0Ev
         U __ZN5sc_dt17sc_fxval_observerD0Ev
         U __ZN5sc_dt17sc_fxval_observerD0Ev
         U __ZN5sc_dt17sc_fxval_observerD0Ev
         U __ZN5sc_dt17sc_fxval_observerD0Ev
         U __ZN5sc_dt17sc_fxval_observerD0Ev
         U __ZN5sc_dt17sc_fxval_observerD0Ev
         U __ZN5sc_dt17sc_fxval_observerD0Ev
         U __ZN5sc_dt17sc_fxval_observerD0Ev
         U __ZN5sc_dt17sc_fxval_observerD0Ev
         U __ZN5sc_dt17sc_fxval_observerD0Ev
         U __ZN5sc_dt17sc_fxval_observerD1Ev
         U __ZN5sc_dt17sc_fxval_observerD1Ev
         U __ZN5sc_dt17sc_fxval_observerD1Ev
         U __ZN5sc_dt17sc_fxval_observerD1Ev
         U __ZN5sc_dt17sc_fxval_observerD1Ev
         U __ZN5sc_dt17sc_fxval_observerD1Ev
         U __ZN5sc_dt17sc_fxval_observerD1Ev
         U __ZN5sc_dt17sc_fxval_observerD1Ev
         U __ZN5sc_dt17sc_fxval_observerD1Ev
         U __ZN5sc_dt17sc_fxval_observerD1Ev
         U __ZN5sc_dt17sc_fxval_observerD1Ev
         U __ZN5sc_dt17sc_fxval_observerD1Ev
         U __ZN5sc_dt17sc_fxval_observerD1Ev
         U __ZN5sc_dt17sc_fxval_observerD1Ev
         U __ZN5sc_dt17sc_fxval_observerD1Ev
         U __ZN5sc_dt17sc_fxval_observerD1Ev
         U __ZN5sc_dt17sc_fxval_observerD1Ev
         U __ZN5sc_dt17sc_fxval_observerD1Ev
         U __ZN5sc_dt17sc_fxval_observerD1Ev
         U __ZN5sc_dt17sc_fxval_observerD1Ev
         U __ZN5sc_dt17sc_fxval_observerD1Ev
         U __ZN5sc_dt17sc_fxval_observerD1Ev
         U __ZN5sc_dt17sc_fxval_observerD1Ev
         U __ZN5sc_dt17sc_fxval_observerD1Ev
         U __ZN5sc_dt17sc_fxval_observerD1Ev
         U __ZN5sc_dt17sc_fxval_observerD1Ev
         U __ZN5sc_dt17sc_fxval_observerD1Ev
         U __ZN5sc_dt17sc_fxval_observerD1Ev
         U __ZN5sc_dt17sc_fxval_observerD1Ev
         U __ZN5sc_dt22sc_fxnum_fast_observer4readERKNS_13sc_fxnum_fastE
         U __ZN5sc_dt22sc_fxnum_fast_observer4readERKNS_13sc_fxnum_fastE
         U __ZN5sc_dt22sc_fxnum_fast_observer4readERKNS_13sc_fxnum_fastE
         U __ZN5sc_dt22sc_fxnum_fast_observer4readERKNS_13sc_fxnum_fastE
         U __ZN5sc_dt22sc_fxnum_fast_observer4readERKNS_13sc_fxnum_fastE
         U __ZN5sc_dt22sc_fxnum_fast_observer4readERKNS_13sc_fxnum_fastE
         U __ZN5sc_dt22sc_fxnum_fast_observer4readERKNS_13sc_fxnum_fastE
         U __ZN5sc_dt22sc_fxnum_fast_observer4readERKNS_13sc_fxnum_fastE
         U __ZN5sc_dt22sc_fxnum_fast_observer4readERKNS_13sc_fxnum_fastE
         U __ZN5sc_dt22sc_fxnum_fast_observer4readERKNS_13sc_fxnum_fastE
         U __ZN5sc_dt22sc_fxnum_fast_observer4readERKNS_13sc_fxnum_fastE
         U __ZN5sc_dt22sc_fxnum_fast_observer4readERKNS_13sc_fxnum_fastE
         U __ZN5sc_dt22sc_fxnum_fast_observer4readERKNS_13sc_fxnum_fastE
         U __ZN5sc_dt22sc_fxnum_fast_observer4readERKNS_13sc_fxnum_fastE
         U __ZN5sc_dt22sc_fxnum_fast_observer4readERKNS_13sc_fxnum_fastE
         U __ZN5sc_dt22sc_fxnum_fast_observer4readERKNS_13sc_fxnum_fastE
         U __ZN5sc_dt22sc_fxnum_fast_observer4readERKNS_13sc_fxnum_fastE
         U __ZN5sc_dt22sc_fxnum_fast_observer4readERKNS_13sc_fxnum_fastE
         U __ZN5sc_dt22sc_fxnum_fast_observer4readERKNS_13sc_fxnum_fastE
         U __ZN5sc_dt22sc_fxnum_fast_observer4readERKNS_13sc_fxnum_fastE
         U __ZN5sc_dt22sc_fxnum_fast_observer4readERKNS_13sc_fxnum_fastE
         U __ZN5sc_dt22sc_fxnum_fast_observer4readERKNS_13sc_fxnum_fastE
         U __ZN5sc_dt22sc_fxnum_fast_observer4readERKNS_13sc_fxnum_fastE
         U __ZN5sc_dt22sc_fxnum_fast_observer4readERKNS_13sc_fxnum_fastE
         U __ZN5sc_dt22sc_fxnum_fast_observer4readERKNS_13sc_fxnum_fastE
         U __ZN5sc_dt22sc_fxnum_fast_observer4readERKNS_13sc_fxnum_fastE
         U __ZN5sc_dt22sc_fxnum_fast_observer4readERKNS_13sc_fxnum_fastE
         U __ZN5sc_dt22sc_fxnum_fast_observer4readERKNS_13sc_fxnum_fastE
         U __ZN5sc_dt22sc_fxnum_fast_observer5writeERKNS_13sc_fxnum_fastE
         U __ZN5sc_dt22sc_fxnum_fast_observer5writeERKNS_13sc_fxnum_fastE
         U __ZN5sc_dt22sc_fxnum_fast_observer5writeERKNS_13sc_fxnum_fastE
         U __ZN5sc_dt22sc_fxnum_fast_observer5writeERKNS_13sc_fxnum_fastE
         U __ZN5sc_dt22sc_fxnum_fast_observer5writeERKNS_13sc_fxnum_fastE
         U __ZN5sc_dt22sc_fxnum_fast_observer5writeERKNS_13sc_fxnum_fastE
         U __ZN5sc_dt22sc_fxnum_fast_observer5writeERKNS_13sc_fxnum_fastE
         U __ZN5sc_dt22sc_fxnum_fast_observer5writeERKNS_13sc_fxnum_fastE
         U __ZN5sc_dt22sc_fxnum_fast_observer5writeERKNS_13sc_fxnum_fastE
         U __ZN5sc_dt22sc_fxnum_fast_observer5writeERKNS_13sc_fxnum_fastE
         U __ZN5sc_dt22sc_fxnum_fast_observer5writeERKNS_13sc_fxnum_fastE
         U __ZN5sc_dt22sc_fxnum_fast_observer5writeERKNS_13sc_fxnum_fastE
         U __ZN5sc_dt22sc_fxnum_fast_observer5writeERKNS_13sc_fxnum_fastE
         U __ZN5sc_dt22sc_fxnum_fast_observer5writeERKNS_13sc_fxnum_fastE
         U __ZN5sc_dt22sc_fxnum_fast_observer5writeERKNS_13sc_fxnum_fastE
         U __ZN5sc_dt22sc_fxnum_fast_observer5writeERKNS_13sc_fxnum_fastE
         U __ZN5sc_dt22sc_fxnum_fast_observer5writeERKNS_13sc_fxnum_fastE
         U __ZN5sc_dt22sc_fxnum_fast_observer5writeERKNS_13sc_fxnum_fastE
         U __ZN5sc_dt22sc_fxnum_fast_observer5writeERKNS_13sc_fxnum_fastE
         U __ZN5sc_dt22sc_fxnum_fast_observer5writeERKNS_13sc_fxnum_fastE
         U __ZN5sc_dt22sc_fxnum_fast_observer5writeERKNS_13sc_fxnum_fastE
         U __ZN5sc_dt22sc_fxnum_fast_observer5writeERKNS_13sc_fxnum_fastE
         U __ZN5sc_dt22sc_fxnum_fast_observer5writeERKNS_13sc_fxnum_fastE
         U __ZN5sc_dt22sc_fxnum_fast_observer5writeERKNS_13sc_fxnum_fastE
         U __ZN5sc_dt22sc_fxnum_fast_observer5writeERKNS_13sc_fxnum_fastE
         U __ZN5sc_dt22sc_fxnum_fast_observer5writeERKNS_13sc_fxnum_fastE
         U __ZN5sc_dt22sc_fxnum_fast_observer5writeERKNS_13sc_fxnum_fastE
         U __ZN5sc_dt22sc_fxnum_fast_observer5writeERKNS_13sc_fxnum_fastE
         U __ZN5sc_dt22sc_fxnum_fast_observer8destructERKNS_13sc_fxnum_fastE
         U __ZN5sc_dt22sc_fxnum_fast_observer8destructERKNS_13sc_fxnum_fastE
         U __ZN5sc_dt22sc_fxnum_fast_observer8destructERKNS_13sc_fxnum_fastE
         U __ZN5sc_dt22sc_fxnum_fast_observer8destructERKNS_13sc_fxnum_fastE
         U __ZN5sc_dt22sc_fxnum_fast_observer8destructERKNS_13sc_fxnum_fastE
         U __ZN5sc_dt22sc_fxnum_fast_observer8destructERKNS_13sc_fxnum_fastE
         U __ZN5sc_dt22sc_fxnum_fast_observer8destructERKNS_13sc_fxnum_fastE
         U __ZN5sc_dt22sc_fxnum_fast_observer8destructERKNS_13sc_fxnum_fastE
         U __ZN5sc_dt22sc_fxnum_fast_observer8destructERKNS_13sc_fxnum_fastE
         U __ZN5sc_dt22sc_fxnum_fast_observer8destructERKNS_13sc_fxnum_fastE
         U __ZN5sc_dt22sc_fxnum_fast_observer8destructERKNS_13sc_fxnum_fastE
         U __ZN5sc_dt22sc_fxnum_fast_observer8destructERKNS_13sc_fxnum_fastE
         U __ZN5sc_dt22sc_fxnum_fast_observer8destructERKNS_13sc_fxnum_fastE
         U __ZN5sc_dt22sc_fxnum_fast_observer8destructERKNS_13sc_fxnum_fastE
         U __ZN5sc_dt22sc_fxnum_fast_observer8destructERKNS_13sc_fxnum_fastE
         U __ZN5sc_dt22sc_fxnum_fast_observer8destructERKNS_13sc_fxnum_fastE
         U __ZN5sc_dt22sc_fxnum_fast_observer8destructERKNS_13sc_fxnum_fastE
         U __ZN5sc_dt22sc_fxnum_fast_observer8destructERKNS_13sc_fxnum_fastE
         U __ZN5sc_dt22sc_fxnum_fast_observer8destructERKNS_13sc_fxnum_fastE
         U __ZN5sc_dt22sc_fxnum_fast_observer8destructERKNS_13sc_fxnum_fastE
         U __ZN5sc_dt22sc_fxnum_fast_observer8destructERKNS_13sc_fxnum_fastE
         U __ZN5sc_dt22sc_fxnum_fast_observer8destructERKNS_13sc_fxnum_fastE
         U __ZN5sc_dt22sc_fxnum_fast_observer8destructERKNS_13sc_fxnum_fastE
         U __ZN5sc_dt22sc_fxnum_fast_observer8destructERKNS_13sc_fxnum_fastE
         U __ZN5sc_dt22sc_fxnum_fast_observer8destructERKNS_13sc_fxnum_fastE
         U __ZN5sc_dt22sc_fxnum_fast_observer8destructERKNS_13sc_fxnum_fastE
         U __ZN5sc_dt22sc_fxnum_fast_observer8destructERKNS_13sc_fxnum_fastE
         U __ZN5sc_dt22sc_fxnum_fast_observer8destructERKNS_13sc_fxnum_fastE
         U __ZN5sc_dt22sc_fxnum_fast_observer9constructERKNS_13sc_fxnum_fastE
         U __ZN5sc_dt22sc_fxnum_fast_observer9constructERKNS_13sc_fxnum_fastE
         U __ZN5sc_dt22sc_fxnum_fast_observer9constructERKNS_13sc_fxnum_fastE
         U __ZN5sc_dt22sc_fxnum_fast_observer9constructERKNS_13sc_fxnum_fastE
         U __ZN5sc_dt22sc_fxnum_fast_observer9constructERKNS_13sc_fxnum_fastE
         U __ZN5sc_dt22sc_fxnum_fast_observer9constructERKNS_13sc_fxnum_fastE
         U __ZN5sc_dt22sc_fxnum_fast_observer9constructERKNS_13sc_fxnum_fastE
         U __ZN5sc_dt22sc_fxnum_fast_observer9constructERKNS_13sc_fxnum_fastE
         U __ZN5sc_dt22sc_fxnum_fast_observer9constructERKNS_13sc_fxnum_fastE
         U __ZN5sc_dt22sc_fxnum_fast_observer9constructERKNS_13sc_fxnum_fastE
         U __ZN5sc_dt22sc_fxnum_fast_observer9constructERKNS_13sc_fxnum_fastE
         U __ZN5sc_dt22sc_fxnum_fast_observer9constructERKNS_13sc_fxnum_fastE
         U __ZN5sc_dt22sc_fxnum_fast_observer9constructERKNS_13sc_fxnum_fastE
         U __ZN5sc_dt22sc_fxnum_fast_observer9constructERKNS_13sc_fxnum_fastE
         U __ZN5sc_dt22sc_fxnum_fast_observer9constructERKNS_13sc_fxnum_fastE
         U __ZN5sc_dt22sc_fxnum_fast_observer9constructERKNS_13sc_fxnum_fastE
         U __ZN5sc_dt22sc_fxnum_fast_observer9constructERKNS_13sc_fxnum_fastE
         U __ZN5sc_dt22sc_fxnum_fast_observer9constructERKNS_13sc_fxnum_fastE
         U __ZN5sc_dt22sc_fxnum_fast_observer9constructERKNS_13sc_fxnum_fastE
         U __ZN5sc_dt22sc_fxnum_fast_observer9constructERKNS_13sc_fxnum_fastE
         U __ZN5sc_dt22sc_fxnum_fast_observer9constructERKNS_13sc_fxnum_fastE
         U __ZN5sc_dt22sc_fxnum_fast_observer9constructERKNS_13sc_fxnum_fastE
         U __ZN5sc_dt22sc_fxnum_fast_observer9constructERKNS_13sc_fxnum_fastE
         U __ZN5sc_dt22sc_fxnum_fast_observer9constructERKNS_13sc_fxnum_fastE
         U __ZN5sc_dt22sc_fxnum_fast_observer9constructERKNS_13sc_fxnum_fastE
         U __ZN5sc_dt22sc_fxnum_fast_observer9constructERKNS_13sc_fxnum_fastE
         U __ZN5sc_dt22sc_fxnum_fast_observer9constructERKNS_13sc_fxnum_fastE
         U __ZN5sc_dt22sc_fxnum_fast_observer9constructERKNS_13sc_fxnum_fastE
         U __ZN5sc_dt22sc_fxnum_fast_observerD0Ev
         U __ZN5sc_dt22sc_fxnum_fast_observerD0Ev
         U __ZN5sc_dt22sc_fxnum_fast_observerD0Ev
         U __ZN5sc_dt22sc_fxnum_fast_observerD0Ev
         U __ZN5sc_dt22sc_fxnum_fast_observerD0Ev
         U __ZN5sc_dt22sc_fxnum_fast_observerD0Ev
         U __ZN5sc_dt22sc_fxnum_fast_observerD0Ev
         U __ZN5sc_dt22sc_fxnum_fast_observerD0Ev
         U __ZN5sc_dt22sc_fxnum_fast_observerD0Ev
         U __ZN5sc_dt22sc_fxnum_fast_observerD0Ev
         U __ZN5sc_dt22sc_fxnum_fast_observerD0Ev
         U __ZN5sc_dt22sc_fxnum_fast_observerD0Ev
         U __ZN5sc_dt22sc_fxnum_fast_observerD0Ev
         U __ZN5sc_dt22sc_fxnum_fast_observerD0Ev
         U __ZN5sc_dt22sc_fxnum_fast_observerD0Ev
         U __ZN5sc_dt22sc_fxnum_fast_observerD0Ev
         U __ZN5sc_dt22sc_fxnum_fast_observerD0Ev
         U __ZN5sc_dt22sc_fxnum_fast_observerD0Ev
         U __ZN5sc_dt22sc_fxnum_fast_observerD0Ev
         U __ZN5sc_dt22sc_fxnum_fast_observerD0Ev
         U __ZN5sc_dt22sc_fxnum_fast_observerD0Ev
         U __ZN5sc_dt22sc_fxnum_fast_observerD0Ev
         U __ZN5sc_dt22sc_fxnum_fast_observerD0Ev
         U __ZN5sc_dt22sc_fxnum_fast_observerD0Ev
         U __ZN5sc_dt22sc_fxnum_fast_observerD0Ev
         U __ZN5sc_dt22sc_fxnum_fast_observerD0Ev
         U __ZN5sc_dt22sc_fxnum_fast_observerD0Ev
         U __ZN5sc_dt22sc_fxnum_fast_observerD0Ev
         U __ZN5sc_dt22sc_fxnum_fast_observerD1Ev
         U __ZN5sc_dt22sc_fxnum_fast_observerD1Ev
         U __ZN5sc_dt22sc_fxnum_fast_observerD1Ev
         U __ZN5sc_dt22sc_fxnum_fast_observerD1Ev
         U __ZN5sc_dt22sc_fxnum_fast_observerD1Ev
         U __ZN5sc_dt22sc_fxnum_fast_observerD1Ev
         U __ZN5sc_dt22sc_fxnum_fast_observerD1Ev
         U __ZN5sc_dt22sc_fxnum_fast_observerD1Ev
         U __ZN5sc_dt22sc_fxnum_fast_observerD1Ev
         U __ZN5sc_dt22sc_fxnum_fast_observerD1Ev
         U __ZN5sc_dt22sc_fxnum_fast_observerD1Ev
         U __ZN5sc_dt22sc_fxnum_fast_observerD1Ev
         U __ZN5sc_dt22sc_fxnum_fast_observerD1Ev
         U __ZN5sc_dt22sc_fxnum_fast_observerD1Ev
         U __ZN5sc_dt22sc_fxnum_fast_observerD1Ev
         U __ZN5sc_dt22sc_fxnum_fast_observerD1Ev
         U __ZN5sc_dt22sc_fxnum_fast_observerD1Ev
         U __ZN5sc_dt22sc_fxnum_fast_observerD1Ev
         U __ZN5sc_dt22sc_fxnum_fast_observerD1Ev
         U __ZN5sc_dt22sc_fxnum_fast_observerD1Ev
         U __ZN5sc_dt22sc_fxnum_fast_observerD1Ev
         U __ZN5sc_dt22sc_fxnum_fast_observerD1Ev
         U __ZN5sc_dt22sc_fxnum_fast_observerD1Ev
         U __ZN5sc_dt22sc_fxnum_fast_observerD1Ev
         U __ZN5sc_dt22sc_fxnum_fast_observerD1Ev
         U __ZN5sc_dt22sc_fxnum_fast_observerD1Ev
         U __ZN5sc_dt22sc_fxnum_fast_observerD1Ev
         U __ZN5sc_dt22sc_fxnum_fast_observerD1Ev
         U __ZN5sc_dt22sc_fxval_fast_observer4readERKNS_13sc_fxval_fastE
         U __ZN5sc_dt22sc_fxval_fast_observer4readERKNS_13sc_fxval_fastE
         U __ZN5sc_dt22sc_fxval_fast_observer4readERKNS_13sc_fxval_fastE
         U __ZN5sc_dt22sc_fxval_fast_observer4readERKNS_13sc_fxval_fastE
         U __ZN5sc_dt22sc_fxval_fast_observer4readERKNS_13sc_fxval_fastE
         U __ZN5sc_dt22sc_fxval_fast_observer4readERKNS_13sc_fxval_fastE
         U __ZN5sc_dt22sc_fxval_fast_observer4readERKNS_13sc_fxval_fastE
         U __ZN5sc_dt22sc_fxval_fast_observer4readERKNS_13sc_fxval_fastE
         U __ZN5sc_dt22sc_fxval_fast_observer4readERKNS_13sc_fxval_fastE
         U __ZN5sc_dt22sc_fxval_fast_observer4readERKNS_13sc_fxval_fastE
         U __ZN5sc_dt22sc_fxval_fast_observer4readERKNS_13sc_fxval_fastE
         U __ZN5sc_dt22sc_fxval_fast_observer4readERKNS_13sc_fxval_fastE
         U __ZN5sc_dt22sc_fxval_fast_observer4readERKNS_13sc_fxval_fastE
         U __ZN5sc_dt22sc_fxval_fast_observer4readERKNS_13sc_fxval_fastE
         U __ZN5sc_dt22sc_fxval_fast_observer4readERKNS_13sc_fxval_fastE
         U __ZN5sc_dt22sc_fxval_fast_observer4readERKNS_13sc_fxval_fastE
         U __ZN5sc_dt22sc_fxval_fast_observer4readERKNS_13sc_fxval_fastE
         U __ZN5sc_dt22sc_fxval_fast_observer4readERKNS_13sc_fxval_fastE
         U __ZN5sc_dt22sc_fxval_fast_observer4readERKNS_13sc_fxval_fastE
         U __ZN5sc_dt22sc_fxval_fast_observer4readERKNS_13sc_fxval_fastE
         U __ZN5sc_dt22sc_fxval_fast_observer4readERKNS_13sc_fxval_fastE
         U __ZN5sc_dt22sc_fxval_fast_observer4readERKNS_13sc_fxval_fastE
         U __ZN5sc_dt22sc_fxval_fast_observer4readERKNS_13sc_fxval_fastE
         U __ZN5sc_dt22sc_fxval_fast_observer4readERKNS_13sc_fxval_fastE
         U __ZN5sc_dt22sc_fxval_fast_observer4readERKNS_13sc_fxval_fastE
         U __ZN5sc_dt22sc_fxval_fast_observer4readERKNS_13sc_fxval_fastE
         U __ZN5sc_dt22sc_fxval_fast_observer4readERKNS_13sc_fxval_fastE
         U __ZN5sc_dt22sc_fxval_fast_observer4readERKNS_13sc_fxval_fastE
         U __ZN5sc_dt22sc_fxval_fast_observer4readERKNS_13sc_fxval_fastE
         U __ZN5sc_dt22sc_fxval_fast_observer5writeERKNS_13sc_fxval_fastE
         U __ZN5sc_dt22sc_fxval_fast_observer5writeERKNS_13sc_fxval_fastE
         U __ZN5sc_dt22sc_fxval_fast_observer5writeERKNS_13sc_fxval_fastE
         U __ZN5sc_dt22sc_fxval_fast_observer5writeERKNS_13sc_fxval_fastE
         U __ZN5sc_dt22sc_fxval_fast_observer5writeERKNS_13sc_fxval_fastE
         U __ZN5sc_dt22sc_fxval_fast_observer5writeERKNS_13sc_fxval_fastE
         U __ZN5sc_dt22sc_fxval_fast_observer5writeERKNS_13sc_fxval_fastE
         U __ZN5sc_dt22sc_fxval_fast_observer5writeERKNS_13sc_fxval_fastE
         U __ZN5sc_dt22sc_fxval_fast_observer5writeERKNS_13sc_fxval_fastE
         U __ZN5sc_dt22sc_fxval_fast_observer5writeERKNS_13sc_fxval_fastE
         U __ZN5sc_dt22sc_fxval_fast_observer5writeERKNS_13sc_fxval_fastE
         U __ZN5sc_dt22sc_fxval_fast_observer5writeERKNS_13sc_fxval_fastE
         U __ZN5sc_dt22sc_fxval_fast_observer5writeERKNS_13sc_fxval_fastE
         U __ZN5sc_dt22sc_fxval_fast_observer5writeERKNS_13sc_fxval_fastE
         U __ZN5sc_dt22sc_fxval_fast_observer5writeERKNS_13sc_fxval_fastE
         U __ZN5sc_dt22sc_fxval_fast_observer5writeERKNS_13sc_fxval_fastE
         U __ZN5sc_dt22sc_fxval_fast_observer5writeERKNS_13sc_fxval_fastE
         U __ZN5sc_dt22sc_fxval_fast_observer5writeERKNS_13sc_fxval_fastE
         U __ZN5sc_dt22sc_fxval_fast_observer5writeERKNS_13sc_fxval_fastE
         U __ZN5sc_dt22sc_fxval_fast_observer5writeERKNS_13sc_fxval_fastE
         U __ZN5sc_dt22sc_fxval_fast_observer5writeERKNS_13sc_fxval_fastE
         U __ZN5sc_dt22sc_fxval_fast_observer5writeERKNS_13sc_fxval_fastE
         U __ZN5sc_dt22sc_fxval_fast_observer5writeERKNS_13sc_fxval_fastE
         U __ZN5sc_dt22sc_fxval_fast_observer5writeERKNS_13sc_fxval_fastE
         U __ZN5sc_dt22sc_fxval_fast_observer5writeERKNS_13sc_fxval_fastE
         U __ZN5sc_dt22sc_fxval_fast_observer5writeERKNS_13sc_fxval_fastE
         U __ZN5sc_dt22sc_fxval_fast_observer5writeERKNS_13sc_fxval_fastE
         U __ZN5sc_dt22sc_fxval_fast_observer5writeERKNS_13sc_fxval_fastE
         U __ZN5sc_dt22sc_fxval_fast_observer5writeERKNS_13sc_fxval_fastE
         U __ZN5sc_dt22sc_fxval_fast_observer8destructERKNS_13sc_fxval_fastE
         U __ZN5sc_dt22sc_fxval_fast_observer8destructERKNS_13sc_fxval_fastE
         U __ZN5sc_dt22sc_fxval_fast_observer8destructERKNS_13sc_fxval_fastE
         U __ZN5sc_dt22sc_fxval_fast_observer8destructERKNS_13sc_fxval_fastE
         U __ZN5sc_dt22sc_fxval_fast_observer8destructERKNS_13sc_fxval_fastE
         U __ZN5sc_dt22sc_fxval_fast_observer8destructERKNS_13sc_fxval_fastE
         U __ZN5sc_dt22sc_fxval_fast_observer8destructERKNS_13sc_fxval_fastE
         U __ZN5sc_dt22sc_fxval_fast_observer8destructERKNS_13sc_fxval_fastE
         U __ZN5sc_dt22sc_fxval_fast_observer8destructERKNS_13sc_fxval_fastE
         U __ZN5sc_dt22sc_fxval_fast_observer8destructERKNS_13sc_fxval_fastE
         U __ZN5sc_dt22sc_fxval_fast_observer8destructERKNS_13sc_fxval_fastE
         U __ZN5sc_dt22sc_fxval_fast_observer8destructERKNS_13sc_fxval_fastE
         U __ZN5sc_dt22sc_fxval_fast_observer8destructERKNS_13sc_fxval_fastE
         U __ZN5sc_dt22sc_fxval_fast_observer8destructERKNS_13sc_fxval_fastE
         U __ZN5sc_dt22sc_fxval_fast_observer8destructERKNS_13sc_fxval_fastE
         U __ZN5sc_dt22sc_fxval_fast_observer8destructERKNS_13sc_fxval_fastE
         U __ZN5sc_dt22sc_fxval_fast_observer8destructERKNS_13sc_fxval_fastE
         U __ZN5sc_dt22sc_fxval_fast_observer8destructERKNS_13sc_fxval_fastE
         U __ZN5sc_dt22sc_fxval_fast_observer8destructERKNS_13sc_fxval_fastE
         U __ZN5sc_dt22sc_fxval_fast_observer8destructERKNS_13sc_fxval_fastE
         U __ZN5sc_dt22sc_fxval_fast_observer8destructERKNS_13sc_fxval_fastE
         U __ZN5sc_dt22sc_fxval_fast_observer8destructERKNS_13sc_fxval_fastE
         U __ZN5sc_dt22sc_fxval_fast_observer8destructERKNS_13sc_fxval_fastE
         U __ZN5sc_dt22sc_fxval_fast_observer8destructERKNS_13sc_fxval_fastE
         U __ZN5sc_dt22sc_fxval_fast_observer8destructERKNS_13sc_fxval_fastE
         U __ZN5sc_dt22sc_fxval_fast_observer8destructERKNS_13sc_fxval_fastE
         U __ZN5sc_dt22sc_fxval_fast_observer8destructERKNS_13sc_fxval_fastE
         U __ZN5sc_dt22sc_fxval_fast_observer8destructERKNS_13sc_fxval_fastE
         U __ZN5sc_dt22sc_fxval_fast_observer8destructERKNS_13sc_fxval_fastE
         U __ZN5sc_dt22sc_fxval_fast_observer9constructERKNS_13sc_fxval_fastE
         U __ZN5sc_dt22sc_fxval_fast_observer9constructERKNS_13sc_fxval_fastE
         U __ZN5sc_dt22sc_fxval_fast_observer9constructERKNS_13sc_fxval_fastE
         U __ZN5sc_dt22sc_fxval_fast_observer9constructERKNS_13sc_fxval_fastE
         U __ZN5sc_dt22sc_fxval_fast_observer9constructERKNS_13sc_fxval_fastE
         U __ZN5sc_dt22sc_fxval_fast_observer9constructERKNS_13sc_fxval_fastE
         U __ZN5sc_dt22sc_fxval_fast_observer9constructERKNS_13sc_fxval_fastE
         U __ZN5sc_dt22sc_fxval_fast_observer9constructERKNS_13sc_fxval_fastE
         U __ZN5sc_dt22sc_fxval_fast_observer9constructERKNS_13sc_fxval_fastE
         U __ZN5sc_dt22sc_fxval_fast_observer9constructERKNS_13sc_fxval_fastE
         U __ZN5sc_dt22sc_fxval_fast_observer9constructERKNS_13sc_fxval_fastE
         U __ZN5sc_dt22sc_fxval_fast_observer9constructERKNS_13sc_fxval_fastE
         U __ZN5sc_dt22sc_fxval_fast_observer9constructERKNS_13sc_fxval_fastE
         U __ZN5sc_dt22sc_fxval_fast_observer9constructERKNS_13sc_fxval_fastE
         U __ZN5sc_dt22sc_fxval_fast_observer9constructERKNS_13sc_fxval_fastE
         U __ZN5sc_dt22sc_fxval_fast_observer9constructERKNS_13sc_fxval_fastE
         U __ZN5sc_dt22sc_fxval_fast_observer9constructERKNS_13sc_fxval_fastE
         U __ZN5sc_dt22sc_fxval_fast_observer9constructERKNS_13sc_fxval_fastE
         U __ZN5sc_dt22sc_fxval_fast_observer9constructERKNS_13sc_fxval_fastE
         U __ZN5sc_dt22sc_fxval_fast_observer9constructERKNS_13sc_fxval_fastE
         U __ZN5sc_dt22sc_fxval_fast_observer9constructERKNS_13sc_fxval_fastE
         U __ZN5sc_dt22sc_fxval_fast_observer9constructERKNS_13sc_fxval_fastE
         U __ZN5sc_dt22sc_fxval_fast_observer9constructERKNS_13sc_fxval_fastE
         U __ZN5sc_dt22sc_fxval_fast_observer9constructERKNS_13sc_fxval_fastE
         U __ZN5sc_dt22sc_fxval_fast_observer9constructERKNS_13sc_fxval_fastE
         U __ZN5sc_dt22sc_fxval_fast_observer9constructERKNS_13sc_fxval_fastE
         U __ZN5sc_dt22sc_fxval_fast_observer9constructERKNS_13sc_fxval_fastE
         U __ZN5sc_dt22sc_fxval_fast_observer9constructERKNS_13sc_fxval_fastE
         U __ZN5sc_dt22sc_fxval_fast_observer9constructERKNS_13sc_fxval_fastE
         U __ZN5sc_dt22sc_fxval_fast_observerD0Ev
         U __ZN5sc_dt22sc_fxval_fast_observerD0Ev
         U __ZN5sc_dt22sc_fxval_fast_observerD0Ev
         U __ZN5sc_dt22sc_fxval_fast_observerD0Ev
         U __ZN5sc_dt22sc_fxval_fast_observerD0Ev
         U __ZN5sc_dt22sc_fxval_fast_observerD0Ev
         U __ZN5sc_dt22sc_fxval_fast_observerD0Ev
         U __ZN5sc_dt22sc_fxval_fast_observerD0Ev
         U __ZN5sc_dt22sc_fxval_fast_observerD0Ev
         U __ZN5sc_dt22sc_fxval_fast_observerD0Ev
         U __ZN5sc_dt22sc_fxval_fast_observerD0Ev
         U __ZN5sc_dt22sc_fxval_fast_observerD0Ev
         U __ZN5sc_dt22sc_fxval_fast_observerD0Ev
         U __ZN5sc_dt22sc_fxval_fast_observerD0Ev
         U __ZN5sc_dt22sc_fxval_fast_observerD0Ev
         U __ZN5sc_dt22sc_fxval_fast_observerD0Ev
         U __ZN5sc_dt22sc_fxval_fast_observerD0Ev
         U __ZN5sc_dt22sc_fxval_fast_observerD0Ev
         U __ZN5sc_dt22sc_fxval_fast_observerD0Ev
         U __ZN5sc_dt22sc_fxval_fast_observerD0Ev
         U __ZN5sc_dt22sc_fxval_fast_observerD0Ev
         U __ZN5sc_dt22sc_fxval_fast_observerD0Ev
         U __ZN5sc_dt22sc_fxval_fast_observerD0Ev
         U __ZN5sc_dt22sc_fxval_fast_observerD0Ev
         U __ZN5sc_dt22sc_fxval_fast_observerD0Ev
         U __ZN5sc_dt22sc_fxval_fast_observerD0Ev
         U __ZN5sc_dt22sc_fxval_fast_observerD0Ev
         U __ZN5sc_dt22sc_fxval_fast_observerD0Ev
         U __ZN5sc_dt22sc_fxval_fast_observerD0Ev
         U __ZN5sc_dt22sc_fxval_fast_observerD1Ev
         U __ZN5sc_dt22sc_fxval_fast_observerD1Ev
         U __ZN5sc_dt22sc_fxval_fast_observerD1Ev
         U __ZN5sc_dt22sc_fxval_fast_observerD1Ev
         U __ZN5sc_dt22sc_fxval_fast_observerD1Ev
         U __ZN5sc_dt22sc_fxval_fast_observerD1Ev
         U __ZN5sc_dt22sc_fxval_fast_observerD1Ev
         U __ZN5sc_dt22sc_fxval_fast_observerD1Ev
         U __ZN5sc_dt22sc_fxval_fast_observerD1Ev
         U __ZN5sc_dt22sc_fxval_fast_observerD1Ev
         U __ZN5sc_dt22sc_fxval_fast_observerD1Ev
         U __ZN5sc_dt22sc_fxval_fast_observerD1Ev
         U __ZN5sc_dt22sc_fxval_fast_observerD1Ev
         U __ZN5sc_dt22sc_fxval_fast_observerD1Ev
         U __ZN5sc_dt22sc_fxval_fast_observerD1Ev
         U __ZN5sc_dt22sc_fxval_fast_observerD1Ev
         U __ZN5sc_dt22sc_fxval_fast_observerD1Ev
         U __ZN5sc_dt22sc_fxval_fast_observerD1Ev
         U __ZN5sc_dt22sc_fxval_fast_observerD1Ev
         U __ZN5sc_dt22sc_fxval_fast_observerD1Ev
         U __ZN5sc_dt22sc_fxval_fast_observerD1Ev
         U __ZN5sc_dt22sc_fxval_fast_observerD1Ev
         U __ZN5sc_dt22sc_fxval_fast_observerD1Ev
         U __ZN5sc_dt22sc_fxval_fast_observerD1Ev
         U __ZN5sc_dt22sc_fxval_fast_observerD1Ev
         U __ZN5sc_dt22sc_fxval_fast_observerD1Ev
         U __ZN5sc_dt22sc_fxval_fast_observerD1Ev
         U __ZN5sc_dt22sc_fxval_fast_observerD1Ev
         U __ZN5sc_dt22sc_fxval_fast_observerD1Ev
         U __ZN5sc_dt6sc_fixD0Ev
         U __ZN5sc_dt6sc_fixD1Ev
         U __ZN5sc_dt7sc_ufixD0Ev
         U __ZN5sc_dt7sc_ufixD0Ev
         U __ZN5sc_dt7sc_ufixD1Ev
         U __ZN5sc_dt7sc_ufixD1Ev
         U __ZN5sc_dt8sc_fxnumD0Ev
         U __ZN5sc_dt8sc_fxnumD0Ev
         U __ZN5sc_dt8sc_fxnumD0Ev
         U __ZN5sc_dt8sc_fxnumD0Ev
         U __ZN5sc_dt8sc_fxnumD0Ev
         U __ZN5sc_dt8sc_fxnumD0Ev
         U __ZN5sc_dt8sc_fxnumD0Ev
         U __ZN5sc_dt8sc_fxnumD0Ev
         U __ZN5sc_dt8sc_fxnumD0Ev
         U __ZN5sc_dt8sc_fxnumD0Ev
         U __ZN5sc_dt8sc_fxnumD0Ev
         U __ZN5sc_dt8sc_fxnumD0Ev
         U __ZN5sc_dt8sc_fxnumD0Ev
         U __ZN5sc_dt8sc_fxnumD0Ev
         U __ZN5sc_dt8sc_fxnumD0Ev
         U __ZN5sc_dt8sc_fxnumD0Ev
         U __ZN5sc_dt8sc_fxnumD0Ev
         U __ZN5sc_dt8sc_fxnumD0Ev
         U __ZN5sc_dt8sc_fxnumD0Ev
         U __ZN5sc_dt8sc_fxnumD0Ev
         U __ZN5sc_dt8sc_fxnumD0Ev
         U __ZN5sc_dt8sc_fxnumD0Ev
         U __ZN5sc_dt8sc_fxnumD0Ev
         U __ZN5sc_dt8sc_fxnumD0Ev
         U __ZN5sc_dt8sc_fxnumD0Ev
         U __ZN5sc_dt8sc_fxnumD0Ev
         U __ZN5sc_dt8sc_fxnumD0Ev
         U __ZN5sc_dt8sc_fxnumD0Ev
         U __ZN5sc_dt8sc_fxnumD1Ev
         U __ZN5sc_dt8sc_fxnumD1Ev
         U __ZN5sc_dt8sc_fxnumD1Ev
         U __ZN5sc_dt8sc_fxnumD1Ev
         U __ZN5sc_dt8sc_fxnumD1Ev
         U __ZN5sc_dt8sc_fxnumD1Ev
         U __ZN5sc_dt8sc_fxnumD1Ev
         U __ZN5sc_dt8sc_fxnumD1Ev
         U __ZN5sc_dt8sc_fxnumD1Ev
         U __ZN5sc_dt8sc_fxnumD1Ev
         U __ZN5sc_dt8sc_fxnumD1Ev
         U __ZN5sc_dt8sc_fxnumD1Ev
         U __ZN5sc_dt8sc_fxnumD1Ev
         U __ZN5sc_dt8sc_fxnumD1Ev
         U __ZN5sc_dt8sc_fxnumD1Ev
         U __ZN5sc_dt8sc_fxnumD1Ev
         U __ZN5sc_dt8sc_fxnumD1Ev
         U __ZN5sc_dt8sc_fxnumD1Ev
         U __ZN5sc_dt8sc_fxnumD1Ev
         U __ZN5sc_dt8sc_fxnumD1Ev
         U __ZN5sc_dt8sc_fxnumD1Ev
         U __ZN5sc_dt8sc_fxnumD1Ev
         U __ZN5sc_dt8sc_fxnumD1Ev
         U __ZN5sc_dt8sc_fxnumD1Ev
         U __ZN5sc_dt8sc_fxnumD1Ev
         U __ZN5sc_dt8sc_fxnumD1Ev
         U __ZN5sc_dt8sc_fxnumD1Ev
         U __ZN5sc_dt8sc_fxnumD1Ev
         U __ZN5sc_dt8sc_logicD1Ev
         U __ZN7sc_core12sc_process_b16add_child_objectEPNS_9sc_objectE
         U __ZN7sc_core12sc_process_b16add_child_objectEPNS_9sc_objectE
         U __ZN7sc_core12sc_process_b16add_child_objectEPNS_9sc_objectE
         U __ZN7sc_core12sc_process_b19remove_child_objectEPNS_9sc_objectE
         U __ZN7sc_core12sc_process_b19remove_child_objectEPNS_9sc_objectE
         U __ZN7sc_core12sc_process_b19remove_child_objectEPNS_9sc_objectE
         U __ZN7sc_core15sc_process_hostD0Ev
         U __ZN7sc_core15sc_process_hostD0Ev
         U __ZN7sc_core15sc_process_hostD1Ev
         U __ZN7sc_core15sc_process_hostD1Ev
         U __ZN7sc_core15sc_signal_in_ifIbED0Ev
         U __ZN7sc_core15sc_signal_in_ifIbED0Ev
         U __ZN7sc_core15sc_signal_in_ifIbED1Ev
         U __ZN7sc_core15sc_signal_in_ifIbED1Ev
         U __ZN7sc_core15sc_signal_in_ifIN5sc_dt8sc_logicEED0Ev
         U __ZN7sc_core15sc_signal_in_ifIN5sc_dt8sc_logicEED0Ev
         U __ZN7sc_core15sc_signal_in_ifIN5sc_dt8sc_logicEED1Ev
         U __ZN7sc_core15sc_signal_in_ifIN5sc_dt8sc_logicEED1Ev
         U __ZN7sc_core17sc_event_finder_tINS_15sc_signal_in_ifIbEEED0Ev
         U __ZN7sc_core17sc_event_finder_tINS_15sc_signal_in_ifIbEEED1Ev
         U __ZN7sc_core17sc_event_finder_tINS_15sc_signal_in_ifIN5sc_dt8sc_logicEEEED0Ev
         U __ZN7sc_core17sc_event_finder_tINS_15sc_signal_in_ifIN5sc_dt8sc_logicEEEED1Ev
         U __ZN7sc_core18sc_process_monitor6signalEPNS_17sc_thread_processEi
         U __ZN7sc_core18sc_process_monitor6signalEPNS_17sc_thread_processEi
         U __ZN7sc_core18sc_process_monitor6signalEPNS_17sc_thread_processEi
         U __ZN7sc_core18sc_process_monitor6signalEPNS_17sc_thread_processEi
         U __ZN7sc_core18sc_process_monitor6signalEPNS_17sc_thread_processEi
         U __ZN7sc_core18sc_process_monitor6signalEPNS_17sc_thread_processEi
         U __ZN7sc_core18sc_process_monitor6signalEPNS_17sc_thread_processEi
         U __ZN7sc_core18sc_process_monitor6signalEPNS_17sc_thread_processEi
         U __ZN7sc_core18sc_process_monitor6signalEPNS_17sc_thread_processEi
         U __ZN7sc_core18sc_process_monitor6signalEPNS_17sc_thread_processEi
         U __ZN7sc_core18sc_process_monitor6signalEPNS_17sc_thread_processEi
         U __ZN7sc_core18sc_process_monitor6signalEPNS_17sc_thread_processEi
         U __ZN7sc_core18sc_process_monitor6signalEPNS_17sc_thread_processEi
         U __ZN7sc_core18sc_process_monitor6signalEPNS_17sc_thread_processEi
         U __ZN7sc_core18sc_process_monitor6signalEPNS_17sc_thread_processEi
         U __ZN7sc_core18sc_process_monitor6signalEPNS_17sc_thread_processEi
         U __ZN7sc_core18sc_process_monitor6signalEPNS_17sc_thread_processEi
         U __ZN7sc_core18sc_process_monitor6signalEPNS_17sc_thread_processEi
         U __ZN7sc_core18sc_process_monitor6signalEPNS_17sc_thread_processEi
         U __ZN7sc_core18sc_process_monitor6signalEPNS_17sc_thread_processEi
         U __ZN7sc_core18sc_process_monitor6signalEPNS_17sc_thread_processEi
         U __ZN7sc_core18sc_process_monitor6signalEPNS_17sc_thread_processEi
         U __ZN7sc_core18sc_process_monitor6signalEPNS_17sc_thread_processEi
         U __ZN7sc_core18sc_process_monitor6signalEPNS_17sc_thread_processEi
         U __ZN7sc_core18sc_process_monitor6signalEPNS_17sc_thread_processEi
         U __ZN7sc_core18sc_process_monitor6signalEPNS_17sc_thread_processEi
         U __ZN7sc_core18sc_process_monitor6signalEPNS_17sc_thread_processEi
         U __ZN7sc_core18sc_process_monitor6signalEPNS_17sc_thread_processEi
         U __ZN7sc_core18sc_process_monitor6signalEPNS_17sc_thread_processEi
         U __ZN7sc_core18sc_process_monitor6signalEPNS_17sc_thread_processEi
         U __ZN7sc_core18sc_process_monitor6signalEPNS_17sc_thread_processEi
         U __ZN7sc_core18sc_process_monitor6signalEPNS_17sc_thread_processEi
         U __ZN7sc_core18sc_process_monitor6signalEPNS_17sc_thread_processEi
         U __ZN7sc_core18sc_process_monitor6signalEPNS_17sc_thread_processEi
         U __ZN7sc_core18sc_process_monitor6signalEPNS_17sc_thread_processEi
         U __ZN7sc_core18sc_process_monitor6signalEPNS_17sc_thread_processEi
         U __ZN7sc_core18sc_process_monitor6signalEPNS_17sc_thread_processEi
         U __ZN7sc_core18sc_process_monitor6signalEPNS_17sc_thread_processEi
         U __ZN7sc_core18sc_process_monitor6signalEPNS_17sc_thread_processEi
         U __ZN7sc_core18sc_process_monitor6signalEPNS_17sc_thread_processEi
         U __ZN7sc_core18sc_process_monitor6signalEPNS_17sc_thread_processEi
         U __ZN7sc_core18sc_process_monitor6signalEPNS_17sc_thread_processEi
         U __ZN7sc_core18sc_process_monitor6signalEPNS_17sc_thread_processEi
         U __ZN7sc_core18sc_process_monitor6signalEPNS_17sc_thread_processEi
         U __ZN7sc_core18sc_process_monitor6signalEPNS_17sc_thread_processEi
         U __ZN7sc_core18sc_process_monitor6signalEPNS_17sc_thread_processEi
         U __ZN7sc_core18sc_process_monitor6signalEPNS_17sc_thread_processEi
         U __ZN7sc_core18sc_process_monitor6signalEPNS_17sc_thread_processEi
         U __ZN7sc_core18sc_process_monitor6signalEPNS_17sc_thread_processEi
         U __ZN7sc_core18sc_process_monitorD0Ev
         U __ZN7sc_core18sc_process_monitorD0Ev
         U __ZN7sc_core18sc_process_monitorD0Ev
         U __ZN7sc_core18sc_process_monitorD0Ev
         U __ZN7sc_core18sc_process_monitorD0Ev
         U __ZN7sc_core18sc_process_monitorD0Ev
         U __ZN7sc_core18sc_process_monitorD0Ev
         U __ZN7sc_core18sc_process_monitorD0Ev
         U __ZN7sc_core18sc_process_monitorD0Ev
         U __ZN7sc_core18sc_process_monitorD0Ev
         U __ZN7sc_core18sc_process_monitorD0Ev
         U __ZN7sc_core18sc_process_monitorD0Ev
         U __ZN7sc_core18sc_process_monitorD0Ev
         U __ZN7sc_core18sc_process_monitorD0Ev
         U __ZN7sc_core18sc_process_monitorD0Ev
         U __ZN7sc_core18sc_process_monitorD0Ev
         U __ZN7sc_core18sc_process_monitorD0Ev
         U __ZN7sc_core18sc_process_monitorD0Ev
         U __ZN7sc_core18sc_process_monitorD0Ev
         U __ZN7sc_core18sc_process_monitorD0Ev
         U __ZN7sc_core18sc_process_monitorD0Ev
         U __ZN7sc_core18sc_process_monitorD0Ev
         U __ZN7sc_core18sc_process_monitorD0Ev
         U __ZN7sc_core18sc_process_monitorD0Ev
         U __ZN7sc_core18sc_process_monitorD0Ev
         U __ZN7sc_core18sc_process_monitorD0Ev
         U __ZN7sc_core18sc_process_monitorD0Ev
         U __ZN7sc_core18sc_process_monitorD0Ev
         U __ZN7sc_core18sc_process_monitorD0Ev
         U __ZN7sc_core18sc_process_monitorD0Ev
         U __ZN7sc_core18sc_process_monitorD0Ev
         U __ZN7sc_core18sc_process_monitorD0Ev
         U __ZN7sc_core18sc_process_monitorD0Ev
         U __ZN7sc_core18sc_process_monitorD0Ev
         U __ZN7sc_core18sc_process_monitorD0Ev
         U __ZN7sc_core18sc_process_monitorD0Ev
         U __ZN7sc_core18sc_process_monitorD0Ev
         U __ZN7sc_core18sc_process_monitorD0Ev
         U __ZN7sc_core18sc_process_monitorD0Ev
         U __ZN7sc_core18sc_process_monitorD0Ev
         U __ZN7sc_core18sc_process_monitorD0Ev
         U __ZN7sc_core18sc_process_monitorD0Ev
         U __ZN7sc_core18sc_process_monitorD0Ev
         U __ZN7sc_core18sc_process_monitorD0Ev
         U __ZN7sc_core18sc_process_monitorD0Ev
         U __ZN7sc_core18sc_process_monitorD0Ev
         U __ZN7sc_core18sc_process_monitorD0Ev
         U __ZN7sc_core18sc_process_monitorD0Ev
         U __ZN7sc_core18sc_process_monitorD0Ev
         U __ZN7sc_core18sc_process_monitorD1Ev
         U __ZN7sc_core18sc_process_monitorD1Ev
         U __ZN7sc_core18sc_process_monitorD1Ev
         U __ZN7sc_core18sc_process_monitorD1Ev
         U __ZN7sc_core18sc_process_monitorD1Ev
         U __ZN7sc_core18sc_process_monitorD1Ev
         U __ZN7sc_core18sc_process_monitorD1Ev
         U __ZN7sc_core18sc_process_monitorD1Ev
         U __ZN7sc_core18sc_process_monitorD1Ev
         U __ZN7sc_core18sc_process_monitorD1Ev
         U __ZN7sc_core18sc_process_monitorD1Ev
         U __ZN7sc_core18sc_process_monitorD1Ev
         U __ZN7sc_core18sc_process_monitorD1Ev
         U __ZN7sc_core18sc_process_monitorD1Ev
         U __ZN7sc_core18sc_process_monitorD1Ev
         U __ZN7sc_core18sc_process_monitorD1Ev
         U __ZN7sc_core18sc_process_monitorD1Ev
         U __ZN7sc_core18sc_process_monitorD1Ev
         U __ZN7sc_core18sc_process_monitorD1Ev
         U __ZN7sc_core18sc_process_monitorD1Ev
         U __ZN7sc_core18sc_process_monitorD1Ev
         U __ZN7sc_core18sc_process_monitorD1Ev
         U __ZN7sc_core18sc_process_monitorD1Ev
         U __ZN7sc_core18sc_process_monitorD1Ev
         U __ZN7sc_core18sc_process_monitorD1Ev
         U __ZN7sc_core18sc_process_monitorD1Ev
         U __ZN7sc_core18sc_process_monitorD1Ev
         U __ZN7sc_core18sc_process_monitorD1Ev
         U __ZN7sc_core18sc_process_monitorD1Ev
         U __ZN7sc_core18sc_process_monitorD1Ev
         U __ZN7sc_core18sc_process_monitorD1Ev
         U __ZN7sc_core18sc_process_monitorD1Ev
         U __ZN7sc_core18sc_process_monitorD1Ev
         U __ZN7sc_core18sc_process_monitorD1Ev
         U __ZN7sc_core18sc_process_monitorD1Ev
         U __ZN7sc_core18sc_process_monitorD1Ev
         U __ZN7sc_core18sc_process_monitorD1Ev
         U __ZN7sc_core18sc_process_monitorD1Ev
         U __ZN7sc_core18sc_process_monitorD1Ev
         U __ZN7sc_core18sc_process_monitorD1Ev
         U __ZN7sc_core18sc_process_monitorD1Ev
         U __ZN7sc_core18sc_process_monitorD1Ev
         U __ZN7sc_core18sc_process_monitorD1Ev
         U __ZN7sc_core18sc_process_monitorD1Ev
         U __ZN7sc_core18sc_process_monitorD1Ev
         U __ZN7sc_core18sc_process_monitorD1Ev
         U __ZN7sc_core18sc_process_monitorD1Ev
         U __ZN7sc_core18sc_process_monitorD1Ev
         U __ZN7sc_core18sc_process_monitorD1Ev
         U __ZN7sc_core18sc_signal_inout_ifIbED0Ev
         U __ZN7sc_core18sc_signal_inout_ifIbED0Ev
         U __ZN7sc_core18sc_signal_inout_ifIbED1Ev
         U __ZN7sc_core18sc_signal_inout_ifIbED1Ev
         U __ZN7sc_core18sc_signal_inout_ifIN5sc_dt8sc_logicEED0Ev
         U __ZN7sc_core18sc_signal_inout_ifIN5sc_dt8sc_logicEED0Ev
         U __ZN7sc_core18sc_signal_inout_ifIN5sc_dt8sc_logicEED1Ev
         U __ZN7sc_core18sc_signal_inout_ifIN5sc_dt8sc_logicEED1Ev
         U __ZN7sc_core18sc_signal_write_ifIbED0Ev
         U __ZN7sc_core18sc_signal_write_ifIbED0Ev
         U __ZN7sc_core18sc_signal_write_ifIbED1Ev
         U __ZN7sc_core18sc_signal_write_ifIbED1Ev
         U __ZN7sc_core18sc_signal_write_ifIN5sc_dt8sc_logicEED0Ev
         U __ZN7sc_core18sc_signal_write_ifIN5sc_dt8sc_logicEED0Ev
         U __ZN7sc_core18sc_signal_write_ifIN5sc_dt8sc_logicEED1Ev
         U __ZN7sc_core18sc_signal_write_ifIN5sc_dt8sc_logicEED1Ev
         U __ZN7sc_core5sc_inIbED1Ev
         U __ZN7sc_core5sc_inIN5sc_dt8sc_logicEE20mti_bind_sc_obj_nameEPc
         U __ZN7sc_core5sc_inIN5sc_dt8sc_logicEE4bindERKNS_15sc_signal_in_ifIS2_EE
         U __ZN7sc_core5sc_inIN5sc_dt8sc_logicEE4bindERNS_15sc_signal_in_ifIS2_EE
         U __ZN7sc_core5sc_inIN5sc_dt8sc_logicEE4bindERNS_7sc_portINS_15sc_signal_in_ifIS2_EELi1ELNS_14sc_port_policyE0EEE
         U __ZN7sc_core5sc_inIN5sc_dt8sc_logicEE4bindERNS_7sc_portINS_18sc_signal_inout_ifIS2_EELi1ELNS_14sc_port_policyE0EEE
         U __ZN7sc_core5sc_inIN5sc_dt8sc_logicEE4bindERNS_9sc_port_bINS_15sc_signal_in_ifIS2_EEEE
         U __ZN7sc_core5sc_inIN5sc_dt8sc_logicEED1Ev
         U __ZN7sc_core7sc_portINS_15sc_signal_in_ifIbEELi1ELNS_14sc_port_policyE0EED0Ev
         U __ZN7sc_core7sc_portINS_15sc_signal_in_ifIbEELi1ELNS_14sc_port_policyE0EED1Ev
         U __ZN7sc_core7sc_portINS_15sc_signal_in_ifIN5sc_dt8sc_logicEEELi1ELNS_14sc_port_policyE0EED0Ev
         U __ZN7sc_core7sc_portINS_15sc_signal_in_ifIN5sc_dt8sc_logicEEELi1ELNS_14sc_port_policyE0EED0Ev
         U __ZN7sc_core7sc_portINS_15sc_signal_in_ifIN5sc_dt8sc_logicEEELi1ELNS_14sc_port_policyE0EED1Ev
         U __ZN7sc_core7sc_portINS_15sc_signal_in_ifIN5sc_dt8sc_logicEEELi1ELNS_14sc_port_policyE0EED1Ev
         U __ZN7sc_core7sc_portINS_18sc_signal_inout_ifIN5sc_dt8sc_logicEEELi1ELNS_14sc_port_policyE0EED0Ev
         U __ZN7sc_core7sc_portINS_18sc_signal_inout_ifIN5sc_dt8sc_logicEEELi1ELNS_14sc_port_policyE0EED1Ev
         U __ZN7sc_core8sc_inoutIN5sc_dt8sc_logicEE20mti_bind_sc_obj_nameEPc
         U __ZN7sc_core9sc_module13mti_is_regionEv
         U __ZN7sc_core9sc_module13mti_is_regionEv
         U __ZN7sc_core9sc_module13mti_is_regionEv
         U __ZN7sc_core9sc_module13mti_is_regionEv
         U __ZN7sc_core9sc_object13mti_is_regionEv
         U __ZN7sc_core9sc_object13mti_is_regionEv
         U __ZN7sc_core9sc_object13mti_is_regionEv
         U __ZN7sc_core9sc_object13mti_is_regionEv
         U __ZN7sc_core9sc_object13mti_is_regionEv
         U __ZN7sc_core9sc_object13mti_is_regionEv
         U __ZN7sc_core9sc_object13mti_is_regionEv
         U __ZN7sc_core9sc_object13mti_is_regionEv
         U __ZN7sc_core9sc_object13mti_is_regionEv
         U __ZN7sc_core9sc_object13mti_is_regionEv
         U __ZN7sc_core9sc_object13mti_is_regionEv
         U __ZN7sc_core9sc_object13mti_is_regionEv
         U __ZN7sc_core9sc_object13mti_is_regionEv
         U __ZN7sc_core9sc_object23mti_is_use_default_nameEv
         U __ZN7sc_core9sc_object23mti_is_use_default_nameEv
         U __ZN7sc_core9sc_object23mti_is_use_default_nameEv
         U __ZN7sc_core9sc_object23mti_is_use_default_nameEv
         U __ZN7sc_core9sc_object23mti_is_use_default_nameEv
         U __ZN7sc_core9sc_object23mti_is_use_default_nameEv
         U __ZN7sc_core9sc_object23mti_is_use_default_nameEv
         U __ZN7sc_core9sc_object23mti_is_use_default_nameEv
         U __ZN7sc_core9sc_object23mti_is_use_default_nameEv
         U __ZN7sc_core9sc_object23mti_is_use_default_nameEv
         U __ZN7sc_core9sc_object23mti_is_use_default_nameEv
         U __ZN7sc_core9sc_object23mti_is_use_default_nameEv
         U __ZN7sc_core9sc_object23mti_is_use_default_nameEv
         U __ZN7sc_core9sc_object23mti_is_use_default_nameEv
         U __ZN7sc_core9sc_object23mti_is_use_default_nameEv
         U __ZN7sc_core9sc_object23mti_is_use_default_nameEv
         U __ZN7sc_core9sc_object24mti_set_use_default_nameEb
         U __ZN7sc_core9sc_object24mti_set_use_default_nameEb
         U __ZN7sc_core9sc_object24mti_set_use_default_nameEb
         U __ZN7sc_core9sc_object24mti_set_use_default_nameEb
         U __ZN7sc_core9sc_object24mti_set_use_default_nameEb
         U __ZN7sc_core9sc_object24mti_set_use_default_nameEb
         U __ZN7sc_core9sc_object24mti_set_use_default_nameEb
         U __ZN7sc_core9sc_object24mti_set_use_default_nameEb
         U __ZN7sc_core9sc_object24mti_set_use_default_nameEb
         U __ZN7sc_core9sc_object24mti_set_use_default_nameEb
         U __ZN7sc_core9sc_object24mti_set_use_default_nameEb
         U __ZN7sc_core9sc_object24mti_set_use_default_nameEb
         U __ZN7sc_core9sc_object24mti_set_use_default_nameEb
         U __ZN7sc_core9sc_object24mti_set_use_default_nameEb
         U __ZN7sc_core9sc_object24mti_set_use_default_nameEb
         U __ZN7sc_core9sc_object24mti_set_use_default_nameEb
         U __ZN7sc_core9sc_port_bINS_15sc_signal_in_ifIbEEE13add_interfaceEPNS_12sc_interfaceE
         U __ZN7sc_core9sc_port_bINS_15sc_signal_in_ifIbEEE13get_interfaceEv
         U __ZN7sc_core9sc_port_bINS_15sc_signal_in_ifIbEEE15interface_countEv
         U __ZN7sc_core9sc_port_bINS_15sc_signal_in_ifIbEEE4bindERS2_
         U __ZN7sc_core9sc_port_bINS_15sc_signal_in_ifIbEEE4bindERS3_
         U __ZN7sc_core9sc_port_bINS_15sc_signal_in_ifIbEEE5vbindERNS_12sc_interfaceE
         U __ZN7sc_core9sc_port_bINS_15sc_signal_in_ifIbEEE5vbindERNS_12sc_port_baseE
         U __ZN7sc_core9sc_port_bINS_15sc_signal_in_ifIbEEED0Ev
         U __ZN7sc_core9sc_port_bINS_15sc_signal_in_ifIbEEED1Ev
         U __ZN7sc_core9sc_port_bINS_15sc_signal_in_ifIN5sc_dt8sc_logicEEEE13add_interfaceEPNS_12sc_interfaceE
         U __ZN7sc_core9sc_port_bINS_15sc_signal_in_ifIN5sc_dt8sc_logicEEEE13add_interfaceEPNS_12sc_interfaceE
         U __ZN7sc_core9sc_port_bINS_15sc_signal_in_ifIN5sc_dt8sc_logicEEEE13get_interfaceEv
         U __ZN7sc_core9sc_port_bINS_15sc_signal_in_ifIN5sc_dt8sc_logicEEEE13get_interfaceEv
         U __ZN7sc_core9sc_port_bINS_15sc_signal_in_ifIN5sc_dt8sc_logicEEEE15interface_countEv
         U __ZN7sc_core9sc_port_bINS_15sc_signal_in_ifIN5sc_dt8sc_logicEEEE15interface_countEv
         U __ZN7sc_core9sc_port_bINS_15sc_signal_in_ifIN5sc_dt8sc_logicEEEE4bindERS4_
         U __ZN7sc_core9sc_port_bINS_15sc_signal_in_ifIN5sc_dt8sc_logicEEEE4bindERS4_
         U __ZN7sc_core9sc_port_bINS_15sc_signal_in_ifIN5sc_dt8sc_logicEEEE4bindERS5_
         U __ZN7sc_core9sc_port_bINS_15sc_signal_in_ifIN5sc_dt8sc_logicEEEE4bindERS5_
         U __ZN7sc_core9sc_port_bINS_15sc_signal_in_ifIN5sc_dt8sc_logicEEEE5vbindERNS_12sc_interfaceE
         U __ZN7sc_core9sc_port_bINS_15sc_signal_in_ifIN5sc_dt8sc_logicEEEE5vbindERNS_12sc_interfaceE
         U __ZN7sc_core9sc_port_bINS_15sc_signal_in_ifIN5sc_dt8sc_logicEEEE5vbindERNS_12sc_port_baseE
         U __ZN7sc_core9sc_port_bINS_15sc_signal_in_ifIN5sc_dt8sc_logicEEEE5vbindERNS_12sc_port_baseE
         U __ZN7sc_core9sc_port_bINS_15sc_signal_in_ifIN5sc_dt8sc_logicEEEED0Ev
         U __ZN7sc_core9sc_port_bINS_15sc_signal_in_ifIN5sc_dt8sc_logicEEEED0Ev
         U __ZN7sc_core9sc_port_bINS_15sc_signal_in_ifIN5sc_dt8sc_logicEEEED1Ev
         U __ZN7sc_core9sc_port_bINS_15sc_signal_in_ifIN5sc_dt8sc_logicEEEED1Ev
         U __ZN7sc_core9sc_port_bINS_18sc_signal_inout_ifIN5sc_dt8sc_logicEEEE13add_interfaceEPNS_12sc_interfaceE
         U __ZN7sc_core9sc_port_bINS_18sc_signal_inout_ifIN5sc_dt8sc_logicEEEE13get_interfaceEv
         U __ZN7sc_core9sc_port_bINS_18sc_signal_inout_ifIN5sc_dt8sc_logicEEEE15interface_countEv
         U __ZN7sc_core9sc_port_bINS_18sc_signal_inout_ifIN5sc_dt8sc_logicEEEE4bindERS4_
         U __ZN7sc_core9sc_port_bINS_18sc_signal_inout_ifIN5sc_dt8sc_logicEEEE4bindERS5_
         U __ZN7sc_core9sc_port_bINS_18sc_signal_inout_ifIN5sc_dt8sc_logicEEEE5vbindERNS_12sc_interfaceE
         U __ZN7sc_core9sc_port_bINS_18sc_signal_inout_ifIN5sc_dt8sc_logicEEEE5vbindERNS_12sc_port_baseE
         U __ZN7sc_core9sc_port_bINS_18sc_signal_inout_ifIN5sc_dt8sc_logicEEEED0Ev
         U __ZN7sc_core9sc_port_bINS_18sc_signal_inout_ifIN5sc_dt8sc_logicEEEED1Ev
         U __ZN7sc_core9sc_signalIbLNS_16sc_writer_policyE0EE18mti_get_channel_idEPNS_9sc_objectE
         U __ZN7sc_core9sc_signalIbLNS_16sc_writer_policyE0EE18mti_get_channel_idEPNS_9sc_objectE
         U __ZN7sc_core9sc_signalIbLNS_16sc_writer_policyE0EE20mti_get_channel_typeEv
         U __ZN7sc_core9sc_signalIbLNS_16sc_writer_policyE0EE20mti_get_channel_typeEv
         U __ZN7sc_core9sc_signalIbLNS_16sc_writer_policyE0EE21mti_get_channel_valueEi
         U __ZN7sc_core9sc_signalIbLNS_16sc_writer_policyE0EE21mti_get_channel_valueEi
         U __ZN7sc_core9sc_signalIbLNS_16sc_writer_policyE0EE21mti_set_channel_valueEPvi
         U __ZN7sc_core9sc_signalIbLNS_16sc_writer_policyE0EE21mti_set_channel_valueEPvi
         U __ZN7sc_core9sc_signalIbLNS_16sc_writer_policyE0EE27mti_get_construction_paramsEPiS3_S3_S3_S3_
         U __ZN7sc_core9sc_signalIbLNS_16sc_writer_policyE0EE27mti_get_construction_paramsEPiS3_S3_S3_S3_
         U __ZN7sc_core9sc_signalIbLNS_16sc_writer_policyE0EEC1EPKc
         U __ZN7sc_core9sc_signalIN5sc_dt8sc_logicELNS_16sc_writer_policyE0EE18mti_get_channel_idEPNS_9sc_objectE
         U __ZN7sc_core9sc_signalIN5sc_dt8sc_logicELNS_16sc_writer_policyE0EE20mti_get_channel_typeEv
         U __ZN7sc_core9sc_signalIN5sc_dt8sc_logicELNS_16sc_writer_policyE0EE21mti_get_channel_valueEi
         U __ZN7sc_core9sc_signalIN5sc_dt8sc_logicELNS_16sc_writer_policyE0EE21mti_set_channel_valueEPvi
         U __ZN7sc_core9sc_signalIN5sc_dt8sc_logicELNS_16sc_writer_policyE0EE27mti_get_construction_paramsEPiS5_S5_S5_S5_
         U __ZN7sc_core9sc_signalIN5sc_dt8sc_logicELNS_16sc_writer_policyE0EEaSERKS2_
         U __ZN7sc_core9sc_signalIN5sc_dt8sc_logicELNS_16sc_writer_policyE0EEC1Ev
         U __ZN7sc_core9sc_signalIN5sc_dt8sc_logicELNS_16sc_writer_policyE0EED0Ev
         U __ZN7sc_core9sc_signalIN5sc_dt8sc_logicELNS_16sc_writer_policyE0EED1Ev
         U __ZN7sc_core9sc_signalIN5sc_dt8sc_logicELNS_16sc_writer_policyE1EE18mti_get_channel_idEPNS_9sc_objectE
         U __ZN7sc_core9sc_signalIN5sc_dt8sc_logicELNS_16sc_writer_policyE1EE18mti_get_channel_idEPNS_9sc_objectE
         U __ZN7sc_core9sc_signalIN5sc_dt8sc_logicELNS_16sc_writer_policyE1EE20mti_get_channel_typeEv
         U __ZN7sc_core9sc_signalIN5sc_dt8sc_logicELNS_16sc_writer_policyE1EE20mti_get_channel_typeEv
         U __ZN7sc_core9sc_signalIN5sc_dt8sc_logicELNS_16sc_writer_policyE1EE21mti_get_channel_valueEi
         U __ZN7sc_core9sc_signalIN5sc_dt8sc_logicELNS_16sc_writer_policyE1EE21mti_get_channel_valueEi
         U __ZN7sc_core9sc_signalIN5sc_dt8sc_logicELNS_16sc_writer_policyE1EE21mti_set_channel_valueEPvi
         U __ZN7sc_core9sc_signalIN5sc_dt8sc_logicELNS_16sc_writer_policyE1EE21mti_set_channel_valueEPvi
         U __ZN7sc_core9sc_signalIN5sc_dt8sc_logicELNS_16sc_writer_policyE1EE27mti_get_construction_paramsEPiS5_S5_S5_S5_
         U __ZN7sc_core9sc_signalIN5sc_dt8sc_logicELNS_16sc_writer_policyE1EE27mti_get_construction_paramsEPiS5_S5_S5_S5_
         U __ZN7sc_core9sc_signalIN5sc_dt8sc_logicELNS_16sc_writer_policyE1EEC1EPKc
         U __ZN7sc_core9sc_signalIN5sc_dt8sc_logicELNS_16sc_writer_policyE1EEC2EPKc
         U __ZN7sc_core9sc_signalIN5sc_dt8sc_logicELNS_16sc_writer_policyE1EED0Ev
         U __ZN7sc_core9sc_signalIN5sc_dt8sc_logicELNS_16sc_writer_policyE1EED0Ev
         U __ZN7sc_core9sc_signalIN5sc_dt8sc_logicELNS_16sc_writer_policyE1EED1Ev
         U __ZN7sc_core9sc_signalIN5sc_dt8sc_logicELNS_16sc_writer_policyE1EED1Ev
         U __ZN7sc_core9sc_signalIN5sc_dt8sc_logicELNS_16sc_writer_policyE1EED2Ev
         U __ZN7sc_core9sc_signalIN5sc_dt8sc_logicELNS_16sc_writer_policyE1EED2Ev
         U __ZN8ptrarrayIPKN7sc_core8sc_eventEE15resize_physicalEi
         U __ZN8ptrarrayIPKN7sc_core8sc_eventEE15resize_physicalEi
         U __ZN8ptrarrayIPKN7sc_core8sc_eventEE9push_backES3_
         U __ZN8ptrarrayIPKN7sc_core8sc_eventEE9push_backES3_
         U __ZN8ptrarrayIPKN7sc_core8sc_eventEEC1Ev
         U __ZN8ptrarrayIPKN7sc_core8sc_eventEEC1Ev
         U __ZN8ptrarrayIPKN7sc_core8sc_eventEEC1Ev
         U __ZN8ptrarrayIPKN7sc_core8sc_eventEED1Ev
         U __ZN8ptrarrayIPKN7sc_core8sc_eventEED1Ev
         U __ZN8ptrarrayIPKN7sc_core8sc_eventEED1Ev
         U __ZN8ptrarrayIPKN7sc_core8sc_eventEED1Ev
         U __ZN8ptrarrayIPKN7sc_core8sc_eventEEixEi
         U __ZN8ptrarrayIPN7sc_core12sc_interfaceEEC1Ev
         U __ZN8ptrarrayIPN7sc_core12sc_interfaceEEC1Ev
         U __ZN8ptrarrayIPN7sc_core12sc_port_baseEE15resize_physicalEi
         U __ZN8ptrarrayIPN7sc_core12sc_port_baseEE9push_backES2_
         U __ZN8ptrarrayIPN7sc_core12sc_port_baseEEC1Ev
         U __ZN8ptrarrayIPN7sc_core12sc_port_baseEEC1Ev
         U __ZN8ptrarrayIPN7sc_core12sc_port_baseEEC1Ev
         U __ZN8ptrarrayIPN7sc_core12sc_port_baseEEC1Ev
         U __ZN8ptrarrayIPN7sc_core12sc_port_baseEED1Ev
         U __ZN8ptrarrayIPN7sc_core12sc_port_baseEED1Ev
         U __ZN8ptrarrayIPN7sc_core12sc_port_baseEEixEi
         U __ZN8ptrarrayIPN7sc_core12sc_process_bEED1Ev
         U __ZN8ptrarrayIPN7sc_core15sc_event_finderEEC1Ev
         U __ZN8ptrarrayIPN7sc_core15sc_event_finderEEC1Ev
         U __ZN8ptrarrayIPN7sc_core15sc_signal_in_ifIbEEE15resize_physicalEi
         U __ZN8ptrarrayIPN7sc_core15sc_signal_in_ifIbEEE9push_backES3_
         U __ZN8ptrarrayIPN7sc_core15sc_signal_in_ifIbEEED1Ev
         U __ZN8ptrarrayIPN7sc_core15sc_signal_in_ifIbEEEixEi
         U __ZN8ptrarrayIPN7sc_core15sc_signal_in_ifIN5sc_dt8sc_logicEEEE15resize_physicalEi
         U __ZN8ptrarrayIPN7sc_core15sc_signal_in_ifIN5sc_dt8sc_logicEEEE15resize_physicalEi
         U __ZN8ptrarrayIPN7sc_core15sc_signal_in_ifIN5sc_dt8sc_logicEEEE9push_backES5_
         U __ZN8ptrarrayIPN7sc_core15sc_signal_in_ifIN5sc_dt8sc_logicEEEE9push_backES5_
         U __ZN8ptrarrayIPN7sc_core15sc_signal_in_ifIN5sc_dt8sc_logicEEEED1Ev
         U __ZN8ptrarrayIPN7sc_core15sc_signal_in_ifIN5sc_dt8sc_logicEEEED1Ev
         U __ZN8ptrarrayIPN7sc_core15sc_signal_in_ifIN5sc_dt8sc_logicEEEEixEi
         U __ZN8ptrarrayIPN7sc_core15sc_signal_in_ifIN5sc_dt8sc_logicEEEEixEi
         U __ZN8ptrarrayIPN7sc_core15sc_trace_paramsEED1Ev
         U __ZN8ptrarrayIPN7sc_core15sc_trace_paramsEEixEi
         U __ZN8ptrarrayIPN7sc_core17sc_method_processEE15resize_physicalEi
         U __ZN8ptrarrayIPN7sc_core17sc_method_processEE15resize_physicalEi
         U __ZN8ptrarrayIPN7sc_core17sc_method_processEE9push_backES2_
         U __ZN8ptrarrayIPN7sc_core17sc_method_processEE9push_backES2_
         U __ZN8ptrarrayIPN7sc_core17sc_method_processEEC1Ev
         U __ZN8ptrarrayIPN7sc_core17sc_method_processEED1Ev
         U __ZN8ptrarrayIPN7sc_core17sc_thread_processEE15resize_physicalEi
         U __ZN8ptrarrayIPN7sc_core17sc_thread_processEE15resize_physicalEi
         U __ZN8ptrarrayIPN7sc_core17sc_thread_processEE9push_backES2_
         U __ZN8ptrarrayIPN7sc_core17sc_thread_processEE9push_backES2_
         U __ZN8ptrarrayIPN7sc_core17sc_thread_processEEC1Ev
         U __ZN8ptrarrayIPN7sc_core17sc_thread_processEED1Ev
         U __ZN8ptrarrayIPN7sc_core18sc_process_monitorEEC1Ev
         U __ZN8ptrarrayIPN7sc_core18sc_process_monitorEED1Ev
         U __ZN8ptrarrayIPN7sc_core18sc_process_monitorEEixEi
         U __ZN8ptrarrayIPN7sc_core18sc_signal_inout_ifIN5sc_dt8sc_logicEEEE15resize_physicalEi
         U __ZN8ptrarrayIPN7sc_core18sc_signal_inout_ifIN5sc_dt8sc_logicEEEE9push_backES5_
         U __ZN8ptrarrayIPN7sc_core18sc_signal_inout_ifIN5sc_dt8sc_logicEEEED1Ev
         U __ZN8ptrarrayIPN7sc_core18sc_signal_inout_ifIN5sc_dt8sc_logicEEEEixEi
         U __ZN8ptrarrayIPN7sc_core19sc_spawn_reset_baseEEC1Ev
         U __ZN8ptrarrayIPN7sc_core19sc_spawn_reset_baseEEC1Ev
         U __ZN9__gnu_cxx24__concurrence_lock_errorD0Ev
         U __ZN9__gnu_cxx24__concurrence_lock_errorD0Ev
         U __ZN9__gnu_cxx24__concurrence_lock_errorD0Ev
         U __ZN9__gnu_cxx24__concurrence_lock_errorD1Ev
         U __ZN9__gnu_cxx24__concurrence_lock_errorD1Ev
         U __ZN9__gnu_cxx24__concurrence_lock_errorD1Ev
         U __ZN9__gnu_cxx26__concurrence_unlock_errorD0Ev
         U __ZN9__gnu_cxx26__concurrence_unlock_errorD0Ev
         U __ZN9__gnu_cxx26__concurrence_unlock_errorD0Ev
         U __ZN9__gnu_cxx26__concurrence_unlock_errorD1Ev
         U __ZN9__gnu_cxx26__concurrence_unlock_errorD1Ev
         U __ZN9__gnu_cxx26__concurrence_unlock_errorD1Ev
         U __ZNK13sc_mti_access17mti_get_dpi_valueEPv
         U __ZNK13sc_mti_access17mti_get_dpi_valueEPv
         U __ZNK13sc_mti_access17mti_get_dpi_valueEPv
         U __ZNK13sc_mti_access17mti_get_dpi_valueEPv
         U __ZNK13sc_mti_access17mti_get_dpi_valueEPv
         U __ZNK13sc_mti_access17mti_get_dpi_valueEPv
         U __ZNK13sc_mti_access17mti_get_dpi_valueEPv
         U __ZNK13sc_mti_access17mti_get_dpi_valueEPv
         U __ZNK13sc_mti_access17mti_get_dpi_valueEPv
         U __ZNK13sc_mti_access17mti_get_dpi_valueEPv
         U __ZNK13sc_mti_access17mti_get_dpi_valueEPv
         U __ZNK13sc_mti_access17mti_get_dpi_valueEPv
         U __ZNK13sc_mti_access17mti_get_dpi_valueEPv
         U __ZNK13sc_mti_access17mti_get_dpi_valueEPv
         U __ZNK13sc_mti_access17mti_get_dpi_valueEPv
         U __ZNK13sc_mti_access17mti_get_dpi_valueEPv
         U __ZNK13sc_mti_access17mti_get_dpi_valueEPv
         U __ZNK13sc_mti_access17mti_get_dpi_valueEPv
         U __ZNK13sc_mti_access17mti_get_dpi_valueEPv
         U __ZNK13sc_mti_access17mti_get_dpi_valueEPv
         U __ZNK13sc_mti_access17mti_get_dpi_valueEPv
         U __ZNK13sc_mti_access17mti_get_dpi_valueEPv
         U __ZNK13sc_mti_access17mti_get_dpi_valueEPv
         U __ZNK13sc_mti_access17mti_get_dpi_valueEPv
         U __ZNK13sc_mti_access17mti_get_dpi_valueEPv
         U __ZNK13sc_mti_access17mti_get_dpi_valueEPv
         U __ZNK13sc_mti_access17mti_get_dpi_valueEPv
         U __ZNK13sc_mti_access17mti_get_dpi_valueEPv
         U __ZNK13sc_mti_access17mti_get_dpi_valueEPv
         U __ZNK13sc_mti_access17mti_get_dpi_valueEPv
         U __ZNK13sc_mti_access17mti_get_dpi_valueEPv
         U __ZNK5sc_dt12sc_uint_base13concat_lengthEPb
         U __ZNK5sc_dt12sc_uint_base17concat_get_uint64Ev
         U __ZNK7sc_core12sc_port_base4kindEv
         U __ZNK7sc_core12sc_port_base4kindEv
         U __ZNK7sc_core12sc_port_base4kindEv
         U __ZNK7sc_core12sc_process_b10terminatedEv
         U __ZNK7sc_core12sc_process_b10terminatedEv
         U __ZNK7sc_core12sc_process_b10terminatedEv
         U __ZNK7sc_core12sc_process_b17get_child_objectsEv
         U __ZNK7sc_core12sc_process_b17get_child_objectsEv
         U __ZNK7sc_core12sc_process_b17get_child_objectsEv
         U __ZNK7sc_core15sc_signal_in_ifIbE8is_resetEv
         U __ZNK7sc_core15sc_signal_in_ifIbE8is_resetEv
         U __ZNK7sc_core17sc_event_finder_tINS_15sc_signal_in_ifIbEEE10find_eventEPNS_12sc_interfaceE
         U __ZNK7sc_core17sc_event_finder_tINS_15sc_signal_in_ifIN5sc_dt8sc_logicEEEE10find_eventEPNS_12sc_interfaceE
         U __ZNK7sc_core18sc_signal_write_ifIbE17get_writer_policyEv
         U __ZNK7sc_core18sc_signal_write_ifIbE17get_writer_policyEv
         U __ZNK7sc_core18sc_signal_write_ifIN5sc_dt8sc_logicEE17get_writer_policyEv
         U __ZNK7sc_core18sc_signal_write_ifIN5sc_dt8sc_logicEE17get_writer_policyEv
         U __ZNK7sc_core7sc_portINS_15sc_signal_in_ifIbEELi1ELNS_14sc_port_policyE0EE4kindEv
         U __ZNK7sc_core7sc_portINS_15sc_signal_in_ifIN5sc_dt8sc_logicEEELi1ELNS_14sc_port_policyE0EE4kindEv
         U __ZNK7sc_core7sc_portINS_15sc_signal_in_ifIN5sc_dt8sc_logicEEELi1ELNS_14sc_port_policyE0EE4kindEv
         U __ZNK7sc_core7sc_portINS_18sc_signal_inout_ifIN5sc_dt8sc_logicEEELi1ELNS_14sc_port_policyE0EE4kindEv
         U __ZNK7sc_core9sc_module4kindEv
         U __ZNK7sc_core9sc_module4kindEv
         U __ZNK7sc_core9sc_module4kindEv
         U __ZNK7sc_core9sc_module4kindEv
         U __ZNK7sc_core9sc_object16get_child_eventsEv
         U __ZNK7sc_core9sc_object16get_child_eventsEv
         U __ZNK7sc_core9sc_object16get_child_eventsEv
         U __ZNK7sc_core9sc_object16get_child_eventsEv
         U __ZNK7sc_core9sc_object16get_child_eventsEv
         U __ZNK7sc_core9sc_object16get_child_eventsEv
         U __ZNK7sc_core9sc_object16get_child_eventsEv
         U __ZNK7sc_core9sc_object16get_child_eventsEv
         U __ZNK7sc_core9sc_object16get_child_eventsEv
         U __ZNK7sc_core9sc_object16get_child_eventsEv
         U __ZNK7sc_core9sc_object16get_child_eventsEv
         U __ZNK7sc_core9sc_object16get_child_eventsEv
         U __ZNK7sc_core9sc_object16get_child_eventsEv
         U __ZNK7sc_core9sc_object16get_child_eventsEv
         U __ZNK7sc_core9sc_object16get_child_eventsEv
         U __ZNK7sc_core9sc_object16get_child_eventsEv
         U __ZNK7sc_core9sc_object17get_child_objectsEv
         U __ZNK7sc_core9sc_object17get_child_objectsEv
         U __ZNK7sc_core9sc_object17get_child_objectsEv
         U __ZNK7sc_core9sc_object17get_child_objectsEv
         U __ZNK7sc_core9sc_object17get_child_objectsEv
         U __ZNK7sc_core9sc_object17get_child_objectsEv
         U __ZNK7sc_core9sc_object17get_child_objectsEv
         U __ZNK7sc_core9sc_object17get_child_objectsEv
         U __ZNK7sc_core9sc_object17get_child_objectsEv
         U __ZNK7sc_core9sc_object4kindEv
         U __ZNK7sc_core9sc_object4kindEv
         U __ZNK7sc_core9sc_port_bINS_15sc_signal_in_ifIbEEE11if_typenameEv
         U __ZNK7sc_core9sc_port_bINS_15sc_signal_in_ifIbEEE13get_interfaceEv
         U __ZNK7sc_core9sc_port_bINS_15sc_signal_in_ifIbEEE14make_sensitiveEPNS_17sc_method_processEPNS_15sc_event_finderE
         U __ZNK7sc_core9sc_port_bINS_15sc_signal_in_ifIbEEE14make_sensitiveEPNS_17sc_thread_processEPNS_15sc_event_finderE
         U __ZNK7sc_core9sc_port_bINS_15sc_signal_in_ifIN5sc_dt8sc_logicEEEE11if_typenameEv
         U __ZNK7sc_core9sc_port_bINS_15sc_signal_in_ifIN5sc_dt8sc_logicEEEE11if_typenameEv
         U __ZNK7sc_core9sc_port_bINS_15sc_signal_in_ifIN5sc_dt8sc_logicEEEE13get_interfaceEv
         U __ZNK7sc_core9sc_port_bINS_15sc_signal_in_ifIN5sc_dt8sc_logicEEEE13get_interfaceEv
         U __ZNK7sc_core9sc_port_bINS_15sc_signal_in_ifIN5sc_dt8sc_logicEEEE14make_sensitiveEPNS_17sc_method_processEPNS_15sc_event_finderE
         U __ZNK7sc_core9sc_port_bINS_15sc_signal_in_ifIN5sc_dt8sc_logicEEEE14make_sensitiveEPNS_17sc_method_processEPNS_15sc_event_finderE
         U __ZNK7sc_core9sc_port_bINS_15sc_signal_in_ifIN5sc_dt8sc_logicEEEE14make_sensitiveEPNS_17sc_thread_processEPNS_15sc_event_finderE
         U __ZNK7sc_core9sc_port_bINS_15sc_signal_in_ifIN5sc_dt8sc_logicEEEE14make_sensitiveEPNS_17sc_thread_processEPNS_15sc_event_finderE
         U __ZNK7sc_core9sc_port_bINS_18sc_signal_inout_ifIN5sc_dt8sc_logicEEEE11if_typenameEv
         U __ZNK7sc_core9sc_port_bINS_18sc_signal_inout_ifIN5sc_dt8sc_logicEEEE13get_interfaceEv
         U __ZNK7sc_core9sc_port_bINS_18sc_signal_inout_ifIN5sc_dt8sc_logicEEEE14make_sensitiveEPNS_17sc_method_processEPNS_15sc_event_finderE
         U __ZNK7sc_core9sc_port_bINS_18sc_signal_inout_ifIN5sc_dt8sc_logicEEEE14make_sensitiveEPNS_17sc_thread_processEPNS_15sc_event_finderE
         U __ZNK7sc_core9sc_signalIbLNS_16sc_writer_policyE0EE12get_data_refEv
         U __ZNK7sc_core9sc_signalIbLNS_16sc_writer_policyE0EE12get_data_refEv
         U __ZNK7sc_core9sc_signalIbLNS_16sc_writer_policyE0EE13default_eventEv
         U __ZNK7sc_core9sc_signalIbLNS_16sc_writer_policyE0EE13default_eventEv
         U __ZNK7sc_core9sc_signalIbLNS_16sc_writer_policyE0EE17get_writer_policyEv
         U __ZNK7sc_core9sc_signalIbLNS_16sc_writer_policyE0EE17get_writer_policyEv
         U __ZNK7sc_core9sc_signalIbLNS_16sc_writer_policyE0EE4kindEv
         U __ZNK7sc_core9sc_signalIbLNS_16sc_writer_policyE0EE4kindEv
         U __ZNK7sc_core9sc_signalIbLNS_16sc_writer_policyE0EE4readEv
         U __ZNK7sc_core9sc_signalIbLNS_16sc_writer_policyE0EE4readEv
         U __ZNK7sc_core9sc_signalIbLNS_16sc_writer_policyE0EE5eventEv
         U __ZNK7sc_core9sc_signalIbLNS_16sc_writer_policyE0EE5eventEv
         U __ZNK7sc_core9sc_signalIbLNS_16sc_writer_policyE0EE5traceEPNS_13sc_trace_fileE
         U __ZNK7sc_core9sc_signalIbLNS_16sc_writer_policyE0EE5traceEPNS_13sc_trace_fileE
         U __ZNK7sc_core9sc_signalIbLNS_16sc_writer_policyE0EE7negedgeEv
         U __ZNK7sc_core9sc_signalIbLNS_16sc_writer_policyE0EE7negedgeEv
         U __ZNK7sc_core9sc_signalIbLNS_16sc_writer_policyE0EE7posedgeEv
         U __ZNK7sc_core9sc_signalIbLNS_16sc_writer_policyE0EE7posedgeEv
         U __ZNK7sc_core9sc_signalIN5sc_dt8sc_logicELNS_16sc_writer_policyE0EE12get_data_refEv
         U __ZNK7sc_core9sc_signalIN5sc_dt8sc_logicELNS_16sc_writer_policyE0EE13default_eventEv
         U __ZNK7sc_core9sc_signalIN5sc_dt8sc_logicELNS_16sc_writer_policyE0EE17get_writer_policyEv
         U __ZNK7sc_core9sc_signalIN5sc_dt8sc_logicELNS_16sc_writer_policyE0EE4kindEv
         U __ZNK7sc_core9sc_signalIN5sc_dt8sc_logicELNS_16sc_writer_policyE0EE4readEv
         U __ZNK7sc_core9sc_signalIN5sc_dt8sc_logicELNS_16sc_writer_policyE0EE5eventEv
         U __ZNK7sc_core9sc_signalIN5sc_dt8sc_logicELNS_16sc_writer_policyE0EE5traceEPNS_13sc_trace_fileE
         U __ZNK7sc_core9sc_signalIN5sc_dt8sc_logicELNS_16sc_writer_policyE0EE7negedgeEv
         U __ZNK7sc_core9sc_signalIN5sc_dt8sc_logicELNS_16sc_writer_policyE0EE7posedgeEv
         U __ZNK7sc_core9sc_signalIN5sc_dt8sc_logicELNS_16sc_writer_policyE1EE12get_data_refEv
         U __ZNK7sc_core9sc_signalIN5sc_dt8sc_logicELNS_16sc_writer_policyE1EE12get_data_refEv
         U __ZNK7sc_core9sc_signalIN5sc_dt8sc_logicELNS_16sc_writer_policyE1EE13default_eventEv
         U __ZNK7sc_core9sc_signalIN5sc_dt8sc_logicELNS_16sc_writer_policyE1EE13default_eventEv
         U __ZNK7sc_core9sc_signalIN5sc_dt8sc_logicELNS_16sc_writer_policyE1EE17get_writer_policyEv
         U __ZNK7sc_core9sc_signalIN5sc_dt8sc_logicELNS_16sc_writer_policyE1EE17get_writer_policyEv
         U __ZNK7sc_core9sc_signalIN5sc_dt8sc_logicELNS_16sc_writer_policyE1EE4kindEv
         U __ZNK7sc_core9sc_signalIN5sc_dt8sc_logicELNS_16sc_writer_policyE1EE4kindEv
         U __ZNK7sc_core9sc_signalIN5sc_dt8sc_logicELNS_16sc_writer_policyE1EE4readEv
         U __ZNK7sc_core9sc_signalIN5sc_dt8sc_logicELNS_16sc_writer_policyE1EE4readEv
         U __ZNK7sc_core9sc_signalIN5sc_dt8sc_logicELNS_16sc_writer_policyE1EE5eventEv
         U __ZNK7sc_core9sc_signalIN5sc_dt8sc_logicELNS_16sc_writer_policyE1EE5eventEv
         U __ZNK7sc_core9sc_signalIN5sc_dt8sc_logicELNS_16sc_writer_policyE1EE5traceEPNS_13sc_trace_fileE
         U __ZNK7sc_core9sc_signalIN5sc_dt8sc_logicELNS_16sc_writer_policyE1EE5traceEPNS_13sc_trace_fileE
         U __ZNK7sc_core9sc_signalIN5sc_dt8sc_logicELNS_16sc_writer_policyE1EE7negedgeEv
         U __ZNK7sc_core9sc_signalIN5sc_dt8sc_logicELNS_16sc_writer_policyE1EE7negedgeEv
         U __ZNK7sc_core9sc_signalIN5sc_dt8sc_logicELNS_16sc_writer_policyE1EE7posedgeEv
         U __ZNK7sc_core9sc_signalIN5sc_dt8sc_logicELNS_16sc_writer_policyE1EE7posedgeEv
         U __ZNK8ptrarrayIPKN7sc_core8sc_eventEEixEi
         U __ZNK8ptrarrayIPKN7sc_core8sc_eventEEixEi
         U __ZNK8ptrarrayIPN7sc_core12sc_interfaceEEixEi
         U __ZNK8ptrarrayIPN7sc_core12sc_port_baseEEixEi
         U __ZNK8ptrarrayIPN7sc_core12sc_port_baseEEixEi
         U __ZNK8ptrarrayIPN7sc_core15sc_event_finderEEixEi
         U __ZNK8ptrarrayIPN7sc_core15sc_signal_in_ifIbEEEixEi
         U __ZNK8ptrarrayIPN7sc_core15sc_signal_in_ifIN5sc_dt8sc_logicEEEEixEi
         U __ZNK8ptrarrayIPN7sc_core15sc_signal_in_ifIN5sc_dt8sc_logicEEEEixEi
         U __ZNK8ptrarrayIPN7sc_core18sc_signal_inout_ifIN5sc_dt8sc_logicEEEEixEi
         U __ZNK8ptrarrayIPN7sc_core9sc_moduleEEixEi
         U __ZNK9__gnu_cxx24__concurrence_lock_error4whatEv
         U __ZNK9__gnu_cxx24__concurrence_lock_error4whatEv
         U __ZNK9__gnu_cxx24__concurrence_lock_error4whatEv
         U __ZNK9__gnu_cxx26__concurrence_unlock_error4whatEv
         U __ZNK9__gnu_cxx26__concurrence_unlock_error4whatEv
         U __ZNK9__gnu_cxx26__concurrence_unlock_error4whatEv
         U __ZNKSt5ctypeIcE8do_widenEc
         U __ZNKSt5ctypeIcE8do_widenEPKcS2_Pc
         U __ZNKSt5ctypeIcE9do_narrowEcc
         U __ZNKSt5ctypeIcE9do_narrowEPKcS2_cPc
         U __ZNSs12_S_constructIPcEES0_T_S1_RKSaIcESt20forward_iterator_tag
         U __ZNSs12_S_constructIPcEES0_T_S1_RKSaIcESt20forward_iterator_tag
         U __ZNSs12_S_constructIPcEES0_T_S1_RKSaIcESt20forward_iterator_tag
         U __ZNSs12_S_constructIPcEES0_T_S1_RKSaIcESt20forward_iterator_tag
         U __ZNSs12_S_constructIPcEES0_T_S1_RKSaIcESt20forward_iterator_tag
         U __ZNSsC1IPcEET_S1_RKSaIcE
         U __ZNSsC1IPcEET_S1_RKSaIcE
         U __ZNSsC1IPcEET_S1_RKSaIcE
         U __ZNSsC1IPcEET_S1_RKSaIcE
         U __ZNSsC1IPcEET_S1_RKSaIcE
         U __ZNSt11range_errorD0Ev
         U __ZNSt11range_errorD1Ev
         U __ZNSt12domain_errorD0Ev
         U __ZNSt12domain_errorD1Ev
         U __ZNSt12length_errorD0Ev
         U __ZNSt12length_errorD1Ev
         U __ZNSt12out_of_rangeD0Ev
         U __ZNSt12out_of_rangeD1Ev
         U __ZNSt14overflow_errorD0Ev
         U __ZNSt14overflow_errorD1Ev
         U __ZNSt15underflow_errorD0Ev
         U __ZNSt15underflow_errorD1Ev
         U __ZNSt16invalid_argumentD0Ev
         U __ZNSt16invalid_argumentD1Ev
         U __ZNSt6vectorIPN7sc_core8sc_eventESaIS2_EE13_M_insert_auxEN9__gnu_cxx17__normal_iteratorIPS2_S4_EERKS2_
         U __ZNSt6vectorIPN7sc_core9sc_objectESaIS2_EE13_M_insert_auxEN9__gnu_cxx17__normal_iteratorIPS2_S4_EERKS2_
         U __ZNSt6vectorIPN7sc_core9sc_objectESaIS2_EE13_M_insert_auxEN9__gnu_cxx17__normal_iteratorIPS2_S4_EERKS2_
         U __ZSt16__convert_from_vRKPiPciPKcz
         U __ZSt3minIjERKT_S2_S2_
         U __ZSt3minIjERKT_S2_S2_
         U __ZSt3minIjERKT_S2_S2_
         U __ZSt3minIjERKT_S2_S2_
         U __ZThn4_N7sc_core18sc_signal_inout_ifIbED0Ev
         U __ZThn4_N7sc_core18sc_signal_inout_ifIbED0Ev
         U __ZThn4_N7sc_core18sc_signal_inout_ifIbED1Ev
         U __ZThn4_N7sc_core18sc_signal_inout_ifIbED1Ev
         U __ZThn4_N7sc_core18sc_signal_inout_ifIN5sc_dt8sc_logicEED0Ev
         U __ZThn4_N7sc_core18sc_signal_inout_ifIN5sc_dt8sc_logicEED0Ev
         U __ZThn4_N7sc_core18sc_signal_inout_ifIN5sc_dt8sc_logicEED1Ev
         U __ZThn4_N7sc_core18sc_signal_inout_ifIN5sc_dt8sc_logicEED1Ev
         U __ZThn4_NK5sc_dt12sc_uint_base13concat_lengthEPb
         U __ZThn4_NK5sc_dt12sc_uint_base17concat_get_uint64Ev
         U __ZThn80_N7sc_core9sc_signalIN5sc_dt8sc_logicELNS_16sc_writer_policyE0EED0Ev
         U __ZThn80_N7sc_core9sc_signalIN5sc_dt8sc_logicELNS_16sc_writer_policyE0EED1Ev
         U __ZThn80_N7sc_core9sc_signalIN5sc_dt8sc_logicELNS_16sc_writer_policyE1EED0Ev
         U __ZThn80_N7sc_core9sc_signalIN5sc_dt8sc_logicELNS_16sc_writer_policyE1EED0Ev
         U __ZThn80_N7sc_core9sc_signalIN5sc_dt8sc_logicELNS_16sc_writer_policyE1EED1Ev
         U __ZThn80_N7sc_core9sc_signalIN5sc_dt8sc_logicELNS_16sc_writer_policyE1EED1Ev
         U __ZThn80_NK7sc_core9sc_signalIbLNS_16sc_writer_policyE0EE12get_data_refEv
         U __ZThn80_NK7sc_core9sc_signalIbLNS_16sc_writer_policyE0EE12get_data_refEv
         U __ZThn80_NK7sc_core9sc_signalIbLNS_16sc_writer_policyE0EE4readEv
         U __ZThn80_NK7sc_core9sc_signalIbLNS_16sc_writer_policyE0EE4readEv
         U __ZThn80_NK7sc_core9sc_signalIbLNS_16sc_writer_policyE0EE5eventEv
         U __ZThn80_NK7sc_core9sc_signalIbLNS_16sc_writer_policyE0EE5eventEv
         U __ZThn80_NK7sc_core9sc_signalIbLNS_16sc_writer_policyE0EE7negedgeEv
         U __ZThn80_NK7sc_core9sc_signalIbLNS_16sc_writer_policyE0EE7negedgeEv
         U __ZThn80_NK7sc_core9sc_signalIbLNS_16sc_writer_policyE0EE7posedgeEv
         U __ZThn80_NK7sc_core9sc_signalIbLNS_16sc_writer_policyE0EE7posedgeEv
         U __ZThn80_NK7sc_core9sc_signalIN5sc_dt8sc_logicELNS_16sc_writer_policyE0EE12get_data_refEv
         U __ZThn80_NK7sc_core9sc_signalIN5sc_dt8sc_logicELNS_16sc_writer_policyE0EE4readEv
         U __ZThn80_NK7sc_core9sc_signalIN5sc_dt8sc_logicELNS_16sc_writer_policyE0EE5eventEv
         U __ZThn80_NK7sc_core9sc_signalIN5sc_dt8sc_logicELNS_16sc_writer_policyE0EE7negedgeEv
         U __ZThn80_NK7sc_core9sc_signalIN5sc_dt8sc_logicELNS_16sc_writer_policyE0EE7posedgeEv
         U __ZThn80_NK7sc_core9sc_signalIN5sc_dt8sc_logicELNS_16sc_writer_policyE1EE12get_data_refEv
         U __ZThn80_NK7sc_core9sc_signalIN5sc_dt8sc_logicELNS_16sc_writer_policyE1EE12get_data_refEv
         U __ZThn80_NK7sc_core9sc_signalIN5sc_dt8sc_logicELNS_16sc_writer_policyE1EE4readEv
         U __ZThn80_NK7sc_core9sc_signalIN5sc_dt8sc_logicELNS_16sc_writer_policyE1EE4readEv
         U __ZThn80_NK7sc_core9sc_signalIN5sc_dt8sc_logicELNS_16sc_writer_policyE1EE5eventEv
         U __ZThn80_NK7sc_core9sc_signalIN5sc_dt8sc_logicELNS_16sc_writer_policyE1EE5eventEv
         U __ZThn80_NK7sc_core9sc_signalIN5sc_dt8sc_logicELNS_16sc_writer_policyE1EE7negedgeEv
         U __ZThn80_NK7sc_core9sc_signalIN5sc_dt8sc_logicELNS_16sc_writer_policyE1EE7negedgeEv
         U __ZThn80_NK7sc_core9sc_signalIN5sc_dt8sc_logicELNS_16sc_writer_policyE1EE7posedgeEv
         U __ZThn80_NK7sc_core9sc_signalIN5sc_dt8sc_logicELNS_16sc_writer_policyE1EE7posedgeEv
         U __ZThn84_N7sc_core9sc_signalIN5sc_dt8sc_logicELNS_16sc_writer_policyE0EED0Ev
         U __ZThn84_N7sc_core9sc_signalIN5sc_dt8sc_logicELNS_16sc_writer_policyE0EED1Ev
         U __ZThn84_N7sc_core9sc_signalIN5sc_dt8sc_logicELNS_16sc_writer_policyE1EED0Ev
         U __ZThn84_N7sc_core9sc_signalIN5sc_dt8sc_logicELNS_16sc_writer_policyE1EED0Ev
         U __ZThn84_N7sc_core9sc_signalIN5sc_dt8sc_logicELNS_16sc_writer_policyE1EED1Ev
         U __ZThn84_N7sc_core9sc_signalIN5sc_dt8sc_logicELNS_16sc_writer_policyE1EED1Ev
         U __ZThn84_NK7sc_core9sc_signalIbLNS_16sc_writer_policyE0EE17get_writer_policyEv
         U __ZThn84_NK7sc_core9sc_signalIbLNS_16sc_writer_policyE0EE17get_writer_policyEv
         U __ZThn84_NK7sc_core9sc_signalIN5sc_dt8sc_logicELNS_16sc_writer_policyE0EE17get_writer_policyEv
         U __ZThn84_NK7sc_core9sc_signalIN5sc_dt8sc_logicELNS_16sc_writer_policyE1EE17get_writer_policyEv
         U __ZThn84_NK7sc_core9sc_signalIN5sc_dt8sc_logicELNS_16sc_writer_policyE1EE17get_writer_policyEv
         U __ZTv0_n16_NK7sc_core9sc_signalIbLNS_16sc_writer_policyE0EE13default_eventEv
         U __ZTv0_n16_NK7sc_core9sc_signalIbLNS_16sc_writer_policyE0EE13default_eventEv
         U __ZTv0_n16_NK7sc_core9sc_signalIN5sc_dt8sc_logicELNS_16sc_writer_policyE0EE13default_eventEv
         U __ZTv0_n16_NK7sc_core9sc_signalIN5sc_dt8sc_logicELNS_16sc_writer_policyE1EE13default_eventEv
         U __ZTv0_n16_NK7sc_core9sc_signalIN5sc_dt8sc_logicELNS_16sc_writer_policyE1EE13default_eventEv
         U __ZTv0_n20_N7sc_core15sc_signal_in_ifIbED0Ev
         U __ZTv0_n20_N7sc_core15sc_signal_in_ifIbED0Ev
         U __ZTv0_n20_N7sc_core15sc_signal_in_ifIbED1Ev
         U __ZTv0_n20_N7sc_core15sc_signal_in_ifIbED1Ev
         U __ZTv0_n20_N7sc_core15sc_signal_in_ifIN5sc_dt8sc_logicEED0Ev
         U __ZTv0_n20_N7sc_core15sc_signal_in_ifIN5sc_dt8sc_logicEED0Ev
         U __ZTv0_n20_N7sc_core15sc_signal_in_ifIN5sc_dt8sc_logicEED1Ev
         U __ZTv0_n20_N7sc_core15sc_signal_in_ifIN5sc_dt8sc_logicEED1Ev
         U __ZTv0_n20_N7sc_core18sc_signal_inout_ifIbED0Ev
         U __ZTv0_n20_N7sc_core18sc_signal_inout_ifIbED0Ev
         U __ZTv0_n20_N7sc_core18sc_signal_inout_ifIbED1Ev
         U __ZTv0_n20_N7sc_core18sc_signal_inout_ifIbED1Ev
         U __ZTv0_n20_N7sc_core18sc_signal_inout_ifIN5sc_dt8sc_logicEED0Ev
         U __ZTv0_n20_N7sc_core18sc_signal_inout_ifIN5sc_dt8sc_logicEED0Ev
         U __ZTv0_n20_N7sc_core18sc_signal_inout_ifIN5sc_dt8sc_logicEED1Ev
         U __ZTv0_n20_N7sc_core18sc_signal_inout_ifIN5sc_dt8sc_logicEED1Ev
         U __ZTv0_n20_N7sc_core18sc_signal_write_ifIbED0Ev
         U __ZTv0_n20_N7sc_core18sc_signal_write_ifIbED0Ev
         U __ZTv0_n20_N7sc_core18sc_signal_write_ifIbED1Ev
         U __ZTv0_n20_N7sc_core18sc_signal_write_ifIbED1Ev
         U __ZTv0_n20_N7sc_core18sc_signal_write_ifIN5sc_dt8sc_logicEED0Ev
         U __ZTv0_n20_N7sc_core18sc_signal_write_ifIN5sc_dt8sc_logicEED0Ev
         U __ZTv0_n20_N7sc_core18sc_signal_write_ifIN5sc_dt8sc_logicEED1Ev
         U __ZTv0_n20_N7sc_core18sc_signal_write_ifIN5sc_dt8sc_logicEED1Ev
         U __ZTv0_n20_N7sc_core9sc_signalIN5sc_dt8sc_logicELNS_16sc_writer_policyE0EED0Ev
         U __ZTv0_n20_N7sc_core9sc_signalIN5sc_dt8sc_logicELNS_16sc_writer_policyE0EED1Ev
         U __ZTv0_n20_N7sc_core9sc_signalIN5sc_dt8sc_logicELNS_16sc_writer_policyE1EED0Ev
         U __ZTv0_n20_N7sc_core9sc_signalIN5sc_dt8sc_logicELNS_16sc_writer_policyE1EED0Ev
         U __ZTv0_n20_N7sc_core9sc_signalIN5sc_dt8sc_logicELNS_16sc_writer_policyE1EED1Ev
         U __ZTv0_n20_N7sc_core9sc_signalIN5sc_dt8sc_logicELNS_16sc_writer_policyE1EED1Ev
         U __ZTv0_n24_N7sc_core9sc_signalIbLNS_16sc_writer_policyE0EE18mti_get_channel_idEPNS_9sc_objectE
         U __ZTv0_n24_N7sc_core9sc_signalIbLNS_16sc_writer_policyE0EE18mti_get_channel_idEPNS_9sc_objectE
         U __ZTv0_n24_N7sc_core9sc_signalIN5sc_dt8sc_logicELNS_16sc_writer_policyE0EE18mti_get_channel_idEPNS_9sc_objectE
         U __ZTv0_n24_N7sc_core9sc_signalIN5sc_dt8sc_logicELNS_16sc_writer_policyE1EE18mti_get_channel_idEPNS_9sc_objectE
         U __ZTv0_n24_N7sc_core9sc_signalIN5sc_dt8sc_logicELNS_16sc_writer_policyE1EE18mti_get_channel_idEPNS_9sc_objectE
00000000 A .weak.___deregister_frame_info.___gcc_register_frame
00000000 A .weak.___register_frame_info.___gcc_register_frame
00000000 A .weak.__Jv_RegisterClasses.___gcc_register_frame
00000000 A __dll__
00000000 A __loader_flags__
00000000 A __minor_image_version__
00000000 A __minor_os_version__
00000000 A __minor_subsystem_version__
00000001 A __major_image_version__
00000003 A __subsystem__
00000004 A __major_os_version__
00000004 A __major_subsystem_version__
00000200 A __file_alignment__
00001000 A __section_alignment__
00001000 A __size_of_heap_commit__
00001000 A __size_of_stack_commit__
00100000 A __size_of_heap_reserve__
00200000 A __size_of_stack_reserve__
60580000 A __image_base__
60581000 t .text
60581000 t ___dll_exit
60581000 T __end__
60581058 T _DllMainCRTStartup@12
60581138 T _atexit
60581160 T __onexit
60581190 t .text
60581190 T ___gcc_register_frame
605811fc T ___gcc_deregister_frame
60581220 t ___do_global_dtors
6058124c T ___main
605812c0 t .text
605812c0 t __ZSt17__verify_groupingPKcjRKSs
605813b8 t __Z41__static_initialization_and_destruction_0ii
60581400 t __GLOBAL__I_lk_controller.cpp_DC60C65B_F9EC496A
6058141a t ___tcf_0
60581440 t .text
60581440 t __ZSt17__verify_groupingPKcjRKSs
60581538 t __Z41__static_initialization_and_destruction_0ii
60581580 t __GLOBAL__I_lk_counter.cpp_DC60C65B_D0449A41
6058159a t ___tcf_0
605815c0 t .text
605815c0 t __ZSt17__verify_groupingPKcjRKSs
605816b8 t __Z41__static_initialization_and_destruction_0ii
60581700 t __GLOBAL__I_lk_programmemory.cpp_DC60C65B_9984CE8C
6058171a t ___tcf_0
60581740 t .text
60581740 t __ZSt17__verify_groupingPKcjRKSs
60581838 t __Z41__static_initialization_and_destruction_0ii
60581880 t __GLOBAL__I_lk_registers.cpp_DC60C65B_D97792A5
6058189a t ___tcf_0
605818c0 t .text
605818c0 t __ZSt17__verify_groupingPKcjRKSs
605819b8 t __Z41__static_initialization_and_destruction_0ii
60581a00 t __GLOBAL__I_sc_main
60581a1a t ___tcf_0
60581a32 T _sc_main
60582250 t .text
60582250 T __ZN7sc_core16sc_process_tableC2Ev
60582274 T __ZN7sc_core16sc_process_tableC1Ev
60582298 T __ZN7sc_core13sc_simcontext8simulateERKNS_7sc_timeE
605822a0 T __ZN7sc_core16sc_get_stop_modeEv
605822ac T __ZNK7sc_core13sc_simcontext28mti_is_creating_dynamic_procEv
605822bc T __ZN7sc_core13sc_simcontext24mti_set_exception_statusEb
605822d0 T __ZN7sc_core13sc_simcontext23mti_is_exception_activeEv
605822e0 T __ZN7sc_core13sc_simcontext11trace_cycleEb
6058231c T __ZN7sc_core13sc_simcontext17remove_trace_fileEPNS_13sc_trace_fileE
60582330 t ___tcf_0
60582348 T __ZN7sc_core13sc_simcontext25mti_create_thread_packageEv
60582398 T __ZN7sc_core13sc_simcontext23mark_to_collect_processEPNS_12sc_process_bE
605823ac T __ZN7sc_core13sc_simcontext16mti_get_oomr_objEPNS_15sc_prim_channelE
6058244c T __ZNK7sc_core13sc_simcontext19mti_is_valid_exportEPNS_14sc_export_baseE
60582468 T __ZNK7sc_core13sc_simcontext17mti_is_valid_portEPNS_12sc_port_baseE
60582484 T __ZNK7sc_core13sc_simcontext25mti_is_valid_prim_channelEPNS_15sc_prim_channelE
605824a0 T __ZNK7sc_core13sc_simcontext19mti_is_valid_moduleEPNS_9sc_moduleE
605824bc T __ZN7sc_core18sc_set_random_seedEj
605824e4 T __ZNK7sc_core13sc_simcontext10is_runningEv
60582528 T __ZNK7sc_core13sc_simcontext17get_child_objectsEv
60582568 T __ZN7sc_core27sc_defunct_process_functionEPNS_9sc_moduleE
60582584 T __ZN7sc_core13sc_simcontext8next_corEv
605825fc T __ZN7sc_core13sc_simcontext11find_objectEPKc
6058264c T __ZNK7sc_core13sc_simcontext35mti_pending_activity_at_future_timeEv
60582690 T __ZNK7sc_core13sc_simcontext32pending_activity_at_current_timeEv
605826cc T __ZNK7sc_core13sc_simcontext11delta_countEv
6058270c T __ZNK7sc_core13sc_simcontext18mti_event_occurredEyy
60582778 T __ZN7sc_core13sc_simcontext14add_trace_fileEPNS_13sc_trace_fileE
6058279c T __ZN7sc_core13sc_simcontext15gen_unique_nameEPKcb
605827b8 T __ZN7sc_core13sc_simcontext11next_objectEv
605827cc T __ZN7sc_core13sc_simcontext12first_objectEv
605827e0 T __ZNK7sc_core13sc_simcontext14hierarchy_currEv
605827f4 T __ZN7sc_core13sc_simcontext13active_objectEv
6058281c T __ZN7sc_core13sc_simcontext13hierarchy_popEv
60582830 T __ZN7sc_core13sc_simcontext14hierarchy_pushEPNS_9sc_moduleE
60582844 T __ZN7sc_core13sc_simcontext3endEv
605828a4 T __ZN7sc_core13sc_simcontext17do_sc_stop_actionEv
605828dc T __ZN7sc_core13sc_simcontext4stopEv
605829ac T __ZN7sc_core13sc_simcontext4initEv
60582db8 T __ZN7sc_core13sc_simcontext12mti_sc_pauseEv
60582dfc T __ZN7sc_core22sc_notify_time_compareEPKvS1_
60582e44 T __ZNK7sc_core13sc_simcontext9next_timeERNS_7sc_timeE
60582eb8 T __ZN7sc_core16sc_process_table6removeEPNS_17sc_method_processE
60582f14 T __ZN7sc_core16sc_process_table6removeEPNS_17sc_thread_processE
60582f70 T __ZN7sc_core13sc_simcontext18remove_delta_eventEPNS_8sc_eventE
60582fd4 T __ZN7sc_core13sc_simcontext42mti_process_signal_hierarchical_referencesEv
60583138 T __ZN7sc_core13sc_simcontext9elaborateEv
60583354 T __ZN7sc_core13sc_simcontext10initializeEb
60583398 T __ZN7sc_core13sc_simcontext27create_method_debug_processEPKcbMNS_15sc_process_hostEFvvEPS3_PKNS_16sc_spawn_optionsE
60583484 T __ZN7sc_core13sc_simcontext22create_cthread_processEPKcbMNS_15sc_process_hostEFvvEPS3_PKNS_16sc_spawn_optionsE
6058355c T __ZN7sc_core13sc_simcontext15add_child_eventEPNS_8sc_eventE
60583590 T __ZN7sc_core13sc_simcontext18remove_child_eventEPNS_8sc_eventE
60583624 T __ZN7sc_core13sc_simcontext16add_child_objectEPNS_9sc_objectE
60583658 T __ZN7sc_core13sc_simcontext19remove_child_objectEPNS_9sc_objectE
605836fc T __ZN7sc_core23mti_return_child_eventsEPKNS_13sc_simcontextE
60583818 T __ZN7sc_core13sc_simcontext19prepare_to_simulateEv
60583b98 T __ZN7sc_core13sc_simcontext28mti_call_prepare_to_simulateEv
60583ba4 t ___tcf_1
60583bc4 T __ZN7sc_core13sc_simcontextC1Ev
60583dc0 T __ZN7sc_core13sc_simcontextC2Ev
60583fbc T __ZN7sc_core28mti_return_top_level_objectsEPKNS_13sc_simcontextE
605843bc T __ZN7sc_core13sc_simcontext23suspend_current_processEv
6058455c T __ZN7sc_core16sc_process_tableD2Ev
605845f0 T __ZN7sc_core16sc_process_tableD1Ev
60584684 T __ZN7sc_core13sc_simcontext5cleanEv
605849e8 T __ZN7sc_core13sc_simcontext5resetEv
60584a08 T __ZN7sc_core13sc_simcontextD1Ev
60584ad4 T __ZN7sc_core13sc_simcontextD2Ev
60584ba0 T __ZN7sc_corelsERSoNS_9sc_statusE
60584f14 T __ZN7sc_core13sc_simcontext21create_method_processEPKcbMNS_15sc_process_hostEFvvEPS3_PKNS_16sc_spawn_optionsE
6058546c T __ZN7sc_core13sc_simcontext21create_thread_processEPKcbMNS_15sc_process_hostEFvvEPS3_PKNS_16sc_spawn_optionsE
605859dc T __ZN7sc_core21questa_init_simcontxtC1Ev
60585a38 t __Z41__static_initialization_and_destruction_0ii
60585aa0 t __GLOBAL__I__ZN7sc_core9stop_modeE
60585ab0 T __ZN7sc_core21questa_init_simcontxtC2Ev
60585b0c T __ZNK7sc_core13sc_simcontext19curr_module_contextEi
60585bd8 T __ZN7sc_core26sc_get_curr_process_handleEv
60585c80 T __ZN7sc_core29sc_get_current_process_handleEv
60585d54 T __ZN7sc_core15sc_is_unwindingEv
60585dcc T __ZN7sc_core18sc_gen_unique_nameEPKcb
60585ee0 T __ZN7sc_core13sc_simcontext26mti_observe_foreign_signalEPNS_15sc_prim_channelEPKci
6058620c T __ZN7sc_core13sc_simcontext26mti_control_foreign_signalEPNS_15sc_prim_channelEPKci
6058653c T __ZN7sc_core16sc_set_stop_modeENS_12sc_stop_modeE
605865dc T __ZN7sc_core18sc_simulation_timeEv
60586730 T __ZN7sc_core13sc_time_stampEv
60586800 T __ZN7sc_core27sc_time_to_pending_activityEPKNS_13sc_simcontextE
605868e4 T __ZN7sc_core11sc_max_timeEv
6058699c T __ZN7sc_core14sc_find_objectEPKc
60586a00 T __ZN7sc_core13sc_find_eventEPKc
60586a64 T __ZN7sc_core7sc_stopEv
60586ac8 T __ZN7sc_core19mti_handle_sc_startE19mtiScStartModeEnum_PKNS_7sc_timeE
60586dd4 T __ZN7sc_core8sc_startEv
60586de8 T __ZN7sc_core8sc_startERKNS_7sc_timeENS_20sc_starvation_policyE
60586e30 T __ZN7sc_core8sc_cycleERKNS_7sc_timeE
60586e94 T __ZN7sc_core13sc_initializeEv
60586f5c T __ZN7sc_core8sc_startEd
60586fec T __ZN7sc_core13sc_simcontext12preempt_withEPNS_17sc_method_processE
605874c0 t .text
605874c0 T __ZN5sc_dt8sc_logic18mti_get_value_sizeEPiS1_S1_
605874e0 T __ZN5sc_dt8sc_logic13mti_get_valueEv
6058751c T __ZNK5sc_dt8sc_logic17mti_get_dpi_valueEPv
60587550 T __ZN5sc_dt8sc_logic17mti_set_dpi_valueEPv
60587588 t ___tcf_0
605875a0 T __ZN5sc_dt8sc_logic18mti_get_value_typeEv
605875b0 T __ZN5sc_dt8sc_logic13mti_set_valueEPv
60587610 T __ZNK5sc_dt8sc_logic10invalid_01Ev
6058765c T __ZN5sc_dt8sc_logic13invalid_valueEi
6058769c T __ZN5sc_dt8sc_logic13invalid_valueEc
605876e0 T __ZN5sc_dt8sc_logic13invalid_valueENS_16sc_logic_value_tE
60587720 t __Z41__static_initialization_and_destruction_0ii
6058788c t __GLOBAL__I__ZN5sc_dt8sc_logic13invalid_valueENS_16sc_logic_value_tE
605878a0 T __ZN5sc_dt8sc_logic4scanERSi
60587910 t ___tcf_8
60587920 t ___tcf_7
60587930 t ___tcf_2
60587940 t ___tcf_1
60587950 t ___tcf_6
60587960 t ___tcf_5
60587970 t ___tcf_4
60587980 t ___tcf_3
60587990 t .text
60587990 t __Z41__static_initialization_and_destruction_0ii
605879c4 t __GLOBAL__I__ZN5sc_dt13sc_value_base17concat_clear_dataEb
605879d4 t ___tcf_0
605879ec T __ZN5sc_dt13sc_value_base10concat_setEyi
60587a30 T __ZN5sc_dt13sc_value_base10concat_setERKNS_11sc_unsignedEi
60587a70 T __ZN5sc_dt13sc_value_base10concat_setERKNS_9sc_signedEi
60587ab0 T __ZN5sc_dt13sc_value_base10concat_setExi
60587af0 T __ZNK5sc_dt13sc_value_base13concat_lengthEPb
60587b30 T __ZNK5sc_dt13sc_value_base17concat_get_uint64Ev
60587b70 T __ZNK5sc_dt13sc_value_base15concat_get_dataEPji
60587bb0 T __ZNK5sc_dt13sc_value_base15concat_get_ctrlEPji
60587bf0 T __ZN5sc_dt13sc_value_base17concat_clear_dataEb
60587c30 t .text
60587c30 T __ZN5sc_dt20assert_sc_digit_sizeEv
60587c38 t __Z41__static_initialization_and_destruction_0ii
60587c6c t __GLOBAL__I__ZN5sc_dt11UINT64_ZEROE
60587c7c t ___tcf_0
60587ca0 t .text
60587ca0 t __Z41__static_initialization_and_destruction_0ii
60587d2c t __GLOBAL__I__ZN7sc_core22SC_ID_STRING_TOO_LONG_E
60587d40 t .text
60587d40 T __ZNK5sc_dt16sc_uint_subref_r15concat_get_ctrlEPji
60587dcc T __ZNK5sc_dt16sc_uint_subref_r15concat_get_dataEPji
60587f94 T __ZN5sc_dt14sc_uint_subrefaSEy
60588054 T __ZN5sc_dt12sc_uint_baseaSERKNS_10sc_bv_baseE
60588174 T __ZNK5sc_dt12sc_uint_base10and_reduceEv
605881b4 T __ZNK5sc_dt12sc_uint_base9or_reduceEv
605881c8 T __ZNK5sc_dt12sc_uint_base10xor_reduceEv
605882e4 T __ZThn4_NK5sc_dt12sc_uint_base15concat_get_ctrlEPji
605882ec T __ZNK5sc_dt12sc_uint_base15concat_get_ctrlEPji
60588388 T __ZThn4_NK5sc_dt12sc_uint_base15concat_get_dataEPji
60588390 T __ZNK5sc_dt12sc_uint_base15concat_get_dataEPji
60588544 T __ZN5sc_dt12sc_uint_base18mti_get_value_sizeEPiS1_S1_
60588564 T __ZN5sc_dt12sc_uint_base13mti_set_valueEPv
605885d8 t ___tcf_2
60588640 t ___tcf_1
605886a8 t __Z41__static_initialization_and_destruction_0ii
60588808 t __GLOBAL__I__ZN5sc_dt30sc_uint_concref_invalid_lengthEi
6058881c t ___tcf_0
60588834 T __ZN5sc_dt12sc_uint_base18mti_get_value_typeEv
6058884c T __ZNK5sc_dt12sc_uint_base11check_valueEv
605888c8 T __ZNK5sc_dt12sc_uint_base13invalid_rangeEii
60588914 T __ZNK5sc_dt12sc_uint_base13invalid_indexEi
6058895c T __ZNK5sc_dt12sc_uint_base14invalid_lengthEv
605889a0 T __ZN5sc_dt30sc_uint_concref_invalid_lengthEi
605889e4 T __ZN5sc_dt12sc_uint_baseaSERKNS_11sc_unsignedE
60588ae0 T __ZN5sc_dt12sc_uint_baseaSERKNS_9sc_signedE
60588c18 T __ZThn4_N5sc_dt12sc_uint_base10concat_setEyi
60588c20 T __ZN5sc_dt12sc_uint_base10concat_setEyi
60588c90 T __ZThn4_N5sc_dt12sc_uint_base10concat_setExi
60588c98 T __ZN5sc_dt12sc_uint_base10concat_setExi
60588d10 T __ZN5sc_dt14sc_uint_bitref4scanERSi
60588d8c T __ZN5sc_dt12sc_uint_base13mti_get_valueEv
60588e2c T __ZN5sc_dt12sc_uint_base17mti_set_dpi_valueEPv
60588eb8 T __ZNK5sc_dt12sc_uint_base17mti_get_dpi_valueEPv
60588f54 T __ZN5sc_dt12sc_uint_baseC1ERKNS_20sc_unsigned_subref_rE
60589040 T __ZN5sc_dt12sc_uint_baseC2ERKNS_20sc_unsigned_subref_rE
6058912c T __ZN5sc_dt12sc_uint_baseC1ERKNS_18sc_signed_subref_rE
60589218 T __ZN5sc_dt12sc_uint_baseC2ERKNS_18sc_signed_subref_rE
60589304 T __ZN5sc_dt12sc_uint_baseC1ERKNS_15sc_int_subref_rE
6058940c T __ZN5sc_dt12sc_uint_baseC2ERKNS_15sc_int_subref_rE
60589514 T __ZN5sc_dt12sc_uint_baseC1ERKNS_10sc_bv_baseE
6058958c T __ZN5sc_dt12sc_uint_baseC2ERKNS_10sc_bv_baseE
60589604 T __ZN5sc_dt12sc_uint_baseaSERKNS_10sc_lv_baseE
605897b0 T __ZN5sc_dt12sc_uint_baseC1ERKNS_10sc_lv_baseE
6058982c T __ZN5sc_dt12sc_uint_baseC2ERKNS_10sc_lv_baseE
605898a8 T __ZN5sc_dt12sc_uint_baseC1ERKNS_11sc_unsignedE
6058997c T __ZN5sc_dt12sc_uint_baseC2ERKNS_11sc_unsignedE
60589a50 T __ZN5sc_dt12sc_uint_baseC1ERKNS_9sc_signedE
60589b20 T __ZN5sc_dt12sc_uint_baseC2ERKNS_9sc_signedE
60589bf0 T __ZNK5sc_dt12sc_uint_base9to_stringENS_9sc_numrepEb
60589df4 T __ZNK5sc_dt12sc_uint_base9to_stringENS_9sc_numrepE
60589fec T __ZN5sc_dt12sc_uint_baseaSEPKc
6058a42c T __ZN5sc_dt12sc_uint_base4scanERSi
6058a508 T __ZThn4_N5sc_dt12sc_uint_base10concat_setERKNS_11sc_unsignedEi
6058a510 T __ZN5sc_dt12sc_uint_base10concat_setERKNS_11sc_unsignedEi
6058a5e0 T __ZThn4_N5sc_dt12sc_uint_base10concat_setERKNS_9sc_signedEi
6058a5e8 T __ZN5sc_dt12sc_uint_base10concat_setERKNS_9sc_signedEi
6058a6f8 T __ZN5sc_dt14sc_uint_subrefaSERKNS_9sc_signedE
6058a7d8 T __ZN5sc_dt14sc_uint_bitref10concat_setEyi
6058a894 T __ZN5sc_dt14sc_uint_bitref10concat_setERKNS_11sc_unsignedEi
6058ab24 T __ZN5sc_dt14sc_uint_bitref10concat_setERKNS_9sc_signedEi
6058ae14 T __ZN5sc_dt14sc_uint_bitref10concat_setExi
6058aee8 T __ZN5sc_dt14sc_uint_subref10concat_setEyi
6058affc T __ZN5sc_dt14sc_uint_subref4scanERSi
6058b1b8 T __ZN5sc_dt14sc_uint_subref10concat_setERKNS_11sc_unsignedEi
6058b36c T __ZN5sc_dt14sc_uint_subref10concat_setERKNS_9sc_signedEi
6058b568 T __ZN5sc_dt14sc_uint_subref10concat_setExi
6058b680 T __ZN5sc_dt14sc_uint_subrefaSERKNS_10sc_lv_baseE
6058b760 T __ZN5sc_dt14sc_uint_subrefaSERKNS_10sc_bv_baseE
6058b80c T __ZN5sc_dt14sc_uint_subrefaSERKNS_11sc_unsignedE
6058b8f0 t .text
6058b8f0 t __Z41__static_initialization_and_destruction_0ii
6058b930 t __GLOBAL__I__ZN7sc_core23sc_logic_resolution_tblE
6058b940 t ___tcf_0
6058b958 t __ZN7sc_core16sc_logic_resolveERN5sc_dt8sc_logicERKSt6vectorIS1_SaIS1_EE
6058b9fc T __ZN7sc_core18sc_signal_resolved6updateEv
6058ba28 T __ZN7sc_core18sc_signal_resolved21mti_get_channel_valueEi
6058ba7c T __ZThn84_N7sc_core18sc_signal_resolved5writeERKN5sc_dt8sc_logicE
6058ba84 T __ZN7sc_core18sc_signal_resolved5writeERKN5sc_dt8sc_logicE
6058bc00 T __ZN7sc_core18sc_signal_resolved21mti_set_channel_valueEPvi
6058bda0 t .text
6058bda0 T __ZN7sc_core15sc_prim_channel6updateEv
6058bda8 T __ZN7sc_core15sc_prim_channel25before_end_of_elaborationEv
6058bdb0 T __ZN7sc_core15sc_prim_channel18end_of_elaborationEv
6058bdb8 T __ZN7sc_core15sc_prim_channel19start_of_simulationEv
6058bdc0 T __ZN7sc_core15sc_prim_channel17end_of_simulationEv
6058bdc8 T __ZNK7sc_core24sc_prim_channel_registry21pending_async_updatesEv
6058bde4 T __ZN7sc_core15sc_prim_channel21mti_get_channel_valueEi
6058bdec T __ZN7sc_core15sc_prim_channel21mti_set_channel_valueEPvi
6058bdf4 t __Z41__static_initialization_and_destruction_0ii
6058be34 t __GLOBAL__I__ZN7sc_core28mti_is_creating_dummy_signalE
6058be44 t ___tcf_0
6058be5c T __ZN7sc_core15sc_prim_channel21mti_prim_channel_initEv
6058bfa0 T __ZN7sc_core15sc_prim_channel27mti_record_parent_region_idEv
6058bfc0 T __ZN7sc_core24sc_prim_channel_registry6removeERNS_15sc_prim_channelE
6058c000 T __ZNK7sc_core24sc_prim_channel_registry25mti_is_valid_prim_channelEPNS_15sc_prim_channelE
6058c04c T __ZN7sc_core24sc_prim_channel_registry18mti_create_signalsEv
6058c0c0 T __ZN7sc_core24sc_prim_channel_registry14perform_updateEv
6058c1d8 T __ZN7sc_core24sc_prim_channel_registry20async_request_updateERNS_15sc_prim_channelE
6058c244 T __ZN7sc_core15sc_prim_channel17construction_doneEv
6058c2f8 T __ZN7sc_core24sc_prim_channel_registry17construction_doneEv
6058c348 T __ZN7sc_core24sc_prim_channel_registry6insertERNS_15sc_prim_channelE
6058c49c T __ZN7sc_core15sc_prim_channelC1EPKc
6058c50c T __ZN7sc_core15sc_prim_channelC2EPKc
6058c57c T __ZN7sc_core15sc_prim_channelC1Ev
6058c5ec T __ZN7sc_core15sc_prim_channelC2Ev
6058c65c T __ZN7sc_core24sc_prim_channel_registryC1ERNS_13sc_simcontextE
6058c734 T __ZN7sc_core24sc_prim_channel_registryC2ERNS_13sc_simcontextE
6058c80c T __ZN7sc_core15sc_prim_channel15simulation_doneEv
6058c8c0 T __ZN7sc_core24sc_prim_channel_registry15simulation_doneEv
6058c8fc T __ZN7sc_core15sc_prim_channel16start_simulationEv
6058c9a8 T __ZN7sc_core24sc_prim_channel_registry16start_simulationEv
6058c9e4 T __ZN7sc_core15sc_prim_channel16elaboration_doneEv
6058ca98 T __ZN7sc_core24sc_prim_channel_registry16elaboration_doneEv
6058cad4 T __ZN7sc_core15sc_prim_channelD0Ev
6058cec0 T __ZN7sc_core15sc_prim_channelD1Ev
6058d2a4 T __ZN7sc_core15sc_prim_channelD2Ev
6058d688 T __ZN7sc_core24sc_prim_channel_registryD2Ev
6058d740 T __ZN7sc_core24sc_prim_channel_registryD1Ev
6058d800 t .text
6058d800 T __ZN7sc_core5sc_inIN5sc_dt8sc_logicEE5vbindERNS_12sc_port_baseE
6058d868 T __ZN7sc_core5sc_inIbE5vbindERNS_12sc_port_baseE
6058d8d0 T __ZN7sc_core23sc_deprecated_add_traceEv
6058d910 t __Z41__static_initialization_and_destruction_0ii
6058d950 t __GLOBAL__I__ZN7sc_core5sc_inIbE18end_of_elaborationEv
6058d960 t ___tcf_0
6058d978 T __ZN7sc_core8sc_inoutIbE10initializeERKb
6058d9f0 T __ZNK7sc_core8sc_inoutIN5sc_dt8sc_logicEE18add_trace_internalEPNS_13sc_trace_fileERKSs
6058da7c T __ZNK7sc_core8sc_inoutIN5sc_dt8sc_logicEE9add_traceEPNS_13sc_trace_fileERKSs
6058daa8 T __ZNK7sc_core8sc_inoutIbE18add_trace_internalEPNS_13sc_trace_fileERKSs
6058db34 T __ZNK7sc_core8sc_inoutIbE9add_traceEPNS_13sc_trace_fileERKSs
6058db60 T __ZNK7sc_core5sc_inIN5sc_dt8sc_logicEE18add_trace_internalEPNS_13sc_trace_fileERKSs
6058dbec T __ZNK7sc_core5sc_inIN5sc_dt8sc_logicEE9add_traceEPNS_13sc_trace_fileERKSs
6058dc18 T __ZNK7sc_core5sc_inIbE18add_trace_internalEPNS_13sc_trace_fileERKSs
6058dca4 T __ZNK7sc_core5sc_inIbE9add_traceEPNS_13sc_trace_fileERKSs
6058dcd0 T __ZN7sc_core8sc_inoutIN5sc_dt8sc_logicEE10initializeERKS2_
6058dd5c T __ZN7sc_core5sc_inIbE5vbindERNS_12sc_interfaceE
6058dda4 T __ZN7sc_core5sc_inIN5sc_dt8sc_logicEE5vbindERNS_12sc_interfaceE
6058ddec T __ZNK7sc_core5sc_inIN5sc_dt8sc_logicEE13remove_tracesEv
6058deb0 T __ZN7sc_core5sc_inIN5sc_dt8sc_logicEE18end_of_elaborationEv
6058df3c T __ZNK7sc_core5sc_inIbE13remove_tracesEv
6058e000 T __ZN7sc_core5sc_inIbE18end_of_elaborationEv
6058e094 T __ZNK7sc_core8sc_inoutIN5sc_dt8sc_logicEE13remove_tracesEv
6058e158 T __ZN7sc_core8sc_inoutIN5sc_dt8sc_logicEE18end_of_elaborationEv
6058e23c T __ZNK7sc_core8sc_inoutIbE13remove_tracesEv
6058e300 T __ZN7sc_core8sc_inoutIbE18end_of_elaborationEv
6058e3f0 t .text
6058e3f0 t __Z41__static_initialization_and_destruction_0ii
6058e430 t __GLOBAL__I__ZN7sc_core20mti_is_resolved_portE
6058e440 t ___tcf_0
6058e458 T __ZN7sc_core17sc_inout_resolved18end_of_elaborationEv
6058e4e4 T __ZN7sc_core14sc_in_resolved18end_of_elaborationEv
6058e570 t .text
6058e570 T __ZN7sc_core12sc_process_b15dont_initializeEb
6058e580 t ___tcf_1
6058e5a0 t ___tcf_3
6058e5b8 t ___tcf_0
6058e5d0 T __ZN7sc_core17sc_process_handlecvPNS_17sc_thread_processEEv
6058e5f8 T __ZN7sc_core17sc_process_handlecvPNS_17sc_method_processEEv
6058e620 T __ZN7sc_core17sc_process_handlecvPNS_18sc_cthread_processEEv
6058e648 T __ZN7sc_core12sc_process_b19trigger_reset_eventEv
6058e668 T __ZNK7sc_core12sc_process_b34report_immediate_self_notificationEv
6058e6ac T __ZN7sc_core12sc_process_b20remove_static_eventsEv
6058e77c T __ZN7sc_core12sc_process_b15gen_unique_nameEPKcb
6058e7f0 T __ZN7sc_core12sc_process_b16add_static_eventERKNS_8sc_eventE
6058e8a0 T __ZN7sc_core12sc_process_bC2EPKcbbMNS_15sc_process_hostEFvvEPS3_PKNS_16sc_spawn_optionsE
6058ea60 t __Z41__static_initialization_and_destruction_0ii
6058eb10 t __GLOBAL__I__ZN7sc_core17sc_process_handle18empty_event_vectorE
6058eb24 T __ZN7sc_core12sc_process_b21remove_dynamic_eventsEb
6058ec48 t ___tcf_2
6058ec68 T __ZN7sc_core12sc_process_b14delete_processEv
6058edd4 T __ZN7sc_core12sc_process_b18disconnect_processEv
6058ef04 T __ZNK7sc_core12sc_process_b10dump_stateEv
6058f04c T __ZN7sc_core12sc_process_b21mti_create_process_idEPNS_15sc_process_hostE
6058f4fc T __ZN7sc_core12sc_process_b16terminated_eventEv
6058f744 T __ZN7sc_core12sc_process_b11reset_eventEv
6058f98c T __ZN7sc_core12sc_process_bD0Ev
6058faf8 T __ZN7sc_core12sc_process_bD1Ev
6058fc58 T __ZN7sc_core12sc_process_bD2Ev
6058fdb8 T __ZN7sc_core12sc_process_bC1EPKcbbMNS_15sc_process_hostEFvvEPS3_PKNS_16sc_spawn_optionsE
6058ff78 T __ZNK7sc_core12sc_process_b12report_errorEPKcS2_
60590840 T __ZN7sc_core12sc_process_b13reset_changedEbb
605909cc T __ZN7sc_core12sc_process_b13reset_processENS0_10reset_typeENS_28sc_descendant_inclusion_infoE
60590bf0 t .text
60590bf0 T __ZN7sc_core12sc_allocatorC2Eii
60590c40 T __ZN7sc_core12sc_allocatorC1Eii
60590c90 T __ZN7sc_core12sc_allocatorD2Ev
60590c98 T __ZN7sc_core12sc_allocatorD1Ev
60590ca0 T __ZN7sc_core12sc_allocator7releaseEPv
60590cb8 T __ZN7sc_core14sc_mempool_int10do_releaseEPvj
60590ce0 t __Z41__static_initialization_and_destruction_0ii
60590d14 t __GLOBAL__I__ZN7sc_core12sc_allocatorC2Eii
60590d24 t ___tcf_0
60590d3c T __ZN7sc_core10sc_mempool7releaseEPvj
60590d7c t __ZN7sc_core23compute_use_default_newEv
60590dac T __ZN7sc_core14sc_mempool_intD1Ev
60590dfc T __ZN7sc_core14sc_mempool_intD2Ev
60590e4c T __ZN7sc_core14sc_mempool_intC1Eiii
60590f10 T __ZN7sc_core14sc_mempool_intC2Eiii
60590fd4 T __ZN7sc_core12sc_allocator18display_statisticsEv
60591014 T __ZN7sc_core14sc_mempool_int18display_statisticsEv
60591058 T __ZN7sc_core10sc_mempool18display_statisticsEv
60591094 T __ZN7sc_core12sc_allocator8allocateEv
60591108 T __ZN7sc_core14sc_mempool_int11do_allocateEj
60591134 T __ZN7sc_core10sc_mempool8allocateEj
605911d0 t .text
605911d0 T __ZN7sc_core8sc_event22mti_set_is_clock_eventEPNS_8sc_clockENS0_17mtiClockEdgeTypeTE
605911e4 T __ZN7sc_core14sc_event_timed10deallocateEPv
60591200 T __ZN7sc_core8sc_event5resetEv
6059122c T __ZNK7sc_core8sc_event14remove_dynamicEPNS_17sc_method_processE
6059124c T __ZNK7sc_core8sc_event13remove_staticEPNS_17sc_method_processE
6059126c T __ZNK7sc_core8sc_event14remove_dynamicEPNS_17sc_thread_processE
6059128c T __ZNK7sc_core8sc_event13remove_staticEPNS_17sc_thread_processE
605912ac t __Z41__static_initialization_and_destruction_0ii
605912ec t __GLOBAL__I__ZNK7sc_core8sc_event8basenameEv
605912fc t ___tcf_0
60591314 T __ZN7sc_core8sc_event29mti_set_is_prim_channel_eventEb
60591334 t __ZN7sc_core14sc_warn_notifyEv
60591374 T __ZNK7sc_core13sc_event_list27report_invalid_modificationEv
6059139c t __ZN7sc_core22sc_warn_notify_delayedEv
605913dc T __ZNK7sc_core13sc_event_list28report_premature_destructionEv
60591438 T __ZN7sc_core14sc_event_timed8allocateEv
60591498 T __ZN7sc_core13sc_event_list9push_backERKNS_8sc_eventE
605914e8 T __ZNK7sc_core8sc_event26mti_resume_clock_edge_evalEv
60591504 T __ZN7sc_core8sc_event12triggerClockEv
6059153c T __ZN7sc_core8sc_event6cancelEv
60591590 T __ZNK7sc_core13sc_event_list14remove_dynamicEPNS_17sc_thread_processEPKNS_8sc_eventE
605915d0 T __ZNK7sc_core13sc_event_list14remove_dynamicEPNS_17sc_method_processEPKNS_8sc_eventE
60591610 T __ZNK7sc_core13sc_event_list11add_dynamicEPNS_17sc_thread_processE
60591668 T __ZNK7sc_core13sc_event_list11add_dynamicEPNS_17sc_method_processE
605916c0 T __ZN7sc_core13sc_event_list9push_backERKS0_
6059173c T __ZNK7sc_core8sc_event8basenameEv
6059176c T __ZN7sc_core8sc_eventD1Ev
605918c8 T __ZN7sc_core8sc_eventD2Ev
60591a24 T __ZN7sc_core8sc_event14register_eventEPKc
60591bb8 T __ZN7sc_core8sc_event37mti_print_object_non_creation_warningEv
60591d00 T __ZN7sc_core8sc_eventC2EPKc
60591ebc T __ZN7sc_core8sc_event7triggerEi
60592190 T __ZN7sc_core8sc_event14notify_delayedERKNS_7sc_timeE
60592260 T __ZN7sc_core8sc_event14notify_delayedEdNS_12sc_time_unitE
60592380 T __ZN7sc_core8sc_event14notify_delayedEv
605923fc T __ZN7sc_core8sc_event6notifyERKNS_7sc_timeE
605924b4 T __ZN7sc_core6notifyERKNS_7sc_timeERNS_8sc_eventE
605924d4 T __ZN7sc_core8sc_event6notifyEv
60592520 T __ZN7sc_core6notifyERNS_8sc_eventE
60592538 T __ZN7sc_core6notifyEdNS_12sc_time_unitERNS_8sc_eventE
60592644 T __ZN7sc_core8sc_eventC1Ev
60592800 T __ZN7sc_core8sc_eventC2Ev
605929bc T __ZN7sc_core8sc_eventC1EPKc
60592b80 t .text
60592b80 t __Z41__static_initialization_and_destruction_0ii
60592bc0 t __GLOBAL__I__ZN7sc_core24sc_signal_invalid_writerEPNS_9sc_objectES1_S1_b
60592bd0 t ___tcf_0
60592be8 T __ZN7sc_core19sc_deprecated_traceEv
60592c24 T __ZN7sc_core27sc_deprecated_get_new_valueEv
60592c60 T __ZN7sc_core26sc_deprecated_get_data_refEv
60592c9c T __ZN7sc_core20sc_lazy_kernel_eventEPPNS_8sc_eventEPKc
60592dd8 T __ZN7sc_core24sc_signal_invalid_writerEPNS_9sc_objectES1_S1_b
6059379c T __ZN7sc_core27sc_writer_policy_check_port10check_portEPNS_9sc_objectEPNS_12sc_port_baseEb
60593840 t .text
60593840 T __ZN7sc_core7sc_timeC2EdNS_12sc_time_unitEPNS_13sc_simcontextE
605938b4 T __ZN7sc_core7sc_timeC1EdNS_12sc_time_unitEPNS_13sc_simcontextE
60593928 T __ZN7sc_core14sc_time_paramsC2Ev
6059395c T __ZN7sc_core14sc_time_paramsC1Ev
60593990 T __ZN7sc_core14sc_time_paramsD2Ev
60593998 T __ZN7sc_core14sc_time_paramsD1Ev
605939a0 t __Z41__static_initialization_and_destruction_0ii
605939f4 t __GLOBAL__I__ZN7sc_core11time_valuesE
60593a04 t ___tcf_0
60593a1c t __ZN7sc_core28report_time_res_and_unit_msgEiiPKcS1_
60593a94 T __ZN7sc_core7sc_timeC2Eyb
60593be0 T __ZN7sc_core7sc_timeC1Edb
60593cf4 T __ZN7sc_core7sc_timeC2Edb
60593e08 T __ZN7sc_core7sc_timeC1EdNS_12sc_time_unitE
60593ec8 T __ZN7sc_core7sc_timeC2EdNS_12sc_time_unitE
60593f88 T __ZNK7sc_core7sc_time9to_stringEv
605942bc T __ZNK7sc_core7sc_time5printERSo
6059438c T __ZNK7sc_core7sc_time10to_secondsEv
60594410 T __ZNK7sc_core7sc_time21to_default_time_unitsEv
605944a4 T __ZN7sc_core7sc_time10from_valueEy
60594534 T __ZN7sc_core24sc_get_default_time_unitEv
605945e0 T __ZN7sc_core22sc_get_time_resolutionEv
60594608 T __ZN7sc_core7sc_timeC1Eyb
60594754 T __ZN7sc_core40sc_get_requested_time_resolution_or_unitEdNS_12sc_time_unitE
60594f4c T __ZN7sc_core14sc_time_params19set_time_resolutionEdNS_12sc_time_unitEii
605954c8 T __ZN7sc_core22sc_set_time_resolutionEdNS_12sc_time_unitE
605955c4 t __ZN7sc_core40modified_msg_for_default_time_unit_errorEdNS_12sc_time_unitEPKc
60595894 T __ZN7sc_core14sc_time_params21set_default_time_unitEdNS_12sc_time_unitEi
6059603c T __ZN7sc_core24sc_set_default_time_unitEdNS_12sc_time_unitE
60596240 t .text
60596240 T __ZN7sc_core13sc_bind_proxyC2Ev
60596258 T __ZN7sc_core13sc_bind_proxyC1Ev
60596270 T __ZN7sc_core13sc_bind_proxyC2ERNS_12sc_interfaceE
60596284 T __ZN7sc_core13sc_bind_proxyC1ERNS_12sc_interfaceE
60596298 T __ZN7sc_core13sc_bind_proxyC2ERNS_12sc_port_baseE
605962ac T __ZN7sc_core13sc_bind_proxyC1ERNS_12sc_port_baseE
605962c0 T __ZNK7sc_core9sc_module17get_child_objectsEv
605962cc T __ZN7sc_core9sc_module25before_end_of_elaborationEv
605962d4 T __ZN7sc_core9sc_module18end_of_elaborationEv
605962dc T __ZN7sc_core9sc_module19start_of_simulationEv
605962e4 T __ZN7sc_core9sc_module17end_of_simulationEv
605962ec t __Z41__static_initialization_and_destruction_0ii
60596334 t __GLOBAL__I__ZN7sc_core26mti_is_elab_foreign_moduleE
60596344 t ___tcf_1
6059635c t __ZN7sc_core24sc_warn_arrow_arrow_bindEv
6059639c T __ZN7sc_core9sc_module15positional_bindERNS_12sc_port_baseE
605964d4 T __ZN7sc_core9sc_modulelsERNS_12sc_port_baseE
605964f8 T __ZN7sc_core9sc_module15positional_bindERNS_12sc_interfaceE
60596630 T __ZN7sc_core9sc_moduleclERKNS_13sc_bind_proxyES3_S3_S3_S3_S3_S3_S3_S3_S3_S3_S3_S3_S3_S3_S3_S3_S3_S3_S3_S3_S3_S3_S3_S3_S3_S3_S3_S3_S3_S3_S3_S3_S3_S3_S3_S3_S3_S3_S3_S3_S3_S3_S3_S3_S3_S3_S3_S3_S3_S3_S3_S3_S3_S3_S3_S3_S3_S3_S3_S3_S3_S3_S3_
60597864 T __ZN7sc_core9sc_modulelsERNS_12sc_interfaceE
60597888 T __ZN7sc_core9sc_module11append_portEPNS_12sc_port_baseE
605978cc T __ZN7sc_core9sc_module15gen_unique_nameEPKcb
605978e8 T __ZN7sc_core9sc_module15reset_signal_isERKNS_15sc_signal_in_ifIbEEb
60597900 T __ZN7sc_core9sc_module21async_reset_signal_isERKNS_15sc_signal_in_ifIbEEb
60597918 T __ZN7sc_core9sc_module15reset_signal_isERKNS_6sc_outIbEEb
60597930 T __ZN7sc_core9sc_module21async_reset_signal_isERKNS_6sc_outIbEEb
60597948 T __ZN7sc_core9sc_module15reset_signal_isERKNS_8sc_inoutIbEEb
60597960 T __ZN7sc_core9sc_module21async_reset_signal_isERKNS_8sc_inoutIbEEb
60597978 T __ZN7sc_core9sc_module15reset_signal_isERKNS_5sc_inIbEEb
60597990 T __ZN7sc_core9sc_module21async_reset_signal_isERKNS_5sc_inIbEEb
605979a8 T __ZN7sc_core9sc_module10end_moduleEv
60597a30 T __ZN7sc_core9sc_module14sc_module_initEv
60597b7c T __ZN7sc_core18sc_module_dynallocEPNS_9sc_moduleE
60597bdc T __ZN7sc_core9sc_module26mti_set_region_id_on_portsEv
60597c14 T __ZN7sc_core23sc_module_dynalloc_listD1Ev
60597cb4 T __ZN7sc_core30delete_sc_module_dynalloc_listEv
60597ce8 T __ZN7sc_core23sc_module_dynalloc_listD2Ev
60597d88 T __ZN7sc_core9sc_module15dont_initializeEv
60597e3c T __ZN7sc_core9sc_module15simulation_doneEv
60597e8c T __ZN7sc_core9sc_module17construction_doneEv
60597edc T __ZN7sc_core9sc_module16start_simulationEv
60597f2c T __ZN7sc_core9sc_module16elaboration_doneERb
60597fe8 T __ZN7sc_core9sc_moduleC2Ev
6059815c T __ZN7sc_core9sc_module14set_stack_sizeEj
605982d0 T __ZN7sc_core9sc_moduleC1ERKNS_14sc_module_nameE
60598444 T __ZN7sc_core9sc_moduleC2ERKNS_14sc_module_nameE
605985b8 T __ZN7sc_core9sc_moduleC1Ev
6059872c t ___tcf_0
60598790 T __ZN7sc_core9sc_module25mti_find_parameter_objectEPKcS2_
60598c10 T __ZN7sc_core9sc_module19sc_get_string_paramEPKccPi
60598e6c T __ZN7sc_core9sc_module12sc_get_paramEPKcRSsc
60598f58 T __ZN7sc_core9sc_module17sc_get_real_paramEPKcPi
6059910c T __ZN7sc_core9sc_module12sc_get_paramEPKcRd
60599134 T __ZN7sc_core9sc_module16sc_get_int_paramEPKcPi
605992e8 T __ZN7sc_core9sc_module12sc_get_paramEPKcRi
60599310 T __ZN7sc_core9sc_moduleC2EPKc
605994c0 T __ZN7sc_core9sc_moduleC1ERKSs
60599670 T __ZN7sc_core9sc_moduleC2ERKSs
60599820 T __ZN7sc_core9sc_moduleC1EPKc
605999d0 T __ZThn56_N7sc_core9sc_moduleD1Ev
605999d8 T __ZN7sc_core9sc_moduleD1Ev
60599f08 T __ZN7sc_core9sc_moduleD2Ev
6059a438 T __ZThn56_N7sc_core9sc_moduleD0Ev
6059a440 T __ZN7sc_core9sc_moduleD0Ev
6059a980 t .text
6059a980 T __ZN7sc_core12sc_sensitiveC2EPNS_9sc_moduleE
6059a99c T __ZN7sc_core12sc_sensitiveC1EPNS_9sc_moduleE
6059a9b8 T __ZN7sc_core12sc_sensitiveD2Ev
6059a9c0 T __ZN7sc_core12sc_sensitiveD1Ev
6059a9c8 T __ZN7sc_core12sc_sensitive5resetEv
6059a9d8 T __ZN7sc_core16sc_sensitive_posC2EPNS_9sc_moduleE
6059a9f4 T __ZN7sc_core16sc_sensitive_posC1EPNS_9sc_moduleE
6059aa10 T __ZN7sc_core16sc_sensitive_posD2Ev
6059aa18 T __ZN7sc_core16sc_sensitive_posD1Ev
6059aa20 T __ZN7sc_core16sc_sensitive_poslsEPNS_17sc_method_processE
6059aa38 T __ZN7sc_core16sc_sensitive_poslsEPNS_17sc_thread_processE
6059aa50 T __ZN7sc_core16sc_sensitive_pos5resetEv
6059aa60 T __ZN7sc_core16sc_sensitive_negC2EPNS_9sc_moduleE
6059aa7c T __ZN7sc_core16sc_sensitive_negC1EPNS_9sc_moduleE
6059aa98 T __ZN7sc_core16sc_sensitive_negD2Ev
6059aaa0 T __ZN7sc_core16sc_sensitive_negD1Ev
6059aaa8 T __ZN7sc_core16sc_sensitive_neglsEPNS_17sc_method_processE
6059aac0 T __ZN7sc_core16sc_sensitive_neglsEPNS_17sc_thread_processE
6059aad8 T __ZN7sc_core16sc_sensitive_neg5resetEv
6059aae8 t __Z41__static_initialization_and_destruction_0ii
6059ab28 t __GLOBAL__I__ZN7sc_core12sc_sensitiveC2EPNS_9sc_moduleE
6059ab38 t ___tcf_0
6059ab50 t __ZN7sc_core27sc_deprecated_sensitive_negEv
6059ab90 t __ZN7sc_core27sc_deprecated_sensitive_posEv
6059abd0 t __ZN7sc_core14warn_no_parensEv
6059ac0c t __ZN7sc_core16as_thread_handleEPNS_12sc_process_bE
6059ac30 t __ZN7sc_core16as_method_handleEPNS_12sc_process_bE
6059ac54 T __ZN7sc_core12sc_sensitive23make_static_sensitivityEPNS_12sc_process_bERKNS_12sc_port_baseE
6059aca4 T __ZN7sc_core12sc_sensitiveclEPNS_18sc_cthread_processERKNS_15sc_signal_in_ifIN5sc_dt8sc_logicEEE
6059acc4 T __ZN7sc_core12sc_sensitiveclEPNS_18sc_cthread_processERKNS_15sc_signal_in_ifIbEE
6059ace4 T __ZN7sc_core12sc_sensitive23make_static_sensitivityEPNS_12sc_process_bERKNS_12sc_interfaceE
6059ad0c T __ZN7sc_core12sc_sensitive23make_static_sensitivityEPNS_12sc_process_bERKNS_8sc_eventE
6059ad18 T __ZN7sc_core12sc_sensitiveclEPNS_18sc_cthread_processERNS_15sc_event_finderE
6059ad34 T __ZN7sc_core12sc_sensitivelsENS_17sc_process_handleE
6059ad90 T __ZN7sc_core16sc_sensitive_neglsENS_17sc_process_handleE
6059adf0 T __ZN7sc_core16sc_sensitive_poslsENS_17sc_process_handleE
6059ae50 T __ZN7sc_core12sc_sensitiveclEPNS_18sc_cthread_processERKNS_8sc_inoutIN5sc_dt8sc_logicEEE
6059aec8 T __ZN7sc_core12sc_sensitiveclEPNS_18sc_cthread_processERKNS_8sc_inoutIbEE
6059af40 T __ZN7sc_core12sc_sensitiveclEPNS_18sc_cthread_processERKNS_5sc_inIN5sc_dt8sc_logicEEE
6059afb8 T __ZN7sc_core12sc_sensitiveclEPNS_18sc_cthread_processERKNS_5sc_inIbEE
6059b030 T __ZN7sc_core16sc_sensitive_poslsERKNS_5sc_inIbEE
6059b1bc T __ZN7sc_core16sc_sensitive_posclERKNS_5sc_inIbEE
6059b1dc T __ZN7sc_core12sc_sensitivelsERKNS_8sc_eventE
6059b27c T __ZN7sc_core12sc_sensitiveclERKNS_8sc_eventE
6059b29c T __ZN7sc_core16sc_sensitive_neglsERKNS_8sc_inoutIN5sc_dt8sc_logicEEE
6059b428 T __ZN7sc_core16sc_sensitive_negclERKNS_8sc_inoutIN5sc_dt8sc_logicEEE
6059b448 T __ZN7sc_core16sc_sensitive_neglsERKNS_8sc_inoutIbEE
6059b5d4 T __ZN7sc_core16sc_sensitive_negclERKNS_8sc_inoutIbEE
6059b5f4 T __ZN7sc_core12sc_sensitivelsERKNS_12sc_port_baseE
6059b6e8 T __ZN7sc_core12sc_sensitiveclERKNS_12sc_port_baseE
6059b708 T __ZN7sc_core12sc_sensitivelsERKNS_12sc_interfaceE
6059b7b8 T __ZN7sc_core12sc_sensitiveclERKNS_12sc_interfaceE
6059b7d8 T __ZN7sc_core16sc_sensitive_poslsERKNS_15sc_signal_in_ifIN5sc_dt8sc_logicEEE
6059b890 T __ZN7sc_core16sc_sensitive_posclERKNS_15sc_signal_in_ifIN5sc_dt8sc_logicEEE
6059b8b0 T __ZN7sc_core16sc_sensitive_poslsERKNS_15sc_signal_in_ifIbEE
6059b968 T __ZN7sc_core16sc_sensitive_posclERKNS_15sc_signal_in_ifIbEE
6059b988 T __ZN7sc_core12sc_sensitive23make_static_sensitivityEPNS_12sc_process_bERNS_15sc_event_finderE
6059ba5c T __ZN7sc_core12sc_sensitivelsERNS_15sc_event_finderE
6059bb54 T __ZN7sc_core12sc_sensitiveclERNS_15sc_event_finderE
6059bb74 T __ZN7sc_core16sc_sensitive_neglsERKNS_5sc_inIN5sc_dt8sc_logicEEE
6059bd00 T __ZN7sc_core16sc_sensitive_negclERKNS_5sc_inIN5sc_dt8sc_logicEEE
6059bd20 T __ZN7sc_core16sc_sensitive_neglsERKNS_5sc_inIbEE
6059beac T __ZN7sc_core16sc_sensitive_negclERKNS_5sc_inIbEE
6059becc T __ZN7sc_core16sc_sensitive_neglsERKNS_15sc_signal_in_ifIN5sc_dt8sc_logicEEE
6059bf84 T __ZN7sc_core16sc_sensitive_negclERKNS_15sc_signal_in_ifIN5sc_dt8sc_logicEEE
6059bfa4 T __ZN7sc_core16sc_sensitive_neglsERKNS_15sc_signal_in_ifIbEE
6059c05c T __ZN7sc_core16sc_sensitive_negclERKNS_15sc_signal_in_ifIbEE
6059c07c T __ZN7sc_core16sc_sensitive_poslsERKNS_8sc_inoutIN5sc_dt8sc_logicEEE
6059c208 T __ZN7sc_core16sc_sensitive_posclERKNS_8sc_inoutIN5sc_dt8sc_logicEEE
6059c228 T __ZN7sc_core16sc_sensitive_poslsERKNS_8sc_inoutIbEE
6059c3b4 T __ZN7sc_core16sc_sensitive_posclERKNS_8sc_inoutIbEE
6059c3d4 T __ZN7sc_core16sc_sensitive_poslsERKNS_5sc_inIN5sc_dt8sc_logicEEE
6059c560 T __ZN7sc_core16sc_sensitive_posclERKNS_5sc_inIN5sc_dt8sc_logicEEE
6059c580 t .text
6059c580 T __ZN7sc_core8sc_clock25before_end_of_elaborationEv
6059c588 T __ZTv0_n12_N7sc_core8sc_clock13register_portERNS_12sc_port_baseEPKc
6059c598 T __ZN7sc_core8sc_clock13register_portERNS_12sc_port_baseEPKc
6059c5a0 T __ZN7sc_core17mti_sc_clock_ctrl4initEv
6059c5cc T __ZNK7sc_core17mti_sc_clock_ctrl33num_of_posedge_event_static_trigsEv
6059c610 T __ZNK7sc_core17mti_sc_clock_ctrl33num_of_negedge_event_static_trigsEv
6059c654 T __ZNK7sc_core17mti_sc_clock_ctrl34num_of_posedge_event_dynamic_trigsEv
6059c698 T __ZNK7sc_core17mti_sc_clock_ctrl34num_of_negedge_event_dynamic_trigsEv
6059c6dc t __Z41__static_initialization_and_destruction_0ii
6059c71c t __GLOBAL__I__ZN7sc_core8sc_clockC2Ev
6059c72c t ___tcf_0
6059c744 T __ZThn56_N7sc_core17mti_sc_clock_ctrlD0Ev
6059c74c T __ZN7sc_core17mti_sc_clock_ctrlD0Ev
6059c778 T __ZThn56_N7sc_core17mti_sc_clock_ctrlD1Ev
6059c780 T __ZN7sc_core17mti_sc_clock_ctrlD1Ev
6059c79c T __ZN7sc_core17mti_sc_clock_ctrlD2Ev
6059c7b8 T __ZN7sc_core8sc_clock26mti_resume_clock_edge_evalENS_8sc_event17mtiClockEdgeTypeTE
6059c810 T __ZN7sc_core8sc_clock10time_stampEv
6059c81c T __ZNK7sc_core8sc_clock12report_errorEPKcS2_
6059c898 T __ZThn84_N7sc_core8sc_clock5writeERKb
6059c8a0 T __ZN7sc_core8sc_clock5writeERKb
6059c8c8 T __ZTv0_n20_N7sc_core8sc_clockD0Ev
6059c8d8 T __ZThn84_N7sc_core8sc_clockD0Ev
6059c8e0 T __ZThn80_N7sc_core8sc_clockD0Ev
6059c8e8 T __ZN7sc_core8sc_clockD0Ev
6059c9b0 T __ZTv0_n20_N7sc_core8sc_clockD1Ev
6059c9c0 T __ZThn84_N7sc_core8sc_clockD1Ev
6059c9c8 T __ZThn80_N7sc_core8sc_clockD1Ev
6059c9d0 T __ZN7sc_core8sc_clockD1Ev
6059ca90 T __ZN7sc_core8sc_clockD2Ev
6059cb44 T __ZN7sc_core8sc_clock21mti_get_channel_valueEi
6059cbf8 T __ZN7sc_core17mti_sc_clock_ctrl16posedge_callbackEv
6059cc84 T __ZN7sc_core17mti_sc_clock_ctrl16negedge_callbackEv
6059cd10 T __ZN7sc_core8sc_clock28mti_activate_clock_edge_evalENS_8sc_event17mtiClockEdgeTypeTE
6059ce14 T __ZN7sc_core8sc_clock4initERKNS_7sc_timeEdS3_b
6059d2d4 T __ZN7sc_core8sc_clockC2EPKc
6059d4cc T __ZN7sc_core17mti_sc_clock_ctrl28mti_create_edge_eval_processEb
6059d780 T __ZN7sc_core16debug_clock_evalEPNS_17mti_sc_clock_ctrlEPKc
6059d8e8 T __ZN7sc_core17mti_sc_clock_ctrl18end_of_elaborationEv
6059d9f8 T __ZN7sc_core8sc_clockC2EPKcdNS_12sc_time_unitEd
6059dbf4 T __ZN7sc_core8sc_clockC1EPKcRKNS_7sc_timeEdS5_b
6059ddec T __ZN7sc_core8sc_clockC2EPKcRKNS_7sc_timeEdS5_b
6059dfd4 T __ZN7sc_core8sc_clockC1EPKc
6059e1d8 T __ZN7sc_core8sc_clockC2EPKcdddb
6059e824 T __ZN7sc_core8sc_clockC1EPKcdNS_12sc_time_unitEddS3_b
6059edc4 T __ZN7sc_core8sc_clockC2EPKcdNS_12sc_time_unitEddS3_b
6059f368 T __ZN7sc_core8sc_clockC1EPKcdNS_12sc_time_unitEd
6059f72c T __ZN7sc_core8sc_clockC1EPKcdddb
6059fd78 T __ZN7sc_core8sc_clockC2Ev
605a0140 T __ZN7sc_core8sc_clockC1Ev
605a0510 t .text
605a0510 T __ZN7sc_core14sc_module_nameC2ERKS0_
605a0538 T __ZN7sc_core14sc_module_nameC1ERKS0_
605a0560 T __ZNK7sc_core14sc_module_namecvPKcEv
605a056c t __Z41__static_initialization_and_destruction_0ii
605a05ac t __GLOBAL__I__ZN7sc_core14sc_module_nameC2EPKc
605a05bc t ___tcf_0
605a05d4 T __ZN7sc_core14sc_module_nameC2EPKc
605a0654 T __ZN7sc_core14sc_module_nameC1EPKc
605a06d4 T __ZN7sc_core14sc_module_nameD2Ev
605a0854 T __ZN7sc_core14sc_module_nameD1Ev
605a09e0 t .text
605a09e0 T __ZN7sc_core15sc_event_finderC2ERKNS_12sc_port_baseE
605a09f4 T __ZN7sc_core15sc_event_finderC1ERKNS_12sc_port_baseE
605a0a08 T __ZN7sc_core15sc_event_finderD0Ev
605a0a1c T __ZN7sc_core15sc_event_finderD1Ev
605a0a2c T __ZN7sc_core15sc_event_finderD2Ev
605a0a3c t __Z41__static_initialization_and_destruction_0ii
605a0a7c t __GLOBAL__I__ZNK7sc_core15sc_event_finder12report_errorEPKcS2_
605a0a8c t ___tcf_0
605a0aa4 T __ZNK7sc_core15sc_event_finder12report_errorEPKcS2_
605a0b40 t .text
605a0b40 T __ZNK7sc_core9sc_object5traceEPNS_13sc_trace_fileE
605a0b48 T __ZNK7sc_core9sc_object14num_attributesEv
605a0b64 t __Z41__static_initialization_and_destruction_0ii
605a0ba4 t __GLOBAL__I__ZN7sc_core23sc_enable_name_checkingE
605a0bb4 t ___tcf_0
605a0bcc T __ZN7sc_core9sc_object16mti_set_typenameEPKc
605a0c3c T __ZNK7sc_core9sc_object10get_parentEv
605a0c7c T __ZNK7sc_core9sc_object9attr_cltnEv
605a0ccc T __ZN7sc_core9sc_object9attr_cltnEv
605a0d1c T __ZN7sc_core9sc_object21remove_all_attributesEv
605a0d38 T __ZN7sc_core9sc_object16remove_attributeERKSs
605a0d54 T __ZNK7sc_core9sc_object13get_attributeERKSs
605a0db0 T __ZN7sc_core9sc_object13get_attributeERKSs
605a0e0c T __ZN7sc_core9sc_object13add_attributeERNS_12sc_attr_baseE
605a0e64 T __ZN7sc_core9sc_object6detachEv
605a0eb4 T __ZN7sc_core9sc_object15mti_delete_nameEv
605a0f04 t __ZN7sc_core24object_name_illegal_charEc
605a0f64 T __ZNK7sc_core9sc_object8basenameEv
605a0fa0 T __ZN7sc_core9sc_object36unregister_simulation_phase_callbackEj
605a0fbc T __ZN7sc_core9sc_object34register_simulation_phase_callbackEj
605a0fd8 T __ZN7sc_core9sc_object19remove_child_objectEPS0_
605a1044 T __ZN7sc_core9sc_object18remove_child_eventEPNS_8sc_eventE
605a10b0 T __ZN7sc_core9sc_object19orphan_child_eventsEv
605a1100 T __ZN7sc_core9sc_object20orphan_child_objectsEv
605a1150 T __ZN7sc_core9sc_object16add_child_objectEPS0_
605a1184 T __ZN7sc_core9sc_object15add_child_eventEPNS_8sc_eventE
605a11b8 T __ZN7sc_core9sc_object13mti_init_nameEPKc
605a154c T __ZN7sc_core9sc_object20mti_fix_default_nameEv
605a1634 T __ZN7sc_core9sc_object14sc_object_initEPKc
605a1688 T __ZNK7sc_core9sc_object4nameEv
605a17b0 T __ZN7sc_core9sc_object25simulation_phase_callbackEv
605a17dc T __ZN7sc_core9sc_object20mti_bind_sc_obj_nameEPc
605a1958 T __ZNK7sc_core9sc_object5printERSo
605a19b8 T __ZNK7sc_core9sc_object4dumpERSo
605a1aa8 T __ZN7sc_core9sc_objectD2Ev
605a1c10 T __ZN7sc_core9sc_objectC1EPKc
605a1f1c T __ZN7sc_core9sc_objectC2EPKc
605a2228 T __ZN7sc_core9sc_objectC1ERKS0_
605a2328 T __ZN7sc_core9sc_objectC2Ev
605a2424 T __ZN7sc_core9sc_objectC2ERKS0_
605a2524 T __ZN7sc_core9sc_objectC1Ev
605a2620 T __ZN7sc_core9sc_objectD0Ev
605a2794 T __ZN7sc_core9sc_objectD1Ev
605a2900 t .text
605a2900 T __ZN7sc_core12sc_interface13register_portERNS_12sc_port_baseEPKc
605a2908 T __ZN7sc_core12sc_interfaceC2Ev
605a2918 T __ZN7sc_core12sc_interfaceC1Ev
605a2928 T __ZN7sc_core12sc_interface18mti_get_channel_idEPNS_9sc_objectE
605a2930 T __ZN7sc_core12sc_interfaceD0Ev
605a2944 T __ZN7sc_core12sc_interfaceD1Ev
605a2954 T __ZN7sc_core12sc_interfaceD2Ev
605a2964 t __Z41__static_initialization_and_destruction_0ii
605a29c0 t __GLOBAL__I__ZN7sc_core12sc_interface13register_portERNS_12sc_port_baseEPKc
605a29d0 t ___tcf_1
605a29e8 t ___tcf_0
605a2a00 T __ZNK7sc_core12sc_interface13default_eventEv
605a2a30 t .text
605a2a30 T __ZN7sc_core12sc_bind_elemC2Ev
605a2a48 T __ZN7sc_core12sc_bind_elemC1Ev
605a2a60 T __ZN7sc_core12sc_bind_elemC2EPNS_12sc_interfaceE
605a2a74 T __ZN7sc_core12sc_bind_elemC1EPNS_12sc_interfaceE
605a2a88 T __ZN7sc_core12sc_bind_elemC2EPNS_12sc_port_baseE
605a2a9c T __ZN7sc_core12sc_bind_elemC1EPNS_12sc_port_baseE
605a2ab0 T __ZN7sc_core10sc_bind_efC2EPNS_12sc_process_bEPNS_15sc_event_finderE
605a2ac4 T __ZN7sc_core10sc_bind_efC1EPNS_12sc_process_bEPNS_15sc_event_finderE
605a2ad8 T __ZN7sc_core10sc_bind_efD2Ev
605a2ae0 T __ZN7sc_core10sc_bind_efD1Ev
605a2ae8 T __ZN7sc_core12sc_bind_infoC1EiNS_14sc_port_policyE
605a2b50 T __ZNK7sc_core12sc_bind_info8max_sizeEv
605a2b68 T __ZNK7sc_core12sc_bind_info6policyEv
605a2b74 T __ZNK7sc_core12sc_bind_info4sizeEv
605a2b88 T __ZN7sc_core12sc_port_base10bind_countEv
605a2ba8 T __ZN7sc_core12sc_port_base25before_end_of_elaborationEv
605a2bb0 T __ZN7sc_core12sc_port_base18end_of_elaborationEv
605a2bb8 T __ZN7sc_core12sc_port_base19start_of_simulationEv
605a2bc0 T __ZN7sc_core12sc_port_base17end_of_simulationEv
605a2bc8 T __ZN7sc_core12sc_port_base12first_parentEv
605a2c00 T __ZN7sc_core16sc_port_registry12replace_portEPS0_
605a2c08 T __ZN7sc_core16sc_port_registryC1ERNS_13sc_simcontextE
605a2c28 T __ZN7sc_core16sc_port_registryC2ERNS_13sc_simcontextE
605a2c48 t __Z41__static_initialization_and_destruction_0ii
605a2c88 t __GLOBAL__I__ZN7sc_core12sc_bind_elemC2Ev
605a2c98 t ___tcf_0
605a2cb0 T __ZN7sc_core24sc_warn_port_constructorEv
605a2cf0 T __ZN7sc_core16sc_port_registryD1Ev
605a2d00 T __ZN7sc_core16sc_port_registryD2Ev
605a2d10 T __ZNK7sc_core12sc_port_base16add_static_eventEPNS_17sc_thread_processERKNS_8sc_eventE
605a2d28 T __ZNK7sc_core12sc_port_base16add_static_eventEPNS_17sc_method_processERKNS_8sc_eventE
605a2d40 T __ZNK7sc_core12sc_port_base12report_errorEPKcS2_
605a2dd4 T __ZN7sc_core16sc_port_registry6removeEPNS_12sc_port_baseE
605a2e0c T __ZN7sc_core12sc_port_base5pbindERS0_
605a2e64 T __ZN7sc_core12sc_port_base5pbindERNS_12sc_interfaceE
605a2ebc T __ZNK7sc_core16sc_port_registry17mti_is_valid_portEPNS_12sc_port_baseE
605a2f04 T __ZN7sc_core12sc_port_base4bindERS0_
605a2fa4 T __ZN7sc_core12sc_port_base15simulation_doneEv
605a3008 T __ZN7sc_core16sc_port_registry15simulation_doneEv
605a3040 T __ZN7sc_core12sc_port_base16start_simulationEv
605a30a4 T __ZN7sc_core16sc_port_registry16start_simulationEv
605a30dc T __ZN7sc_core12sc_port_base17construction_doneEv
605a3140 T __ZN7sc_core16sc_port_registry17construction_doneEv
605a3198 T __ZNK7sc_core12sc_port_base14make_sensitiveEPNS_17sc_thread_processEPNS_15sc_event_finderE
605a3210 T __ZNK7sc_core12sc_port_base14make_sensitiveEPNS_17sc_method_processEPNS_15sc_event_finderE
605a3288 T __ZN7sc_core12sc_port_base4bindERNS_12sc_interfaceE
605a331c T __ZN7sc_core12sc_port_base13insert_parentEi
605a3480 T __ZN7sc_core16sc_port_registry6insertEPNS_12sc_port_baseE
605a35fc T __ZN7sc_core12sc_port_baseC1EPKciNS_14sc_port_policyE
605a3690 T __ZN7sc_core12sc_port_baseC2EPKciNS_14sc_port_policyE
605a3724 T __ZN7sc_core12sc_port_baseC1EiNS_14sc_port_policyE
605a37c8 T __ZN7sc_core12sc_port_baseC2EiNS_14sc_port_policyE
605a386c T __ZN7sc_core12sc_port_base23mti_create_signal_aliasEv
605a3c5c T __ZN7sc_core12sc_port_base20mti_complete_bindingEPNS_12sc_interfaceE
605a4288 T __ZN7sc_core12sc_port_base16complete_bindingEv
605a46d4 T __ZN7sc_core16sc_port_registry16complete_bindingEv
605a470c T __ZN7sc_core12sc_bind_infoC2EiNS_14sc_port_policyE
605a4774 T __ZN7sc_core12sc_bind_infoD1Ev
605a4808 T __ZN7sc_core12sc_port_base16elaboration_doneEv
605a48ac T __ZN7sc_core16sc_port_registry16elaboration_doneEv
605a48f0 T __ZN7sc_core12sc_port_baseD0Ev
605a495c T __ZN7sc_core12sc_port_baseD1Ev
605a49bc T __ZN7sc_core12sc_port_baseD2Ev
605a4a1c T __ZN7sc_core12sc_bind_infoD2Ev
605a4ab0 t .text
605a4ab0 T __ZN7sc_core13sc_trace_fileC2Ev
605a4ac0 T __ZN7sc_core13sc_trace_fileC1Ev
605a4ad0 T __ZN7sc_core13sc_trace_file5spaceEi
605a4ad8 T __ZN7sc_core13sc_trace_file12delta_cyclesEb
605a4ae0 T __ZN7sc_core8sc_traceEPNS_13sc_trace_fileERKNS_15sc_signal_in_ifIcEERKSsi
605a4b30 T __ZN7sc_core8sc_traceEPNS_13sc_trace_fileERKNS_15sc_signal_in_ifIsEERKSsi
605a4b80 T __ZN7sc_core8sc_traceEPNS_13sc_trace_fileERKNS_15sc_signal_in_ifIiEERKSsi
605a4bd0 T __ZN7sc_core8sc_traceEPNS_13sc_trace_fileERKNS_15sc_signal_in_ifIlEERKSsi
605a4c20 T __ZN7sc_core23double_to_special_int64EdPjS0_
605a4ce0 T __ZN7sc_core8sc_traceEPNS_13sc_trace_fileERKN5sc_dt6sc_bitERKSs
605a4cf8 T __ZN7sc_core8sc_traceEPNS_13sc_trace_fileEPKN5sc_dt6sc_bitERKSs
605a4d10 T __ZN7sc_core8sc_traceEPNS_13sc_trace_fileERKN5sc_dt8sc_logicERKSs
605a4d28 T __ZN7sc_core8sc_traceEPNS_13sc_trace_fileEPKN5sc_dt8sc_logicERKSs
605a4d40 T __ZN7sc_core8sc_traceEPNS_13sc_trace_fileERKN5sc_dt11sc_int_baseERKSs
605a4d58 T __ZN7sc_core8sc_traceEPNS_13sc_trace_fileEPKN5sc_dt11sc_int_baseERKSs
605a4d70 T __ZN7sc_core8sc_traceEPNS_13sc_trace_fileERKN5sc_dt12sc_uint_baseERKSs
605a4d88 T __ZN7sc_core8sc_traceEPNS_13sc_trace_fileEPKN5sc_dt12sc_uint_baseERKSs
605a4da0 T __ZN7sc_core8sc_traceEPNS_13sc_trace_fileERKN5sc_dt9sc_signedERKSs
605a4db8 T __ZN7sc_core8sc_traceEPNS_13sc_trace_fileEPKN5sc_dt9sc_signedERKSs
605a4dd0 T __ZN7sc_core8sc_traceEPNS_13sc_trace_fileERKN5sc_dt11sc_unsignedERKSs
605a4de8 T __ZN7sc_core8sc_traceEPNS_13sc_trace_fileEPKN5sc_dt11sc_unsignedERKSs
605a4e00 T __ZN7sc_core8sc_traceEPNS_13sc_trace_fileERKN5sc_dt10sc_bv_baseERKSs
605a4e18 T __ZN7sc_core8sc_traceEPNS_13sc_trace_fileERKN5sc_dt10sc_lv_baseERKSs
605a4e30 t __Z41__static_initialization_and_destruction_0ii
605a4e64 t __GLOBAL__I__ZN7sc_core13sc_trace_fileC2Ev
605a4e74 t ___tcf_0
605a4e8c T __ZN7sc_core8sc_traceEPNS_13sc_trace_fileERKjRKSsPPKc
605a4f04 T __ZN7sc_core8sc_traceEPNS_13sc_trace_fileEPKvRKSs
605a4f2c T __ZN7sc_core7tprintfEPNS_13sc_trace_fileEPKcz
605a5030 t .text
605a5030 T __ZN7sc_core25mti_is_internal_report_idEi
605a5060 T __ZN7sc_core17sc_report_handler9get_countENS_11sc_severityE
605a5070 T __ZN7sc_core17sc_report_handler7executeEPNS_10sc_msg_defENS_11sc_severityE
605a513c T __ZN7sc_core17sc_report_handler20add_static_msg_typesEPNS0_13msg_def_itemsE
605a5158 T __ZN7sc_core17sc_report_handler11set_actionsENS_11sc_severityEj
605a5174 T __ZN7sc_core17sc_report_handler10stop_afterENS_11sc_severityEi
605a51a4 T __ZN7sc_core17sc_report_handler8suppressEj
605a51b8 T __ZN7sc_core17sc_report_handler8suppressEv
605a51c4 T __ZN7sc_core17sc_report_handler5forceEj
605a51d8 T __ZN7sc_core17sc_report_handler5forceEv
605a51e4 T __ZN7sc_core17sc_report_handler11set_handlerEPFvRKNS_9sc_reportERKjE
605a520c T __ZN7sc_core17sc_report_handler11get_handlerEv
605a5218 T __ZN7sc_core17sc_report_handler17get_new_action_idEv
605a5248 T __ZN7sc_core17sc_report_handler17get_log_file_nameEv
605a5254 T __ZN7sc_core17sc_report_handler8mdlookupEi
605a529c T __ZN7sc_core17sc_report_handler19get_verbosity_levelEv
605a52a8 T __ZN7sc_core17sc_report_handler19set_verbosity_levelEi
605a52bc t __Z41__static_initialization_and_destruction_0ii
605a5308 t __GLOBAL__I__ZN7sc_core17sc_report_handler9cb_list_pE
605a5318 t ___tcf_0
605a5330 T __ZN7sc_core17sc_report_handler11register_cbEPFvPKNS_9sc_reportEE
605a5390 T __ZN7sc_core17sc_report_handler17set_log_file_nameEPKc
605a5408 T __ZN7sc_core27sc_report_close_default_logEv
605a5450 T __ZN7sc_core17sc_report_handler7releaseEv
605a553c t ___tcf_1
605a5548 T __ZN7sc_core17sc_report_handler12add_msg_typeEiPKc
605a5610 T __ZN7sc_core17sc_report_handler8mdlookupEPKc
605a5684 T __ZN7sc_core17sc_report_handler12add_msg_typeEPKc
605a5754 T __ZN7sc_core17sc_report_handler10stop_afterEPKcNS_11sc_severityEi
605a57d0 T __ZN7sc_core17sc_report_handler10stop_afterEPKci
605a5834 T __ZN7sc_core17sc_report_handler11set_actionsEPKcNS_11sc_severityEj
605a5874 T __ZN7sc_core17sc_report_handler11set_actionsEPKcj
605a58b8 T __ZN7sc_core17sc_report_handler10initializeEv
605a5984 T __ZN7sc_core17sc_report_handler9get_countEPKcNS_11sc_severityE
605a59c8 T __ZN7sc_core17sc_report_handler9get_countEPKc
605a59fc T __ZNK7sc_core9sc_report16get_process_nameEv
605a5a18 T __ZN7sc_core17sc_report_handler17get_cached_reportEv
605a5a88 T __ZN7sc_core17sc_report_handler12cache_reportERKNS_9sc_reportE
605a5b78 T __ZN7sc_core17sc_report_handler6reportENS_11sc_severityEPKcS3_S3_i
605a5c2c T __ZN7sc_core17sc_report_handler6reportENS_11sc_severityEPKcS3_iS3_i
605a5cdc T __ZN7sc_core17sc_report_handler15default_handlerERKNS_9sc_reportERKj
605a60a4 T __ZN7sc_core17sc_report_handler19clear_cached_reportEv
605a6144 T __ZN7sc_core25sc_report_compose_messageERKNS_9sc_reportE
605a6490 t .text
605a6490 T __ZN7sc_core17sc_thread_process14disable_threadEv
605a64a4 T __ZN7sc_core17sc_thread_process15signal_monitorsEi
605a64e8 T __ZN7sc_core17sc_set_stack_sizeEPNS_17sc_thread_processEj
605a651c t __Z41__static_initialization_and_destruction_0ii
605a655c t __GLOBAL__I__ZN7sc_core21SC_DEFAULT_STACK_SIZEE
605a656c t ___tcf_0
605a6584 T __ZN7sc_core17sc_thread_processD0Ev
605a6624 T __ZN7sc_core17sc_thread_processD1Ev
605a66bc T __ZN7sc_core17sc_thread_processD2Ev
605a6754 T __ZN7sc_core17sc_thread_process14resume_processENS_28sc_descendant_inclusion_infoE
605a6874 T __ZN7sc_core17sc_thread_process14enable_processENS_28sc_descendant_inclusion_infoE
605a6938 T __ZN7sc_core17sc_thread_process22prepare_for_simulationEv
605a69a8 T __ZN7sc_core17sc_thread_process15trigger_dynamicEPNS_8sc_eventEi
605a6c24 T __ZN7sc_core17sc_thread_processC1EPKcbMNS_15sc_process_hostEFvvEPS3_PKNS_16sc_spawn_optionsE
605a6ea0 T __ZN7sc_core17sc_thread_processC2EPKcbMNS_15sc_process_hostEFvvEPS3_PKNS_16sc_spawn_optionsE
605a711c T __ZN7sc_core17sc_thread_process15disable_processENS_28sc_descendant_inclusion_infoE
605a7250 T __ZN7sc_core16sc_thread_cor_fnEPv
605a75c8 T __ZN7sc_core17sc_thread_process15suspend_processENS_28sc_descendant_inclusion_infoE
605a789c T __ZN7sc_core17sc_thread_process10throw_userERKNS_18sc_throw_it_helperENS_28sc_descendant_inclusion_infoE
605a7f04 T __ZN7sc_core17sc_thread_process11throw_resetEb
605a8400 T __ZN7sc_core17sc_thread_process12kill_processENS_28sc_descendant_inclusion_infoE
605a8a80 t .text
605a8a80 t __Z41__static_initialization_and_destruction_0ii
605a8ac0 t __GLOBAL__I__ZN5sc_dt9scfx_mant10alloc_wordEj
605a8ad0 t ___tcf_0
605a8ae8 T __ZN5sc_dt9scfx_mant10alloc_wordEj
605a8bec T __ZN5sc_dt9scfx_mant9free_wordEPjj
605a8c70 t .text
605a8c70 T __ZN5sc_dt11compare_absERKNS_8scfx_repES2_
605a8d7c T __ZN5sc_dt14compare_msw_ffERKNS_8scfx_repES2_
605a8e64 T __ZN5sc_dt8scfx_rep13divide_by_tenEv
605a8edc T __ZN5sc_dt8scfx_rep7set_binEi
605a8f00 T __ZN5sc_dt8scfx_rep7set_octEii
605a8f70 T __ZN5sc_dt8scfx_rep7set_hexEii
605a8ffc T __ZN5sc_dt8scfx_rep10shift_leftEi
605a9068 T __ZN5sc_dt8scfx_rep11shift_rightEi
605a90d8 T __ZN5sc_dt8scfx_repdlEPvj
605a90fc t __Z41__static_initialization_and_destruction_0ii
605a9154 t __GLOBAL__I__ZN5sc_dt8scfx_repC2Ev
605a9164 t ___tcf_2
605a917c t ___tcf_1
605a9194 T __ZN5sc_dt8scfx_repC1ERKS0_
605a920c T __ZN5sc_dt8scfx_repC1Ev
605a9298 T __ZN5sc_dt8scfx_repnwEj
605a92fc t ___tcf_0
605a931c T __ZN5sc_dt12cmp_scfx_repERKNS_8scfx_repES2_
605a9410 T __ZN5sc_dt8scfx_repC2ERKS0_
605a9488 T __ZNK5sc_dt8scfx_rep6resizeEii
605a953c T __ZN5sc_dt8scfx_repC2Ev
605a95c8 T __ZN5sc_dt8scfx_repC2Ex
605a9734 T __ZN5sc_dt8scfx_repC1Em
605a980c T __ZN5sc_dt8scfx_repC2Em
605a98e4 T __ZN5sc_dt8scfx_repC1El
605a99cc T __ZN5sc_dt8scfx_repC2El
605a9ab4 T __ZN5sc_dt8scfx_repC1Ej
605a9b8c T __ZN5sc_dt8scfx_repC2Ej
605a9c64 T __ZN5sc_dt8scfx_repC1Ei
605a9d54 T __ZN5sc_dt8scfx_repC2Ei
605a9e44 T __ZN5sc_dt8scfx_rep9normalizeEi
605a9ef0 T __ZN5sc_dt8scfx_repC1Ey
605aa028 T __ZN5sc_dt8scfx_repC2Ey
605aa160 T __ZN5sc_dt8scfx_repC1Ex
605aa2cc T __ZN5sc_dt8scfx_rep15multiply_by_tenEv
605aa404 T __ZN5sc_dt8scfx_repC1Ed
605aa54c T __ZN5sc_dt8scfx_repC2Ed
605aa694 T __ZNK5sc_dt8scfx_rep9to_doubleEv
605aaa6c T __ZN5sc_dt5alignERKNS_8scfx_repES2_RiS3_RNS_13scfx_mant_refES5_
605aac84 T __ZNK5sc_dt8scfx_rep7get_bitEi
605aadf0 T __ZNK5sc_dt8scfx_rep8get_typeERiS1_RNS_6sc_encE
605aafa4 T __ZNK5sc_dt8scfx_rep9get_sliceEiiRKNS_11scfx_paramsERNS_10sc_bv_baseE
605ab07c T __ZN5sc_dt8scfx_rep6lshiftEi
605ab208 T __ZN5sc_dt8scfx_rep6rshiftEi
605ab3c4 T __ZN5sc_dt8scfx_repC1ERKNS_11sc_unsignedE
605ab604 T __ZN5sc_dt8scfx_repC2ERKNS_11sc_unsignedE
605ab844 T __ZN5sc_dt8scfx_rep5clearEiRKNS_11scfx_paramsE
605abb6c T __ZN5sc_dt8scfx_repC1ERKNS_9sc_signedE
605abedc T __ZN5sc_dt8scfx_repC2ERKNS_9sc_signedE
605ac24c T __ZN5sc_dt8scfx_rep3setEiRKNS_11scfx_paramsE
605ac5f4 T __ZN5sc_dt8scfx_rep9set_sliceEiiRKNS_11scfx_paramsERKNS_10sc_bv_baseE
605ac708 T __ZN5sc_dt8scfx_rep8overflowERKNS_11scfx_paramsERb
605adda4 T __ZN5sc_dt8scfx_rep12quantizationERKNS_11scfx_paramsERb
605aeb18 T __ZN5sc_dt8scfx_rep4castERKNS_11scfx_paramsERbS4_
605aebb8 T __ZN5sc_dt8scfx_rep5roundEi
605af0cc T __ZN5sc_dt12add_scfx_repERKNS_8scfx_repES2_i
605af558 T __ZN5sc_dt8multiplyERNS_8scfx_repERKS0_S3_i
605af9bc T __ZNK5sc_dt8scfx_rep4dumpERSo
605afc00 T __ZN5sc_dt12div_scfx_repERKNS_8scfx_repES2_i
605b0530 T __ZN5sc_dt12sub_scfx_repERKNS_8scfx_repES2_i
605b0a20 T __ZN5sc_dt8scfx_rep11from_stringEPKci
605b1c94 T __ZN5sc_dt9print_decERNS_11scfx_stringERKNS_8scfx_repEiNS_6sc_fmtE
605b2d14 T __ZN5sc_dt11print_otherERNS_11scfx_stringERKNS_8scfx_repENS_9sc_numrepEiNS_6sc_fmtEPKNS_11scfx_paramsE
605b43fc T __ZNK5sc_dt8scfx_rep9to_stringENS_9sc_numrepEiNS_6sc_fmtEPKNS_11scfx_paramsE
605b4a00 T __ZNK5sc_dt8scfx_rep5printERSo
605b4a70 t .text
605b4a70 T __ZNK7sc_core19sc_unwind_exception6activeEv
605b4a8c T __ZNK7sc_core19sc_unwind_exception4whatEv
605b4aa8 t __Z41__static_initialization_and_destruction_0ii
605b4adc t __GLOBAL__I__ZN7sc_core19sc_unwind_exceptionC2EPNS_12sc_process_bEb
605b4aec t ___tcf_0
605b4b04 T __ZNK7sc_core19sc_unwind_exception5clearEv
605b4b54 T __ZN7sc_core19sc_handle_exceptionEv
605b4cdc T __ZN7sc_core19sc_unwind_exceptionD0Ev
605b4d60 T __ZN7sc_core19sc_unwind_exceptionD1Ev
605b4dd8 T __ZN7sc_core19sc_unwind_exceptionD2Ev
605b4e50 T __ZN7sc_core19sc_unwind_exceptionC2EPNS_12sc_process_bEb
605b4edc T __ZN7sc_core19sc_unwind_exceptionC1EPNS_12sc_process_bEb
605b4f70 t .text
605b4f70 t __Z41__static_initialization_and_destruction_0ii
605b4fb0 t __GLOBAL__I__ZN7sc_core16sc_spawn_optionsD2Ev
605b4fc0 t ___tcf_0
605b4fd8 T __ZN7sc_core16sc_spawn_options21async_reset_signal_isERKNS_15sc_signal_in_ifIbEEb
605b501c T __ZN7sc_core16sc_spawn_options21async_reset_signal_isERKNS_6sc_outIbEEb
605b5060 T __ZN7sc_core16sc_spawn_options15reset_signal_isERKNS_8sc_inoutIbEEb
605b50a4 T __ZN7sc_core16sc_spawn_options21async_reset_signal_isERKNS_5sc_inIbEEb
605b50e8 T __ZN7sc_core16sc_spawn_optionsD1Ev
605b51c8 T __ZN7sc_core16sc_spawn_optionsD2Ev
605b52a8 T __ZNK7sc_core16sc_spawn_options14specify_resetsEv
605b52e0 T __ZN7sc_core16sc_spawn_options15reset_signal_isERKNS_5sc_inIbEEb
605b5324 T __ZN7sc_core16sc_spawn_options21async_reset_signal_isERKNS_8sc_inoutIbEEb
605b5368 T __ZN7sc_core16sc_spawn_options15reset_signal_isERKNS_6sc_outIbEEb
605b53ac T __ZN7sc_core16sc_spawn_options15reset_signal_isERKNS_15sc_signal_in_ifIbEEb
605b53f0 t .text
605b53f0 T __ZN7sc_core17sc_object_manager15pop_module_nameEv
605b5408 T __ZN7sc_core17sc_object_manager16push_module_nameEPNS_14sc_module_nameE
605b541c t __Z41__static_initialization_and_destruction_0ii
605b545c t __GLOBAL__I__ZN7sc_core9sc_object26m_mti_is_executing_sc_mainE
605b546c t ___tcf_0
605b5484 T __ZN7sc_core17sc_object_manager24top_of_module_name_stackEv
605b54c4 T __ZN7sc_core17sc_object_manager13hierarchy_popEv
605b54f4 T __ZN7sc_core17sc_object_manager14hierarchy_currEv
605b5514 T __ZN7sc_core17sc_object_manager14hierarchy_sizeEv
605b5528 T __ZN7sc_core17sc_object_manager14hierarchy_pushEPNS_9sc_objectE
605b555c T __ZN7sc_core17sc_object_manager12first_objectEv
605b55b8 T __ZN7sc_core17sc_object_manager11next_objectEv
605b5638 T __ZN7sc_core17sc_object_manager13remove_objectERKSs
605b5660 T __ZN7sc_core17sc_object_manager12remove_eventERKSs
605b5688 T __ZN7sc_core17sc_object_managerC2Ev
605b56f0 T __ZN7sc_core17sc_object_managerD1Ev
605b5788 T __ZN7sc_core17sc_object_managerD2Ev
605b5820 T __ZN7sc_core17sc_object_managerC1Ev
605b5888 T __ZN7sc_core17sc_object_manager12insert_eventERKSsPNS_8sc_eventE
605b59f8 T __ZN7sc_core17sc_object_manager11find_objectEPKc
605b5be4 T __ZN7sc_core17sc_object_manager10find_eventEPKc
605b5dd0 T __ZN7sc_core17sc_object_manager11create_nameEPKcPNS_9sc_objectE
605b63e0 T __ZN7sc_core17sc_object_manager13insert_objectERKSsPNS_9sc_objectE
605b6550 t .text
605b6550 T __ZN7sc_core18sc_module_registryC1ERNS_13sc_simcontextE
605b6574 T __ZN7sc_core18sc_module_registryC2ERNS_13sc_simcontextE
605b6598 t __Z41__static_initialization_and_destruction_0ii
605b65d8 t __GLOBAL__I__ZN7sc_core18sc_module_registry6insertERNS_9sc_moduleE
605b65e8 t ___tcf_0
605b6600 T __ZN7sc_core18sc_module_registryD1Ev
605b6610 T __ZN7sc_core18sc_module_registryD2Ev
605b6620 T __ZN7sc_core18sc_module_registry6removeERNS_9sc_moduleE
605b6660 T __ZNK7sc_core18sc_module_registry19mti_is_valid_moduleEPNS_9sc_moduleE
605b66ac T __ZN7sc_core18sc_module_registry18mti_set_debug_infoEv
605b671c T __ZN7sc_core18sc_module_registry27mti_create_module_variablesEv
605b67ac T __ZN7sc_core18sc_module_registry6insertERNS_9sc_moduleE
605b68f4 T __ZN7sc_core18sc_module_registry15simulation_doneEv
605b69f0 T __ZN7sc_core18sc_module_registry16start_simulationEv
605b6aec T __ZN7sc_core18sc_module_registry16elaboration_doneEv
605b6bf0 T __ZN7sc_core18sc_module_registry17construction_doneEv
605b6d00 t .text
605b6d00 T __ZN7sc_core14sc_export_base25before_end_of_elaborationEv
605b6d08 T __ZN7sc_core14sc_export_base18end_of_elaborationEv
605b6d10 T __ZN7sc_core14sc_export_base19start_of_simulationEv
605b6d18 T __ZN7sc_core14sc_export_base17end_of_simulationEv
605b6d20 T __ZN7sc_core18sc_export_registryC1ERNS_13sc_simcontextE
605b6d44 T __ZN7sc_core18sc_export_registryC2ERNS_13sc_simcontextE
605b6d68 t __Z41__static_initialization_and_destruction_0ii
605b6da8 t __GLOBAL__I__ZN7sc_core14sc_export_baseC2Ev
605b6db8 t ___tcf_0
605b6dd0 T __ZN7sc_core18sc_export_registryD1Ev
605b6de0 T __ZN7sc_core18sc_export_registryD2Ev
605b6df0 T __ZNK7sc_core14sc_export_base12report_errorEPKcS2_
605b6e84 T __ZN7sc_core18sc_export_registry6removeEPNS_14sc_export_baseE
605b6ec0 T __ZN7sc_core18sc_export_registry6insertEPNS_14sc_export_baseE
605b6f74 T __ZN7sc_core14sc_export_baseC2Ev
605b6fc8 T __ZN7sc_core14sc_export_baseC1Ev
605b701c T __ZNK7sc_core18sc_export_registry19mti_is_valid_exportEPNS_14sc_export_baseE
605b7064 T __ZN7sc_core14sc_export_baseD0Ev
605b70b0 T __ZN7sc_core14sc_export_baseD1Ev
605b70f4 T __ZN7sc_core14sc_export_baseD2Ev
605b7138 T __ZN7sc_core14sc_export_baseC1EPKc
605b7180 T __ZN7sc_core14sc_export_baseC2EPKc
605b71c8 T __ZN7sc_core14sc_export_base15simulation_doneEv
605b722c T __ZN7sc_core18sc_export_registry15simulation_doneEv
605b7264 T __ZN7sc_core14sc_export_base16start_simulationEv
605b72c8 T __ZN7sc_core18sc_export_registry16start_simulationEv
605b7300 T __ZN7sc_core14sc_export_base16elaboration_doneEv
605b7364 T __ZN7sc_core18sc_export_registry16elaboration_doneEv
605b73a8 T __ZN7sc_core14sc_export_base17construction_doneEv
605b7430 T __ZN7sc_core18sc_export_registry17construction_doneEv
605b7488 T __ZN7sc_core25mti_get_current_region_idEv
605b7500 t .text
605b7500 T __ZN7sc_core26sc_phase_callback_registryC2ERNS_13sc_simcontextE
605b7508 T __ZN7sc_core26sc_phase_callback_registryC1ERNS_13sc_simcontextE
605b7510 T __ZN7sc_core26sc_phase_callback_registryD2Ev
605b7518 T __ZN7sc_core26sc_phase_callback_registryD1Ev
605b7520 t __Z41__static_initialization_and_destruction_0ii
605b7560 t __GLOBAL__I__ZN7sc_core26sc_phase_callback_registryC2ERNS_13sc_simcontextE
605b7570 t ___tcf_0
605b7588 t __ZN7sc_core20warn_phase_callbacksERKNS_9sc_objectE
605b7b68 T __ZN7sc_core26sc_phase_callback_registry19unregister_callbackERNS_9sc_objectEj
605b7b7c T __ZN7sc_core26sc_phase_callback_registry17register_callbackERNS_9sc_objectEj
605b7b90 t .text
605b7b90 t __Z41__static_initialization_and_destruction_0ii
605b7bc4 t __GLOBAL__I__ZN7sc_core11sc_name_genC2Ev
605b7bd4 t ___tcf_0
605b7bec T __ZN7sc_core11sc_name_gen15gen_unique_nameEPKcb
605b7ca0 T __ZN7sc_core11sc_name_genC2Ev
605b7cec T __ZN7sc_core11sc_name_genC1Ev
605b7d38 T __ZN7sc_core11sc_name_genD2Ev
605b7df4 T __ZN7sc_core11sc_name_genD1Ev
605b7eb0 t .text
605b7eb0 T __ZN7sc_core18mti_execute_threadEPv
605b7f24 T __ZN7sc_core22scmti_get_thread_stateEPv
605b7f38 T __ZN7sc_core51scmti_clear_primitive_channel_update_requested_flagEPv
605b7f50 T __ZN7sc_core25scmti_get_object_typenameEPv
605b7f64 T __ZN7sc_core26scmti_get_object_region_idEPv
605b7f74 T __ZN7sc_core25scmti_is_typename_checkedEPv
605b7f84 t __Z41__static_initialization_and_destruction_0ii
605b7fc4 t __GLOBAL__I__ZN7sc_core16message_functionEPKc
605b7fd4 t ___tcf_0
605b7fec T __ZN7sc_core16message_functionEPKc
605b7ff8 T __ZN7sc_core30scmti_get_string_generic_valueEPvPS0_
605b800c T __ZN7sc_core24scmti_set_variable_valueEPvS0_
605b80d8 T __ZN7sc_core24scmti_get_variable_valueEPvPS0_
605b81a8 T __ZN7sc_core29scmti_get_variable_value_sizeEPvPiS1_S1_
605b8278 T __ZN7sc_core19scmti_delete_moduleEPv
605b8344 T __ZN7sc_core15scmti_bind_nameEPvPc
605b8428 T __ZN7sc_core32scmti_get_primitive_channel_typeEPvPS0_
605b84f8 T __ZN7sc_core33scmti_fanout_to_primitive_channelEPvS0_
605b85d8 T __ZN7sc_core33scmti_set_primitive_channel_valueEPvS0_i
605b86bc T __ZN7sc_core33scmti_get_primitive_channel_valueEPvPS0_i
605b8790 T __ZN7sc_core35scmti_get_qthread_top_stack_pointerEPv
605b8864 T __ZN7sc_core28scmti_execute_thread_processEPv
605b8928 t __ZN7sc_core11mti_sc_mainEPFiiPPcE
605b8960 T __ZN7sc_core27scmti_wakeup_systemc_threadEPvS0_i
605b89a0 T __ZN7sc_core21scmti_get_object_nameEPv
605b8a6c T __ZN7sc_core33scmti_delete_module_dynalloc_listEv
605b8b28 T __ZN7sc_core21scmti_is_valid_exportEPv
605b8c64 T __ZN7sc_core25scmti_trigger_clock_eventEPv
605b8d30 T __ZN7sc_core19scmti_trigger_eventEPv
605b8dfc T __ZN7sc_core16scmti_initializeEv
605b8ecc T __ZN7sc_core24scmti_load_mti_func_trayEv
605b90f8 T __ZN7sc_core28scmti_execute_method_processEPv
605b92d0 T __ZN7sc_core27scmti_execute_switch_threadEPvS0_
605b93ec T __ZN7sc_core28scmti_disable_systemc_threadEPv
605b9414 T __ZN7sc_core34scmti_execute_method_debug_processEPv
605b953c T __ZN7sc_core30scmti_update_primitive_channelEPv
605b9610 T __ZN7sc_core21scmti_execute_sc_mainEPvij
605b9bf0 T __ZN7sc_core19scmti_is_valid_portEPv
605b9d2c T __ZN7sc_core27scmti_is_valid_prim_channelEPv
605b9e68 T __ZN7sc_core21scmti_is_valid_moduleEPv
605b9fa4 T __ZN7sc_core30scmti_set_property_for_ini_varEPvi
605ba0f8 T __ZN7sc_core33scmti_set_incr_default_stack_sizeEv
605ba158 T __ZN7sc_core26scmti_block_systemc_threadEPv
605ba3fc T __ZN7sc_core17scmti_trace_cycleEi
605ba534 T __ZN7sc_core28scmti_call_end_of_simulationEv
605ba64c T __ZN7sc_core30scmti_call_prepare_to_simulateEv
605ba770 t .text
605ba770 T __ZN7sc_core13sc_plist_baseC2Ev
605ba788 T __ZN7sc_core13sc_plist_baseC1Ev
605ba7a0 T __ZNK7sc_core13sc_plist_base4sizeEv
605ba7c4 T __ZNK7sc_core13sc_plist_base3getEPNS_13sc_plist_elemE
605ba7d0 T __ZN7sc_core13sc_plist_base3setEPNS_13sc_plist_elemEPv
605ba7e0 T __ZN7sc_core13sc_plist_base6mapcarEPFvPvS1_ES1_
605ba814 T __ZN7sc_core18sc_plist_base_iterC2EPNS_13sc_plist_baseEb
605ba838 T __ZN7sc_core18sc_plist_base_iterC1EPNS_13sc_plist_baseEb
605ba85c T __ZN7sc_core18sc_plist_base_iter5resetEPNS_13sc_plist_baseEb
605ba880 T __ZN7sc_core18sc_plist_base_iterD2Ev
605ba888 T __ZN7sc_core18sc_plist_base_iterD1Ev
605ba890 T __ZNK7sc_core18sc_plist_base_iter5emptyEv
605ba8a4 T __ZN7sc_core18sc_plist_base_iterppEi
605ba8b8 T __ZN7sc_core18sc_plist_base_itermmEi
605ba8cc T __ZNK7sc_core18sc_plist_base_iter3getEv
605ba8dc T __ZN7sc_core18sc_plist_base_iter3setEPv
605ba8ec T __ZN7sc_core18sc_plist_base_iter10set_handleEPNS_13sc_plist_elemE
605ba8fc t __Z41__static_initialization_and_destruction_0ii
605ba930 t __GLOBAL__I__ZN7sc_core13sc_plist_baseC2Ev
605ba940 t ___tcf_0
605ba958 T __ZNK7sc_core13sc_plist_base4backEv
605ba990 T __ZNK7sc_core13sc_plist_base5frontEv
605ba9c8 T __ZN7sc_core13sc_plist_base9pop_frontEv
605baa10 T __ZN7sc_core13sc_plist_base8pop_backEv
605baa58 T __ZN7sc_core13sc_plist_base6removeEPNS_13sc_plist_elemE
605baaac T __ZN7sc_core18sc_plist_base_iter6removeEi
605baae0 T __ZN7sc_core18sc_plist_base_iter6removeEv
605bab08 T __ZN7sc_core13sc_plist_base10push_frontEPv
605bab50 T __ZN7sc_core13sc_plist_base9push_backEPv
605bab98 T __ZN7sc_core13sc_plist_base13insert_beforeEPNS_13sc_plist_elemEPv
605babe0 T __ZN7sc_core13sc_plist_baseD2Ev
605bac10 T __ZN7sc_core13sc_plist_base9erase_allEv
605bac4c T __ZN7sc_core13sc_plist_baseD1Ev
605bac7c T __ZN7sc_core13sc_plist_base12insert_afterEPNS_13sc_plist_elemEPv
605bacd0 t .text
605bacd0 t __Z41__static_initialization_and_destruction_0ii
605bad10 t __GLOBAL__I__ZN7sc_core8sc_reset16notify_processesEv
605bad20 t ___tcf_0
605bad38 T __ZN7sc_core8sc_reset16notify_processesEv
605bad98 T __ZN7sc_core8sc_reset16reconcile_resetsEv
605baf54 T __ZN7sc_core8sc_reset14remove_processEPNS_12sc_process_bE
605baffc T __ZN7sc_core8sc_reset15reset_signal_isEbRKNS_15sc_signal_in_ifIbEEb
605bb128 T __ZN7sc_core8sc_reset15reset_signal_isEbRKNS_6sc_outIbEEb
605bb260 T __ZN7sc_core8sc_reset15reset_signal_isEbRKNS_8sc_inoutIbEEb
605bb398 T __ZN7sc_core8sc_reset15reset_signal_isEbRKNS_5sc_inIbEEb
605bb4d0 t .text
605bb4d0 t __Z41__static_initialization_and_destruction_0ii
605bb510 t __GLOBAL__I__ZN7sc_core18sc_cthread_process15dont_initializeEb
605bb520 t ___tcf_0
605bb538 T __ZN7sc_core18sc_cthread_processD0Ev
605bb560 T __ZN7sc_core18sc_cthread_processD1Ev
605bb574 T __ZN7sc_core18sc_cthread_processD2Ev
605bb588 T __ZN7sc_core18sc_cthread_processC1EPKcbMNS_15sc_process_hostEFvvEPS3_PKNS_16sc_spawn_optionsE
605bb5c8 T __ZN7sc_core18sc_cthread_processC2EPKcbMNS_15sc_process_hostEFvvEPS3_PKNS_16sc_spawn_optionsE
605bb608 T __ZN7sc_core18sc_cthread_process15dont_initializeEb
605bb630 t .text
605bb630 T __ZN7sc_core23sc_method_debug_process14cleanup_threadEv
605bb680 t __Z41__static_initialization_and_destruction_0ii
605bb6c0 t __GLOBAL__I__ZN7sc_core16sc_method_cor_fnEPv
605bb6d0 t ___tcf_0
605bb6e8 T __ZN7sc_core17sc_method_process16check_for_throwsEv
605bb768 T __ZN7sc_core17sc_method_processD2Ev
605bb7d0 T __ZN7sc_core23sc_method_debug_processD0Ev
605bb814 T __ZN7sc_core23sc_method_debug_processD1Ev
605bb850 T __ZN7sc_core23sc_method_debug_processD2Ev
605bb88c T __ZN7sc_core17sc_method_processC1EPKcbMNS_15sc_process_hostEFvvEPS3_PKNS_16sc_spawn_optionsEi
605bb8e4 T __ZN7sc_core17sc_method_processC2EPKcbMNS_15sc_process_hostEFvvEPS3_PKNS_16sc_spawn_optionsEi
605bb93c T __ZN7sc_core17sc_method_processD0Ev
605bb9ac T __ZN7sc_core17sc_method_processD1Ev
605bba14 T __ZN7sc_core23sc_method_debug_process22prepare_for_simulationEv
605bba78 T __ZN7sc_core23sc_method_debug_process10suspend_meEv
605bbad8 T __ZN7sc_core17sc_method_process14enable_processENS_28sc_descendant_inclusion_infoE
605bbb94 T __ZN7sc_core17sc_method_process13clear_triggerEv
605bbd30 T __ZN7sc_core17sc_method_processC1EPKcbMNS_15sc_process_hostEFvvEPS3_PKNS_16sc_spawn_optionsE
605bbf64 T __ZN7sc_core17sc_method_process15suspend_processENS_28sc_descendant_inclusion_infoE
605bc0d4 T __ZN7sc_core17sc_method_process10throw_userERKNS_18sc_throw_it_helperENS_28sc_descendant_inclusion_infoE
605bc2a0 T __ZN7sc_core17sc_method_processC2EPKcbMNS_15sc_process_hostEFvvEPS3_PKNS_16sc_spawn_optionsE
605bc4d4 T __ZN7sc_core17sc_method_process15disable_processENS_28sc_descendant_inclusion_infoE
605bc604 T __ZN7sc_core23sc_method_debug_processC1EPKcbMNS_15sc_process_hostEFvvEPS3_PKNS_16sc_spawn_optionsE
605bc844 T __ZN7sc_core23sc_method_debug_processC2EPKcbMNS_15sc_process_hostEFvvEPS3_PKNS_16sc_spawn_optionsE
605bca84 T __ZN7sc_core17sc_method_process12kill_processENS_28sc_descendant_inclusion_infoE
605bcd18 T __ZN7sc_core16sc_method_cor_fnEPv
605bd070 T __ZN7sc_core17sc_method_process15trigger_dynamicEPNS_8sc_eventEi
605bd378 T __ZN7sc_core17sc_method_process14resume_processENS_28sc_descendant_inclusion_infoE
605bd50c T __ZN7sc_core17sc_method_process11throw_resetEb
605bd640 t .text
605bd640 t __Z41__static_initialization_and_destruction_0ii
605bd680 t __GLOBAL__I__ZN7sc_core17warn_cthread_waitEv
605bd690 t ___tcf_0
605bd6a8 T __ZN7sc_core17warn_cthread_waitEv
605bd6e4 T __ZN7sc_core15sc_set_locationEPKciPNS_13sc_simcontextE
605bd6fc T __ZN7sc_core9timed_outEPNS_13sc_simcontextE
605bd744 T __ZN7sc_core12next_triggerERKNS_17sc_event_and_listEPNS_13sc_simcontextE
605bd7b8 T __ZN7sc_core12next_triggerERKNS_16sc_event_or_listEPNS_13sc_simcontextE
605bd824 T __ZN7sc_core12next_triggerEPNS_13sc_simcontextE
605bd86c T __ZN7sc_core12next_triggerERKNS_8sc_eventEPNS_13sc_simcontextE
605bd8f0 T __ZN7sc_core12next_triggerERKNS_7sc_timeERKNS_16sc_event_or_listEPNS_13sc_simcontextE
605bda1c T __ZN7sc_core12next_triggerERKNS_7sc_timeERKNS_8sc_eventEPNS_13sc_simcontextE
605bdb64 T __ZN7sc_core12next_triggerERKNS_7sc_timeEPNS_13sc_simcontextE
605bdc74 T __ZN7sc_core12next_triggerERKNS_7sc_timeERKNS_17sc_event_and_listEPNS_13sc_simcontextE
605bdda4 T __ZN7sc_core4waitERKNS_8sc_eventEPNS_13sc_simcontextE
605be300 T __ZN7sc_core4waitERKNS_7sc_timeERKNS_8sc_eventEPNS_13sc_simcontextE
605be9e0 T __ZN7sc_core4waitERKNS_7sc_timeEPNS_13sc_simcontextE
605bf114 T __ZN7sc_core4waitERKNS_17sc_event_and_listEPNS_13sc_simcontextE
605bf64c T __ZN7sc_core4waitERKNS_16sc_event_or_listEPNS_13sc_simcontextE
605bfb9c T __ZN7sc_core4waitERKNS_7sc_timeERKNS_17sc_event_and_listEPNS_13sc_simcontextE
605c024c T __ZN7sc_core4waitERKNS_7sc_timeERKNS_16sc_event_or_listEPNS_13sc_simcontextE
605c08f0 T __ZN7sc_core4waitEPNS_13sc_simcontextE
605c0c70 t .text
605c0c70 T __ZN7sc_core9sc_report4swapERS0_
605c0cec T __ZNK7sc_core9sc_report6get_idEv
605c0d08 t __Z41__static_initialization_and_destruction_0ii
605c0d48 t __GLOBAL__I__ZN7sc_core9sc_reportC2Ev
605c0d58 t ___tcf_5
605c0d70 t __ZN7sc_core15severity_stringENS_11sc_severityE
605c1008 T __ZN7sc_core9sc_reportD0Ev
605c1080 T __ZN7sc_core9sc_reportD1Ev
605c10ec T __ZN7sc_core9sc_reportD2Ev
605c1158 t __ZN7sc_core24sc_deprecated_report_idsEPKc
605c127c T __ZN7sc_core9sc_report20make_warnings_errorsEb
605c12a0 T __ZN7sc_core9sc_report17suppress_warningsEb
605c12cc T __ZN7sc_core9sc_report14suppress_infosEb
605c12f8 T __ZN7sc_core9sc_report11suppress_idEib
605c132c T __ZN7sc_core9sc_report13is_suppressedEi
605c1358 T __ZN7sc_core9sc_report11get_messageEi
605c1384 T __ZN7sc_core9sc_report11register_idEiPKc
605c14a0 t ___tcf_4
605c1504 t ___tcf_3
605c1568 t ___tcf_2
605c15cc t ___tcf_1
605c1630 t ___tcf_0
605c1694 T __ZN7sc_core9sc_reportC1ENS_11sc_severityEPKcS3_S3_iNS_7sc_timeES3_
605c1810 T __ZN7sc_core9sc_reportC2Ev
605c18f4 T __ZN7sc_core9sc_reportC1Ev
605c19d8 T __ZN7sc_core9sc_reportC2ENS_11sc_severityEPKcS3_S3_iNS_7sc_timeES3_
605c1b54 T __ZNK7sc_core9sc_report12get_msg_typeEv
605c1b70 T __ZNK7sc_core9sc_reportcvPKcEv
605c1d94 T __ZNK7sc_core9sc_report5printERSoii
605c1fe4 T __ZN7sc_core9sc_reportC1ERKS0_
605c213c T __ZN7sc_core9sc_reportaSERKS0_
605c216c T __ZN7sc_core9sc_reportC2ERKS0_
605c22c4 T __ZN7sc_core9sc_reportC1ENS_11sc_severityEPKNS_10sc_msg_defEPKcS6_ii
605c26bc T __ZN7sc_core17sc_report_handler6reportENS_11sc_severityEiPKcS3_i
605c27ac T __ZN7sc_core9sc_reportC2ENS_11sc_severityEPKNS_10sc_msg_defEPKcS6_ii
605c2bb0 t .text
605c2bb0 T __ZN7sc_core9sc_cor_qt13stack_protectEb
605c2bb8 T _sc_cor_qt_wrapper
605c2bcc T _sc_cor_qt_yieldhelp
605c2bdc T _sc_cor_qt_aborthelp
605c2be4 T __ZN7sc_core13sc_cor_pkg_qt8get_mainEv
605c2bf0 T __ZN7sc_core13sc_cor_pkg_qtD1Ev
605c2c20 t __Z41__static_initialization_and_destruction_0ii
605c2ca8 t __GLOBAL__I__ZN7sc_core9sc_cor_qt13stack_protectEb
605c2cbc t ___tcf_0
605c2cd4 T __ZN7sc_core13sc_cor_pkg_qt5abortEPNS_6sc_corE
605c2d00 T __ZN7sc_core13sc_cor_pkg_qt5yieldEPNS_6sc_corE
605c2d2c T __ZN7sc_core13sc_cor_pkg_qtC2EPNS_13sc_simcontextE
605c2d9c T __ZN7sc_core13sc_cor_pkg_qt6createEjPFvPvES1_
605c2e40 T __ZN7sc_core13sc_cor_pkg_qtC1EPNS_13sc_simcontextE
605c2eac T __ZN7sc_core13sc_cor_pkg_qtD2Ev
605c2edc T __ZN7sc_core13sc_cor_pkg_qtD0Ev
605c2f10 t ___tcf_1
605c2f50 t .text
605c2f50 T __ZN7sc_core11sc_ppq_base7heapifyEi
605c2ff4 T __ZN7sc_core11sc_ppq_baseC1EiPFiPKvS2_E
605c3058 T __ZN7sc_core11sc_ppq_baseC2EiPFiPKvS2_E
605c30bc T __ZN7sc_core11sc_ppq_baseD1Ev
605c30d8 T __ZN7sc_core11sc_ppq_baseD2Ev
605c30f4 T __ZN7sc_core11sc_ppq_base11extract_topEv
605c313c T __ZN7sc_core11sc_ppq_base6insertEPv
605c3220 t .text
605c3220 T __ZNK5sc_dt8sc_fxnum13lock_observerEv
605c3234 T __ZNK5sc_dt8sc_fxnum15unlock_observerEPNS_17sc_fxnum_observerE
605c3244 T __ZNK5sc_dt13sc_fxnum_fast7get_bitEi
605c3318 T __ZNK5sc_dt20sc_fxnum_fast_bitref3getEv
605c3330 T __ZNK5sc_dt13sc_fxnum_fast13lock_observerEv
605c3344 T __ZNK5sc_dt13sc_fxnum_fast15unlock_observerEPNS_22sc_fxnum_fast_observerE
605c3354 T __ZN5sc_dt8sc_fxnum18mti_get_value_sizeEPiS1_S1_
605c3378 T __ZN5sc_dt13sc_fxnum_fast18mti_get_value_sizeEPiS1_S1_
605c339c t __Z41__static_initialization_and_destruction_0ii
605c33dc t __GLOBAL__I__ZNK5sc_dt15sc_fxnum_bitref3getEv
605c33ec t ___tcf_0
605c3404 T __ZN5sc_dt15sc_fxnum_subref3setEv
605c342c T __ZNK5sc_dt15sc_fxnum_subref3getEv
605c3454 T __ZNK5sc_dt15sc_fxnum_bitref3getEv
605c3470 T __ZNK5sc_dt15sc_fxnum_bitref5printERSo
605c3498 T __ZNK5sc_dt8sc_fxnum6to_hexEv
605c34dc T __ZNK5sc_dt8sc_fxnum9to_stringEv
605c3520 T __ZNK5sc_dt8sc_fxnum6to_octEv
605c3564 T __ZNK5sc_dt8sc_fxnum6to_binEv
605c35a8 T __ZNK5sc_dt8sc_fxnum6to_decEv
605c35ec T __ZNK5sc_dt8sc_fxnum9to_stringENS_9sc_numrepEbNS_6sc_fmtE
605c3634 T __ZNK5sc_dt8sc_fxnum9to_stringENS_9sc_numrepENS_6sc_fmtE
605c3678 T __ZNK5sc_dt8sc_fxnum9to_stringENS_6sc_fmtE
605c36bc T __ZNK5sc_dt8sc_fxnum9to_stringENS_9sc_numrepEb
605c3704 T __ZNK5sc_dt8sc_fxnum9to_stringENS_9sc_numrepE
605c3748 T __ZNK5sc_dt13sc_fxnum_fast9to_stringEv
605c3798 T __ZNK5sc_dt13sc_fxnum_fast6to_hexEv
605c37e8 T __ZNK5sc_dt13sc_fxnum_fast6to_octEv
605c3838 T __ZNK5sc_dt13sc_fxnum_fast6to_binEv
605c3888 T __ZNK5sc_dt13sc_fxnum_fast6to_decEv
605c38d8 T __ZNK5sc_dt13sc_fxnum_fast9to_stringENS_9sc_numrepEbNS_6sc_fmtE
605c392c T __ZNK5sc_dt13sc_fxnum_fast9to_stringENS_9sc_numrepENS_6sc_fmtE
605c3980 T __ZNK5sc_dt13sc_fxnum_fast9to_stringENS_6sc_fmtE
605c39d0 T __ZNK5sc_dt13sc_fxnum_fast9to_stringENS_9sc_numrepEb
605c3a24 T __ZNK5sc_dt13sc_fxnum_fast9to_stringENS_9sc_numrepE
605c3a74 T __ZN5sc_dt8sc_fxnum13mti_set_valueEPv
605c3ae0 T __ZN5sc_dt8sc_fxnum13mti_get_valueEv
605c3ba4 T __ZN5sc_dt13sc_fxnum_fast13mti_get_valueEv
605c3c68 T __ZN5sc_dt8sc_fxnum18mti_get_value_typeEv
605c3ca8 T __ZN5sc_dt13sc_fxnum_fast18mti_get_value_typeEv
605c3ce8 T __ZNK5sc_dt8sc_fxnum17mti_get_dpi_valueEPv
605c3d74 T __ZNK5sc_dt13sc_fxnum_fast17mti_get_dpi_valueEPv
605c3e00 T __ZNK5sc_dt13sc_fxnum_fast9get_sliceEiiRNS_10sc_bv_baseE
605c3f78 T __ZNK5sc_dt20sc_fxnum_fast_subref3getEv
605c3f94 T __ZNK5sc_dt20sc_fxnum_fast_bitref5printERSo
605c3fbc T __ZN5sc_dt15sc_fxnum_bitref3setEb
605c3ff8 T __ZN5sc_dt15sc_fxnum_bitref4scanERSi
605c4020 T __ZN5sc_dt8sc_fxnum17mti_set_dpi_valueEPv
605c408c T __ZN5sc_dt8sc_fxnum4scanERSi
605c42d8 T __ZN5sc_dt13sc_fxnum_fast4castEv
605c4ce4 T __ZN5sc_dt13sc_fxnum_fast4scanERSi
605c4dcc T __ZN5sc_dt13sc_fxnum_fast9set_sliceEiiRKNS_10sc_bv_baseE
605c5238 T __ZN5sc_dt20sc_fxnum_fast_subref3setEv
605c5258 T __ZN5sc_dt20sc_fxnum_fast_subref4scanERSi
605c5340 T __ZN5sc_dt13sc_fxnum_fast7set_bitEib
605c56fc T __ZN5sc_dt13sc_fxnum_fast17mti_set_dpi_valueEPv
605c574c T __ZN5sc_dt13sc_fxnum_fast13mti_set_valueEPv
605c57a0 T __ZN5sc_dt20sc_fxnum_fast_bitref3setEb
605c57c0 T __ZN5sc_dt20sc_fxnum_fast_bitref4scanERSi
605c57e8 T __ZNK5sc_dt20sc_fxnum_fast_subref5printERSo
605c5814 T __ZNK5sc_dt15sc_fxnum_subref5printERSo
605c5844 T __ZN5sc_dt15sc_fxnum_subref4scanERSi
605c592c T __ZNK5sc_dt13sc_fxnum_fast5printERSo
605c59a8 T __ZNK5sc_dt8sc_fxnum4dumpERSo
605c5bf8 T __ZNK5sc_dt15sc_fxnum_bitref4dumpERSo
605c5c90 T __ZNK5sc_dt8sc_fxnum5printERSo
605c5cfc T __ZNK5sc_dt15sc_fxnum_subref4dumpERSo
605c5dbc T __ZNK5sc_dt13sc_fxnum_fast4dumpERSo
605c601c T __ZNK5sc_dt20sc_fxnum_fast_subref4dumpERSo
605c60dc T __ZNK5sc_dt20sc_fxnum_fast_bitref4dumpERSo
605c6180 t .text
605c6180 t __Z41__static_initialization_and_destruction_0ii
605c61c0 t __GLOBAL__I__ZN5sc_dt8mask_intE
605c61d0 t ___tcf_0
605c61f0 t .text
605c61f0 T __ZThn4_NK5sc_dt11sc_unsigned15concat_get_ctrlEPji
605c61f8 T __ZNK5sc_dt11sc_unsigned15concat_get_ctrlEPji
605c6288 T __ZThn4_NK5sc_dt11sc_unsigned15concat_get_dataEPji
605c6290 T __ZNK5sc_dt11sc_unsigned15concat_get_dataEPji
605c67b8 T __ZThn4_NK5sc_dt11sc_unsigned17concat_get_uint64Ev
605c67c0 T __ZNK5sc_dt11sc_unsigned17concat_get_uint64Ev
605c6834 T __ZNK5sc_dt11sc_unsigned10and_reduceEv
605c68b4 T __ZNK5sc_dt11sc_unsigned9or_reduceEv
605c68c8 T __ZNK5sc_dt11sc_unsigned8to_int64Ev
605c6944 T __ZNK5sc_dt11sc_unsigned7to_longEv
605c69a0 T __ZNK5sc_dt11sc_unsigned6to_intEv
605c69fc T __ZNK5sc_dt11sc_unsigned9to_doubleEv
605c6a64 T __ZNK5sc_dt11sc_unsigned16check_if_outsideEi
605c6a88 T __ZN5sc_dt11sc_unsigned10initializeEv
605c6a94 t ___tcf_4
605c6afc t ___tcf_3
605c6b64 t ___tcf_2
605c6bd4 t ___tcf_1
605c6bf4 T __ZNK5sc_dt11sc_unsigned4testEi
605c6cf4 T __ZNK5sc_dt20sc_unsigned_bitref_rcoEv
605c6d10 T __ZNK5sc_dt20sc_unsigned_bitref_rntEv
605c6d2c T __ZNK5sc_dt20sc_unsigned_bitref_rcvyEv
605c6d48 T __ZNK5sc_dt11sc_unsigned10xor_reduceEv
605c6d98 T __ZNK5sc_dt11sc_unsigned9to_uint64Ev
605c6f5c t ___tcf_0
605c6f74 T __ZN5sc_dt11sc_unsigneddVEx
605c70b8 T __ZN5sc_dt11sc_unsignedmLEy
605c717c T __ZN5sc_dt11sc_unsignedmLEx
605c7280 T __ZNK5sc_dt11sc_unsigned13invalid_rangeEii
605c72d0 T __ZNK5sc_dt11sc_unsigned13invalid_indexEi
605c731c T __ZN5sc_dt11sc_unsignedmLERKNS_12sc_uint_baseE
605c7338 T __ZN5sc_dt11sc_unsigneddVERKNS_11sc_int_baseE
605c7354 T __ZN5sc_dt11sc_unsignedmLERKNS_11sc_int_baseE
605c7370 T __ZN5sc_dt11sc_unsigned6resizeEi
605c73f8 T __ZN5sc_dt11sc_unsigned18mti_get_value_typeEv
605c7410 T __ZN5sc_dt11sc_unsigned18mti_get_value_sizeEPiS1_S1_
605c7434 T __ZN5sc_dt11sc_unsignedmLERKNS_9sc_signedE
605c74a8 T __ZN5sc_dt11sc_unsignedmLERKS0_
605c751c T __ZN5sc_dt11sc_unsignedmLEl
605c75e8 T __ZN5sc_dt11sc_unsigneddVEl
605c76ec T __ZN5sc_dt11sc_unsignedmLEm
605c77a0 T __ZNK5sc_dt11sc_unsigned14get_packed_repEPj
605c7950 T __ZNK5sc_dt11sc_unsigned6iszeroEv
605c7a3c T __ZN5sc_dt11sc_unsignedrMEx
605c7b5c T __ZN5sc_dt11sc_unsignedrMERKNS_11sc_int_baseE
605c7b78 T __ZN5sc_dt11sc_unsignedrMEl
605c7c6c T __ZN5sc_dt11sc_unsignedaNERKS0_
605c7d30 T __ZN5sc_dt11sc_unsignedaSEm
605c7e68 T __ZN5sc_dt11sc_unsignedrMEy
605c7f5c T __ZN5sc_dt11sc_unsignedrMERKNS_12sc_uint_baseE
605c7f78 T __ZN5sc_dt11sc_unsigneddVEy
605c8070 T __ZN5sc_dt11sc_unsigneddVERKNS_12sc_uint_baseE
605c808c T __ZN5sc_dt11sc_unsignedrMEm
605c8130 T __ZN5sc_dt11sc_unsigneddVEm
605c820c T __ZN5sc_dt11sc_unsignedaSERKNS_9sc_signedE
605c833c T __ZN5sc_dt11sc_unsignedaSERKS0_
605c848c T __ZNK5sc_dt11sc_unsigned7to_uintEv
605c85c8 T __ZNK5sc_dt11sc_unsigned8to_ulongEv
605c8704 T __ZN5sc_dt16compare_unsignedEciiPKjciiS1_cc
605c89d8 T __ZN5sc_dtltEmRKNS_11sc_unsignedE
605c8a64 T __ZN5sc_dtgeEmRKNS_11sc_unsignedE
605c8a80 T __ZN5sc_dtltERKNS_11sc_unsignedEm
605c8b0c T __ZN5sc_dtgeERKNS_11sc_unsignedEm
605c8b28 T __ZN5sc_dtltElRKNS_11sc_unsignedE
605c8bc8 T __ZN5sc_dtgeElRKNS_11sc_unsignedE
605c8be4 T __ZN5sc_dtltERKNS_11sc_unsignedEl
605c8c80 T __ZN5sc_dtgeERKNS_11sc_unsignedEl
605c8c9c T __ZN5sc_dtltEyRKNS_11sc_unsignedE
605c8d34 T __ZN5sc_dtgeEyRKNS_11sc_unsignedE
605c8d50 T __ZN5sc_dtgeERKNS_12sc_uint_baseERKNS_11sc_unsignedE
605c8d6c T __ZN5sc_dtltERKNS_12sc_uint_baseERKNS_11sc_unsignedE
605c8d88 T __ZN5sc_dtltERKNS_11sc_unsignedEy
605c8e20 T __ZN5sc_dtgeERKNS_11sc_unsignedEy
605c8e3c T __ZN5sc_dtgeERKNS_11sc_unsignedERKNS_12sc_uint_baseE
605c8e58 T __ZN5sc_dtltERKNS_11sc_unsignedERKNS_12sc_uint_baseE
605c8e74 T __ZN5sc_dtltExRKNS_11sc_unsignedE
605c8f28 T __ZN5sc_dtgeExRKNS_11sc_unsignedE
605c8f44 T __ZN5sc_dtgeERKNS_11sc_int_baseERKNS_11sc_unsignedE
605c8f60 T __ZN5sc_dtltERKNS_11sc_int_baseERKNS_11sc_unsignedE
605c8f7c T __ZN5sc_dtltERKNS_11sc_unsignedEx
605c902c T __ZN5sc_dtgeERKNS_11sc_unsignedEx
605c9048 T __ZN5sc_dtgeERKNS_11sc_unsignedERKNS_11sc_int_baseE
605c9064 T __ZN5sc_dtltERKNS_11sc_unsignedERKNS_11sc_int_baseE
605c9080 T __ZN5sc_dtltERKNS_9sc_signedERKNS_11sc_unsignedE
605c90cc T __ZN5sc_dtgeERKNS_9sc_signedERKNS_11sc_unsignedE
605c90e8 T __ZN5sc_dtltERKNS_11sc_unsignedERKNS_9sc_signedE
605c9130 T __ZN5sc_dtgeERKNS_11sc_unsignedERKNS_9sc_signedE
605c914c T __ZN5sc_dtltERKNS_11sc_unsignedES2_
605c9190 T __ZN5sc_dtgeERKNS_11sc_unsignedES2_
605c91ac T __ZN5sc_dteqEmRKNS_11sc_unsignedE
605c9240 T __ZN5sc_dtleEmRKNS_11sc_unsignedE
605c9280 T __ZN5sc_dtgtEmRKNS_11sc_unsignedE
605c929c T __ZN5sc_dtneEmRKNS_11sc_unsignedE
605c92b8 T __ZN5sc_dteqERKNS_11sc_unsignedEm
605c934c T __ZN5sc_dtleERKNS_11sc_unsignedEm
605c938c T __ZN5sc_dtgtERKNS_11sc_unsignedEm
605c93a8 T __ZN5sc_dtneERKNS_11sc_unsignedEm
605c93c4 T __ZN5sc_dteqElRKNS_11sc_unsignedE
605c9464 T __ZN5sc_dtleElRKNS_11sc_unsignedE
605c94a4 T __ZN5sc_dtgtElRKNS_11sc_unsignedE
605c94c0 T __ZN5sc_dtneElRKNS_11sc_unsignedE
605c94dc T __ZN5sc_dteqERKNS_11sc_unsignedEl
605c957c T __ZN5sc_dtleERKNS_11sc_unsignedEl
605c95bc T __ZN5sc_dtgtERKNS_11sc_unsignedEl
605c95d8 T __ZN5sc_dtneERKNS_11sc_unsignedEl
605c95f4 T __ZN5sc_dteqEyRKNS_11sc_unsignedE
605c9694 T __ZN5sc_dtleEyRKNS_11sc_unsignedE
605c96dc T __ZN5sc_dtgtEyRKNS_11sc_unsignedE
605c96f8 T __ZN5sc_dtgtERKNS_12sc_uint_baseERKNS_11sc_unsignedE
605c9714 T __ZN5sc_dtleERKNS_12sc_uint_baseERKNS_11sc_unsignedE
605c9730 T __ZN5sc_dtneEyRKNS_11sc_unsignedE
605c974c T __ZN5sc_dtneERKNS_12sc_uint_baseERKNS_11sc_unsignedE
605c9768 T __ZN5sc_dteqERKNS_12sc_uint_baseERKNS_11sc_unsignedE
605c9784 T __ZN5sc_dteqERKNS_11sc_unsignedEy
605c9824 T __ZN5sc_dtleERKNS_11sc_unsignedEy
605c986c T __ZN5sc_dtgtERKNS_11sc_unsignedEy
605c9888 T __ZN5sc_dtgtERKNS_11sc_unsignedERKNS_12sc_uint_baseE
605c98a4 T __ZN5sc_dtleERKNS_11sc_unsignedERKNS_12sc_uint_baseE
605c98c0 T __ZN5sc_dtneERKNS_11sc_unsignedEy
605c98dc T __ZN5sc_dtneERKNS_11sc_unsignedERKNS_12sc_uint_baseE
605c98f8 T __ZN5sc_dteqERKNS_11sc_unsignedERKNS_12sc_uint_baseE
605c9914 T __ZN5sc_dteqExRKNS_11sc_unsignedE
605c99cc T __ZN5sc_dtleExRKNS_11sc_unsignedE
605c9a14 T __ZN5sc_dtgtExRKNS_11sc_unsignedE
605c9a30 T __ZN5sc_dtgtERKNS_11sc_int_baseERKNS_11sc_unsignedE
605c9a4c T __ZN5sc_dtleERKNS_11sc_int_baseERKNS_11sc_unsignedE
605c9a68 T __ZN5sc_dtneExRKNS_11sc_unsignedE
605c9a84 T __ZN5sc_dtneERKNS_11sc_int_baseERKNS_11sc_unsignedE
605c9aa0 T __ZN5sc_dteqERKNS_11sc_int_baseERKNS_11sc_unsignedE
605c9abc T __ZN5sc_dteqERKNS_11sc_unsignedEx
605c9b74 T __ZN5sc_dtleERKNS_11sc_unsignedEx
605c9bbc T __ZN5sc_dtgtERKNS_11sc_unsignedEx
605c9bd8 T __ZN5sc_dtgtERKNS_11sc_unsignedERKNS_11sc_int_baseE
605c9bf4 T __ZN5sc_dtleERKNS_11sc_unsignedERKNS_11sc_int_baseE
605c9c10 T __ZN5sc_dtneERKNS_11sc_unsignedEx
605c9c2c T __ZN5sc_dtneERKNS_11sc_unsignedERKNS_11sc_int_baseE
605c9c48 T __ZN5sc_dteqERKNS_11sc_unsignedERKNS_11sc_int_baseE
605c9c64 T __ZN5sc_dteqERKNS_9sc_signedERKNS_11sc_unsignedE
605c9cb0 T __ZN5sc_dtleERKNS_9sc_signedERKNS_11sc_unsignedE
605c9cf0 T __ZN5sc_dtgtERKNS_9sc_signedERKNS_11sc_unsignedE
605c9d0c T __ZN5sc_dtneERKNS_9sc_signedERKNS_11sc_unsignedE
605c9d28 T __ZN5sc_dteqERKNS_11sc_unsignedERKNS_9sc_signedE
605c9d74 T __ZN5sc_dtleERKNS_11sc_unsignedERKNS_9sc_signedE
605c9db4 T __ZN5sc_dtgtERKNS_11sc_unsignedERKNS_9sc_signedE
605c9dd0 T __ZN5sc_dtneERKNS_11sc_unsignedERKNS_9sc_signedE
605c9dec T __ZN5sc_dteqERKNS_11sc_unsignedES2_
605c9e3c T __ZN5sc_dtleERKNS_11sc_unsignedES2_
605c9e7c T __ZN5sc_dtgtERKNS_11sc_unsignedES2_
605c9e98 T __ZN5sc_dtneERKNS_11sc_unsignedES2_
605c9eb4 T __ZN5sc_dt11sc_unsignedrMERKNS_9sc_signedE
605c9f40 T __ZN5sc_dt11sc_unsignedrMERKS0_
605c9fcc T __ZN5sc_dt11sc_unsigneddVERKNS_9sc_signedE
605ca06c T __ZN5sc_dt11sc_unsigneddVERKS0_
605ca10c T __ZN5sc_dt11sc_unsignedaSEx
605ca278 T __ZN5sc_dt11sc_unsignedaSERKNS_11sc_int_baseE
605ca290 T __ZThn4_N5sc_dt11sc_unsigned10concat_setExi
605ca298 T __ZN5sc_dt11sc_unsigned10concat_setExi
605ca2e4 T __ZN5sc_dt11sc_unsignedaSEl
605ca414 T __ZN5sc_dt11sc_unsignedaSEy
605ca518 T __ZN5sc_dt11sc_unsignedaSERKNS_12sc_uint_baseE
605ca530 T __ZThn4_N5sc_dt11sc_unsigned10concat_setEyi
605ca538 T __ZN5sc_dt11sc_unsigned10concat_setEyi
605ca580 T __ZN5sc_dt11sc_unsignedmIEm
605ca694 T __ZN5sc_dt11sc_unsignedmIEl
605ca7dc T __ZN5sc_dt11sc_unsignedmIEy
605ca944 T __ZN5sc_dt11sc_unsignedmIERKNS_12sc_uint_baseE
605ca960 T __ZN5sc_dt11sc_unsignedmIEx
605caad8 T __ZN5sc_dt11sc_unsignedmIERKNS_11sc_int_baseE
605caaf4 T __ZN5sc_dt11sc_unsignedmIERKNS_9sc_signedE
605caccc T __ZN5sc_dt11sc_unsignedmIERKS0_
605caea4 T __ZN5sc_dt11sc_unsignedpLEm
605cafb4 T __ZN5sc_dt11sc_unsignedpLEl
605cb0f4 T __ZN5sc_dt11sc_unsignedpLEy
605cb250 T __ZN5sc_dt11sc_unsignedpLERKNS_12sc_uint_baseE
605cb26c T __ZN5sc_dt11sc_unsignedpLEx
605cb3d8 T __ZN5sc_dt11sc_unsignedpLERKNS_11sc_int_baseE
605cb3f4 T __ZN5sc_dt11sc_unsignedpLERKNS_9sc_signedE
605cb4e8 T __ZN5sc_dt11sc_unsignedpLERKS0_
605cb5dc T __ZN5sc_dt11sc_unsignedaSEd
605cb758 T __ZN5sc_dt11sc_unsignedC1EciiPjb
605cb854 T __ZN5sc_dtcoERKNS_11sc_unsignedE
605cb930 T __ZN5sc_dt19mul_unsigned_friendEciiPKjiiS1_
605cbae8 T __ZN5sc_dt11sc_unsignedC2EciiPjb
605cbbe4 T __ZN5sc_dt11sc_unsignedC1ERKNS_9sc_signedEc
605cbd84 T __ZThn4_N5sc_dt11sc_unsigned10concat_setERKNS_9sc_signedEi
605cbd8c T __ZN5sc_dt11sc_unsigned10concat_setERKNS_9sc_signedEi
605cbe28 T __ZN5sc_dt11sc_unsignedC2ERKNS_9sc_signedEc
605cbfc8 T __ZN5sc_dt11sc_unsignedC1ERKS0_c
605cc058 T __ZN5sc_dt11sc_unsignedC2ERKS0_c
605cc0e8 T __ZN5sc_dt11sc_unsignedC2ERKNS_16sc_uint_subref_rE
605cc2ec T __ZN5sc_dt11sc_unsignedC1ERKNS_15sc_int_subref_rE
605cc428 T __ZN5sc_dt11sc_unsignedC2ERKNS_15sc_int_subref_rE
605cc564 T __ZN5sc_dt11sc_unsignedC1ERKNS_9sc_signedE
605cc704 T __ZN5sc_dt11sc_unsignedC2ERKNS_9sc_signedE
605cc8a4 T __ZN5sc_dt11sc_unsignedC1ERKS0_
605cc934 T __ZN5sc_dtrsERKNS_11sc_unsignedEm
605ccad4 T __ZN5sc_dtrsERKNS_11sc_unsignedEl
605ccb18 T __ZN5sc_dtrsERKNS_11sc_unsignedEy
605ccb60 T __ZN5sc_dtrsERKNS_11sc_unsignedERKNS_12sc_uint_baseE
605ccb88 T __ZN5sc_dtrsERKNS_11sc_unsignedEx
605ccbd8 T __ZN5sc_dtrsERKNS_11sc_unsignedERKNS_11sc_int_baseE
605ccc00 T __ZN5sc_dtrsERKNS_11sc_unsignedES2_
605ccc48 T __ZN5sc_dtpsERKNS_11sc_unsignedE
605ccc64 T __ZN5sc_dtrsERKNS_11sc_unsignedERKNS_9sc_signedE
605cccb4 T __ZN5sc_dt11sc_unsignedC2ERKS0_
605ccd44 T __ZN5sc_dt11sc_unsignedC1Ei
605cce3c t __Z41__static_initialization_and_destruction_0ii
605cd1f4 t __GLOBAL__I__ZN7sc_core12sc_temp_heapE
605cd208 T __ZN5sc_dt19mod_unsigned_friendEciiPKjiiS1_
605cd76c T __ZN5sc_dt19div_unsigned_friendEciiPKjiiS1_
605cda5c T __ZN5sc_dt19add_unsigned_friendEciiPKjciiS1_
605cddac T __ZN5sc_dtplEmRKNS_11sc_unsignedE
605cde50 T __ZN5sc_dtplERKNS_11sc_unsignedEm
605cdef4 T __ZN5sc_dtplEyRKNS_11sc_unsignedE
605cdff8 T __ZN5sc_dtplERKNS_12sc_uint_baseERKNS_11sc_unsignedE
605ce020 T __ZN5sc_dtplERKNS_11sc_unsignedEy
605ce124 T __ZN5sc_dtplERKNS_11sc_unsignedERKNS_12sc_uint_baseE
605ce14c T __ZN5sc_dtplERKNS_11sc_unsignedES2_
605ce1cc T __ZN5sc_dtrmEmRKNS_11sc_unsignedE
605ce3a8 T __ZN5sc_dtrmERKNS_11sc_unsignedEm
605ce584 T __ZN5sc_dtrmEyRKNS_11sc_unsignedE
605ce7ac T __ZN5sc_dtrmERKNS_12sc_uint_baseERKNS_11sc_unsignedE
605ce7d4 T __ZN5sc_dtrmERKNS_11sc_unsignedEy
605ce9fc T __ZN5sc_dtrmERKNS_11sc_unsignedERKNS_12sc_uint_baseE
605cea24 T __ZN5sc_dtrmERKNS_11sc_unsignedES2_
605cebdc T __ZN5sc_dtdvEmRKNS_11sc_unsignedE
605cede4 T __ZN5sc_dtdvERKNS_11sc_unsignedEm
605cf000 T __ZN5sc_dtdvEyRKNS_11sc_unsignedE
605cf214 T __ZN5sc_dtdvERKNS_12sc_uint_baseERKNS_11sc_unsignedE
605cf23c T __ZN5sc_dtdvERKNS_11sc_unsignedEy
605cf464 T __ZN5sc_dtdvERKNS_11sc_unsignedERKNS_12sc_uint_baseE
605cf48c T __ZN5sc_dtdvERKNS_11sc_unsignedES2_
605cf654 T __ZN5sc_dtmlEmRKNS_11sc_unsignedE
605cf838 T __ZN5sc_dtmlERKNS_11sc_unsignedEm
605cfa1c T __ZN5sc_dtmlEyRKNS_11sc_unsignedE
605cfc0c T __ZN5sc_dtmlERKNS_12sc_uint_baseERKNS_11sc_unsignedE
605cfc34 T __ZN5sc_dtmlERKNS_11sc_unsignedEy
605cfe24 T __ZN5sc_dtmlERKNS_11sc_unsignedERKNS_12sc_uint_baseE
605cfe4c T __ZN5sc_dtmlERKNS_11sc_unsignedES2_
605cffe0 T __ZN5sc_dt11sc_unsignedC2Ei
605d00d8 T __ZN5sc_dt11sc_unsignedC1EPKNS_9sc_signedEii
605d0530 T __ZN5sc_dt11sc_unsignedC2EPKNS_9sc_signedEii
605d0988 T __ZN5sc_dt11sc_unsignedC1EPKS0_ii
605d0dec T __ZNK5sc_dt20sc_unsigned_subref_rcvNS_11sc_unsignedEEv
605d0e14 T __ZN5sc_dt11sc_unsignedC2EPKS0_ii
605d1278 T __ZN5sc_dt11sc_unsigned14set_packed_repEPj
605d13b8 T __ZN5sc_dt11sc_unsigned7reverseEv
605d1480 T __ZN5sc_dt11sc_unsigned5clearEi
605d1568 T __ZN5sc_dt18sc_unsigned_bitrefaNEb
605d158c T __ZN5sc_dt11sc_unsigned3setEi
605d1678 T __ZN5sc_dt18sc_unsigned_bitrefoREb
605d169c T __ZN5sc_dt18sc_unsigned_bitrefeOEb
605d16f8 T __ZN5sc_dt11sc_unsignedrSEm
605d17d4 T __ZN5sc_dt11sc_unsignedrSEl
605d17ec T __ZN5sc_dt11sc_unsignedrSERKS0_
605d181c T __ZN5sc_dt11sc_unsignedrSEy
605d1840 T __ZN5sc_dt11sc_unsignedrSERKNS_12sc_uint_baseE
605d185c T __ZN5sc_dt11sc_unsignedrSEx
605d1888 T __ZN5sc_dt11sc_unsignedrSERKNS_11sc_int_baseE
605d18a4 T __ZN5sc_dt11sc_unsignedrSERKNS_9sc_signedE
605d18e0 T __ZN5sc_dt11sc_unsignedlSEm
605d19ac T __ZN5sc_dt11sc_unsignedlSEl
605d19c4 T __ZN5sc_dt11sc_unsignedlSEy
605d19e8 T __ZN5sc_dt11sc_unsignedlSERKNS_12sc_uint_baseE
605d1a04 T __ZN5sc_dt11sc_unsignedlSEx
605d1a30 T __ZN5sc_dt11sc_unsignedlSERKNS_11sc_int_baseE
605d1a4c T __ZN5sc_dt11sc_unsignedlSERKNS_9sc_signedE
605d1a88 T __ZN5sc_dt11sc_unsignedlSERKS0_
605d1ac0 T __ZN5sc_dt11sc_unsignedeOEm
605d1b98 T __ZN5sc_dt11sc_unsignedeOEl
605d1ca0 T __ZN5sc_dt11sc_unsignedaSERKNS_10sc_lv_baseE
605d1e88 T __ZN5sc_dt11sc_unsignedC1ERKNS_10sc_lv_baseE
605d1f90 T __ZN5sc_dt11sc_unsignedC2ERKNS_10sc_lv_baseE
605d2098 T __ZN5sc_dt11sc_unsignedaSERKNS_10sc_bv_baseE
605d2200 T __ZN5sc_dt11sc_unsignedC1ERKNS_10sc_bv_baseE
605d2304 T __ZN5sc_dt11sc_unsignedC2ERKNS_10sc_bv_baseE
605d2408 T __ZN5sc_dt11sc_unsignedeOEy
605d2534 T __ZN5sc_dt11sc_unsignedeOERKNS_12sc_uint_baseE
605d2550 T __ZN5sc_dt11sc_unsignedeOEx
605d2680 T __ZN5sc_dt11sc_unsignedeOERKNS_11sc_int_baseE
605d269c T __ZN5sc_dt11sc_unsignedeOERKNS_9sc_signedE
605d2740 T __ZN5sc_dt11sc_unsignedeOERKS0_
605d27e4 T __ZN5sc_dt11sc_unsignedoREm
605d28bc T __ZN5sc_dt11sc_unsignedoREl
605d29c4 T __ZN5sc_dt11sc_unsignedoREy
605d2ae4 T __ZN5sc_dt11sc_unsignedoRERKNS_12sc_uint_baseE
605d2b00 T __ZN5sc_dt11sc_unsignedoREx
605d2c30 T __ZN5sc_dt11sc_unsignedoRERKNS_11sc_int_baseE
605d2c4c T __ZN5sc_dt11sc_unsignedoRERKNS_9sc_signedE
605d2cf0 T __ZN5sc_dt11sc_unsignedoRERKS0_
605d2d94 T __ZN5sc_dt11sc_unsignedaNEm
605d2e80 T __ZN5sc_dt11sc_unsignedaNEl
605d2f9c T __ZN5sc_dt11sc_unsignedaNEy
605d30c8 T __ZN5sc_dt11sc_unsignedaNERKNS_12sc_uint_baseE
605d30e4 T __ZN5sc_dt11sc_unsignedaNEx
605d3220 T __ZN5sc_dt11sc_unsignedaNERKNS_11sc_int_baseE
605d323c T __ZN5sc_dt11sc_unsignedaNERKNS_9sc_signedE
605d3300 T __ZN5sc_dt11sc_unsignedC1ERKNS_16sc_uint_subref_rE
605d3504 T __ZNK5sc_dt11sc_unsigned9to_stringENS_9sc_numrepEb
605d36e4 T __ZNK5sc_dt11sc_unsigned17mti_get_dpi_valueEPv
605d380c T __ZN5sc_dt11sc_unsigned13mti_get_valueEv
605d3a04 T __ZNK5sc_dt11sc_unsigned9to_stringENS_9sc_numrepE
605d3bdc T __ZN5sc_dtlsERKNS_11sc_unsignedEm
605d3df8 T __ZN5sc_dtlsERKNS_11sc_unsignedEl
605d3e3c T __ZN5sc_dtlsERKNS_11sc_unsignedEy
605d3e84 T __ZN5sc_dtlsERKNS_11sc_unsignedERKNS_12sc_uint_baseE
605d3eac T __ZN5sc_dtlsERKNS_11sc_unsignedEx
605d3efc T __ZN5sc_dtlsERKNS_11sc_unsignedERKNS_11sc_int_baseE
605d3f24 T __ZN5sc_dtlsERKNS_11sc_unsignedES2_
605d3f74 T __ZN5sc_dtlsERKNS_11sc_unsignedERKNS_9sc_signedE
605d3fc4 T __ZN5sc_dt19xor_unsigned_friendEciiPKjciiS1_
605d4330 T __ZN5sc_dteoEmRKNS_11sc_unsignedE
605d43d4 T __ZN5sc_dteoERKNS_11sc_unsignedEm
605d4478 T __ZN5sc_dteoEyRKNS_11sc_unsignedE
605d457c T __ZN5sc_dteoERKNS_12sc_uint_baseERKNS_11sc_unsignedE
605d45a4 T __ZN5sc_dteoERKNS_11sc_unsignedEy
605d46a8 T __ZN5sc_dteoERKNS_11sc_unsignedERKNS_12sc_uint_baseE
605d46d0 T __ZN5sc_dteoERKNS_11sc_unsignedES2_
605d4750 T __ZN5sc_dt18or_unsigned_friendEciiPKjciiS1_
605d4ab8 T __ZN5sc_dtorEmRKNS_11sc_unsignedE
605d4b5c T __ZN5sc_dtorERKNS_11sc_unsignedEm
605d4c00 T __ZN5sc_dtorEyRKNS_11sc_unsignedE
605d4d04 T __ZN5sc_dtorERKNS_12sc_uint_baseERKNS_11sc_unsignedE
605d4d2c T __ZN5sc_dtorERKNS_11sc_unsignedEy
605d4e30 T __ZN5sc_dtorERKNS_11sc_unsignedERKNS_12sc_uint_baseE
605d4e58 T __ZN5sc_dtorERKNS_11sc_unsignedES2_
605d4ed8 T __ZN5sc_dt19and_unsigned_friendEciiPKjciiS1_
605d5240 T __ZN5sc_dtanEmRKNS_11sc_unsignedE
605d53e8 T __ZN5sc_dtanERKNS_11sc_unsignedEm
605d5594 T __ZN5sc_dtanEyRKNS_11sc_unsignedE
605d5790 T __ZN5sc_dtanERKNS_12sc_uint_baseERKNS_11sc_unsignedE
605d57b8 T __ZN5sc_dtanERKNS_11sc_unsignedEy
605d59b0 T __ZN5sc_dtanERKNS_11sc_unsignedERKNS_12sc_uint_baseE
605d59d8 T __ZN5sc_dtanERKNS_11sc_unsignedES2_
605d5b5c T __ZNK5sc_dt11sc_unsigned4dumpERSo
605d5d68 T __ZN5sc_dt11sc_unsignedmmEi
605d5e24 T __ZN5sc_dt11sc_unsignedmmEv
605d5e84 T __ZN5sc_dt11sc_unsignedppEi
605d5f40 T __ZN5sc_dt11sc_unsignedppEv
605d5fa0 T __ZN5sc_dt18sc_unsigned_bitrefaSERKNS_20sc_unsigned_bitref_rE
605d5fec T __ZN5sc_dt11sc_unsigned17mti_set_dpi_valueEPv
605d6048 T __ZN5sc_dt18sc_unsigned_bitref10concat_setEyi
605d60c4 T __ZN5sc_dt18sc_unsigned_bitref10concat_setERKNS_11sc_unsignedEi
605d6124 T __ZN5sc_dt18sc_unsigned_bitref10concat_setERKNS_9sc_signedEi
605d6184 T __ZN5sc_dt18sc_unsigned_bitref10concat_setExi
605d61fc T __ZN5sc_dt18sc_unsigned_bitrefaSEb
605d6230 T __ZN5sc_dt18sc_unsigned_bitref4scanERSi
605d6254 T __ZN5sc_dt11sc_unsignedaSEPKc
605d667c T __ZN5sc_dt11sc_unsigned4scanERSi
605d6758 T __ZN5sc_dt18sc_unsigned_bitrefaSERKS0_
605d67a4 T __ZN5sc_dt11sc_unsigned13mti_set_valueEPv
605d67e8 T __ZN5sc_dt18sc_unsigned_subref10concat_setEyi
605d68d8 T __ZN5sc_dt18sc_unsigned_subref10concat_setERKNS_11sc_unsignedEi
605d6984 T __ZN5sc_dt18sc_unsigned_subref10concat_setERKNS_9sc_signedEi
605d6a98 T __ZN5sc_dt18sc_unsigned_subref10concat_setExi
605d6ba0 T __ZN5sc_dt18sc_unsigned_subrefaSEd
605d6d20 T __ZN5sc_dt18sc_unsigned_subrefaSEx
605d6d90 T __ZN5sc_dt18sc_unsigned_subrefaSERKNS_11sc_int_baseE
605d6da8 T __ZN5sc_dt18sc_unsigned_subrefaSEy
605d6e14 T __ZN5sc_dt18sc_unsigned_subrefaSERKNS_12sc_uint_baseE
605d6e2c T __ZN5sc_dt18sc_unsigned_subrefaSEl
605d6e7c T __ZN5sc_dt18sc_unsigned_subrefaSEm
605d6ecc T __ZN5sc_dt18sc_unsigned_subrefaSERKNS_9sc_signedE
605d6f54 T __ZN5sc_dt18sc_unsigned_subrefaSERKNS_11sc_unsignedE
605d7000 T __ZN5sc_dt11sc_unsignedC2ERKNS_20sc_unsigned_subref_rE
605d7178 T __ZN5sc_dt11sc_unsignedC1ERKNS_18sc_signed_subref_rE
605d72f0 T __ZN5sc_dt11sc_unsignedC2ERKNS_18sc_signed_subref_rE
605d7468 T __ZThn4_N5sc_dt11sc_unsigned10concat_setERKS0_i
605d7470 T __ZN5sc_dt11sc_unsigned10concat_setERKS0_i
605d74f8 T __ZN5sc_dt18sc_unsigned_subref4scanERSi
605d76ac T __ZN5sc_dt18sc_unsigned_subrefaSERKNS_18sc_signed_subref_rE
605d7758 T __ZNK5sc_dt20sc_unsigned_subref_r9to_doubleEv
605d77c4 T __ZNK5sc_dt20sc_unsigned_subref_r9to_uint64Ev
605d787c T __ZNK5sc_dt20sc_unsigned_subref_r8to_int64Ev
605d78f0 T __ZNK5sc_dt20sc_unsigned_subref_r8to_ulongEv
605d79a0 T __ZNK5sc_dt20sc_unsigned_subref_r7to_longEv
605d7a0c T __ZNK5sc_dt20sc_unsigned_subref_r7to_uintEv
605d7abc T __ZNK5sc_dt20sc_unsigned_subref_r6to_intEv
605d7b28 T __ZNK5sc_dt20sc_unsigned_subref_r15concat_get_dataEPji
605d7b9c T __ZNK5sc_dt20sc_unsigned_subref_r15concat_get_ctrlEPji
605d7c10 T __ZNK5sc_dt20sc_unsigned_subref_r17concat_get_uint64Ev
605d7cc8 T __ZN5sc_dt11sc_unsignedaSERKNS_18sc_signed_subref_rE
605d7d2c T __ZN5sc_dt11sc_unsignedC1ERKNS_20sc_unsigned_subref_rE
605d7ea4 T __ZN5sc_dt18sc_unsigned_subrefaSERKS0_
605d7f60 T __ZN5sc_dt18sc_unsigned_subrefaSERKNS_20sc_unsigned_subref_rE
605d800c T __ZN5sc_dt11sc_unsignedaSERKNS_20sc_unsigned_subref_rE
605d8070 T __ZNK5sc_dt20sc_unsigned_subref_r9to_stringENS_9sc_numrepEb
605d8150 T __ZNK5sc_dt20sc_unsigned_subref_r9to_stringENS_9sc_numrepE
605d8230 t .text
605d8230 T __ZThn4_NK5sc_dt9sc_signed15concat_get_ctrlEPji
605d8238 T __ZNK5sc_dt9sc_signed15concat_get_ctrlEPji
605d82c4 T __ZThn4_NK5sc_dt9sc_signed15concat_get_dataEPji
605d82cc T __ZNK5sc_dt9sc_signed15concat_get_dataEPji
605d87e8 T __ZThn4_NK5sc_dt9sc_signed17concat_get_uint64Ev
605d87f0 T __ZNK5sc_dt9sc_signed17concat_get_uint64Ev
605d8924 T __ZNK5sc_dt9sc_signed10and_reduceEv
605d89dc T __ZNK5sc_dt9sc_signed9or_reduceEv
605d89f0 T __ZNK5sc_dt9sc_signed6iszeroEv
605d8a30 T __ZNK5sc_dt9sc_signed7to_longEv
605d8a8c T __ZNK5sc_dt9sc_signed9to_doubleEv
605d8af4 T __ZNK5sc_dt9sc_signed16check_if_outsideEi
605d8b14 T __ZNK5sc_dt9sc_signed8to_int64Ev
605d8b90 t ___tcf_2
605d8bf8 t ___tcf_1
605d8c60 t __Z41__static_initialization_and_destruction_0ii
605d8dc0 t __GLOBAL__I__ZN5sc_dt16sc_signed_bitref6m_poolE
605d8dd4 T __ZNK5sc_dt9sc_signed4testEi
605d8edc T __ZNK5sc_dt18sc_signed_bitref_rcoEv
605d8ef8 T __ZNK5sc_dt18sc_signed_bitref_rntEv
605d8f14 T __ZNK5sc_dt18sc_signed_bitref_rcvyEv
605d8f30 T __ZNK5sc_dt9sc_signed10xor_reduceEv
605d8f7c t ___tcf_0
605d8f94 T __ZN5sc_dteqERKNS_9sc_signedEx
605d90c0 T __ZN5sc_dtneERKNS_9sc_signedEx
605d90dc T __ZNK5sc_dt18sc_signed_subref_rcvNS_11sc_unsignedEEv
605d9104 T __ZN5sc_dt9sc_signedmLEy
605d91c8 T __ZN5sc_dt9sc_signedmLEx
605d92cc T __ZNK5sc_dt9sc_signed13invalid_rangeEii
605d9318 T __ZNK5sc_dt9sc_signed13invalid_indexEi
605d9360 T __ZN5sc_dtneERKNS_9sc_signedERKNS_11sc_int_baseE
605d937c T __ZN5sc_dteqERKNS_9sc_signedERKNS_11sc_int_baseE
605d9398 T __ZN5sc_dt9sc_signedmLERKNS_11sc_int_baseE
605d93b4 T __ZN5sc_dt9sc_signedmLERKNS_12sc_uint_baseE
605d93d0 T __ZN5sc_dt9sc_signed18mti_get_value_typeEv
605d93e8 T __ZN5sc_dt9sc_signed18mti_get_value_sizeEPiS1_S1_
605d940c T __ZN5sc_dt9sc_signedmLERKS0_
605d9480 T __ZNK5sc_dt9sc_signed6to_intEv
605d94dc T __ZN5sc_dt9sc_signedmLERKNS_11sc_unsignedE
605d9550 T __ZNK5sc_dt9sc_signed9to_uint64Ev
605d9714 T __ZN5sc_dt9sc_signedmLEm
605d97c8 T __ZN5sc_dt9sc_signedmLEl
605d9894 T __ZNK5sc_dt9sc_signed14get_packed_repEPj
605d9a40 T __ZNK5sc_dt9sc_signed4signEv
605d9a94 T __ZN5sc_dt9sc_signedrMEy
605d9b88 T __ZN5sc_dt9sc_signedrMERKNS_12sc_uint_baseE
605d9ba4 T __ZN5sc_dt9sc_signeddVEy
605d9c9c T __ZN5sc_dt9sc_signeddVERKNS_12sc_uint_baseE
605d9cb8 T __ZN5sc_dt9sc_signedrMEm
605d9d5c T __ZN5sc_dt9sc_signeddVEm
605d9e38 T __ZN5sc_dt9sc_signedrMEx
605d9f58 T __ZN5sc_dt9sc_signedrMERKNS_11sc_int_baseE
605d9f74 T __ZN5sc_dt9sc_signeddVEx
605da0b8 T __ZN5sc_dt9sc_signeddVERKNS_11sc_int_baseE
605da0d4 T __ZNK5sc_dt9sc_signed7to_uintEv
605da214 T __ZNK5sc_dt9sc_signed8to_ulongEv
605da354 T __ZN5sc_dt9sc_signedrMEl
605da448 T __ZN5sc_dt9sc_signeddVEl
605da54c T __ZN5sc_dt9sc_signedC1EciiPjb
605da634 T __ZN5sc_dtcoERKNS_9sc_signedE
605da710 T __ZN5sc_dt17mul_signed_friendEciiPKjiiS1_
605da8c8 T __ZN5sc_dt9sc_signedC2EciiPjb
605da9b0 T __ZN5sc_dt9sc_signedC1ERKS0_c
605daa34 T __ZN5sc_dtngERKNS_9sc_signedE
605daa5c T __ZN5sc_dt9sc_signedC2ERKS0_c
605daae0 T __ZN5sc_dt9sc_signedC1ERKS0_
605dab64 T __ZN5sc_dtpsERKNS_9sc_signedE
605dab80 T __ZN5sc_dt9sc_signedC2ERKS0_
605dac04 T __ZN5sc_dt9sc_signedC1Ei
605dacec T __ZN5sc_dtmlERKNS_9sc_signedES2_
605dae80 T __ZN5sc_dt9sc_signedC2Ei
605daf68 T __ZN5sc_dt9sc_signedrMERKNS_11sc_unsignedE
605daff4 T __ZN5sc_dt9sc_signedrMERKS0_
605db080 T __ZN5sc_dt9sc_signeddVERKNS_11sc_unsignedE
605db120 T __ZN5sc_dt9sc_signeddVERKS0_
605db1c0 T __ZNK5sc_dt9sc_signed9to_stringENS_9sc_numrepE
605db398 T __ZNK5sc_dt9sc_signed9to_stringENS_9sc_numrepEb
605db578 T __ZNK5sc_dt9sc_signed17mti_get_dpi_valueEPv
605db6b4 T __ZN5sc_dt9sc_signed13mti_get_valueEv
605db8a0 T __ZNK5sc_dt9sc_signed4dumpERSo
605dbaa8 T __ZN5sc_dtmlERKNS_9sc_signedERKNS_11sc_unsignedE
605dbc34 T __ZN5sc_dtmlERKNS_11sc_unsignedERKNS_9sc_signedE
605dbdc0 T __ZN5sc_dt17mod_signed_friendEciiPKjiiS1_
605dc324 T __ZN5sc_dt17div_signed_friendEciiPKjiiS1_
605dc614 T __ZN5sc_dt17add_signed_friendEciiPKjciiS1_
605dc960 T __ZN5sc_dtmiEmRKNS_9sc_signedE
605dca18 T __ZN5sc_dtmiERKNS_9sc_signedEm
605dcabc T __ZN5sc_dtmiElRKNS_9sc_signedE
605dcbbc T __ZN5sc_dtmiERKNS_9sc_signedEl
605dcca4 T __ZN5sc_dtmiEyRKNS_9sc_signedE
605dcdb4 T __ZN5sc_dtmiERKNS_12sc_uint_baseERKNS_9sc_signedE
605dcddc T __ZN5sc_dtmiERKNS_9sc_signedEy
605dcee0 T __ZN5sc_dtmiERKNS_9sc_signedERKNS_12sc_uint_baseE
605dcf08 T __ZN5sc_dtmiExRKNS_9sc_signedE
605dd034 T __ZN5sc_dtmiERKNS_11sc_int_baseERKNS_9sc_signedE
605dd05c T __ZN5sc_dtmiERKNS_9sc_signedEx
605dd188 T __ZN5sc_dtmiERKNS_9sc_signedERKNS_11sc_int_baseE
605dd1b0 T __ZN5sc_dtmiERKNS_9sc_signedES2_
605dd234 T __ZN5sc_dtplEmRKNS_9sc_signedE
605dd2d8 T __ZN5sc_dtplERKNS_9sc_signedEm
605dd37c T __ZN5sc_dtplElRKNS_9sc_signedE
605dd470 T __ZN5sc_dtplERKNS_9sc_signedEl
605dd564 T __ZN5sc_dtplEyRKNS_9sc_signedE
605dd668 T __ZN5sc_dtplERKNS_12sc_uint_baseERKNS_9sc_signedE
605dd690 T __ZN5sc_dtplERKNS_9sc_signedEy
605dd794 T __ZN5sc_dtplERKNS_9sc_signedERKNS_12sc_uint_baseE
605dd7bc T __ZN5sc_dtplExRKNS_9sc_signedE
605dd8e0 T __ZN5sc_dtplERKNS_11sc_int_baseERKNS_9sc_signedE
605dd908 T __ZN5sc_dtplERKNS_9sc_signedEx
605dda2c T __ZN5sc_dtplERKNS_9sc_signedERKNS_11sc_int_baseE
605dda54 T __ZN5sc_dtplERKNS_9sc_signedES2_
605ddad4 T __ZN5sc_dtrmEmRKNS_9sc_signedE
605ddcb0 T __ZN5sc_dtrmERKNS_9sc_signedEm
605dde8c T __ZN5sc_dtrmElRKNS_11sc_unsignedE
605de080 T __ZN5sc_dtrmERKNS_11sc_unsignedEl
605de2a0 T __ZN5sc_dtrmElRKNS_9sc_signedE
605de494 T __ZN5sc_dtrmERKNS_9sc_signedEl
605de6b4 T __ZN5sc_dtrmEyRKNS_9sc_signedE
605de8dc T __ZN5sc_dtrmERKNS_12sc_uint_baseERKNS_9sc_signedE
605de904 T __ZN5sc_dtrmERKNS_9sc_signedEy
605deb2c T __ZN5sc_dtrmERKNS_9sc_signedERKNS_12sc_uint_baseE
605deb54 T __ZN5sc_dtrmExRKNS_11sc_unsignedE
605ded80 T __ZN5sc_dtrmERKNS_11sc_int_baseERKNS_11sc_unsignedE
605deda8 T __ZN5sc_dtrmERKNS_11sc_unsignedEx
605deff8 T __ZN5sc_dtrmERKNS_11sc_unsignedERKNS_11sc_int_baseE
605df020 T __ZN5sc_dtrmExRKNS_9sc_signedE
605df24c T __ZN5sc_dtrmERKNS_11sc_int_baseERKNS_9sc_signedE
605df274 T __ZN5sc_dtrmERKNS_9sc_signedEx
605df4c4 T __ZN5sc_dtrmERKNS_9sc_signedERKNS_11sc_int_baseE
605df4ec T __ZN5sc_dtrmERKNS_9sc_signedES2_
605df6a0 T __ZN5sc_dtrmERKNS_9sc_signedERKNS_11sc_unsignedE
605df854 T __ZN5sc_dtrmERKNS_11sc_unsignedERKNS_9sc_signedE
605dfa0c T __ZN5sc_dtdvEmRKNS_9sc_signedE
605dfc14 T __ZN5sc_dtdvERKNS_9sc_signedEm
605dfe30 T __ZN5sc_dtdvElRKNS_11sc_unsignedE
605e0058 T __ZN5sc_dtdvERKNS_11sc_unsignedEl
605e0294 T __ZN5sc_dtdvElRKNS_9sc_signedE
605e04c4 T __ZN5sc_dtdvERKNS_9sc_signedEl
605e0704 T __ZN5sc_dtdvEyRKNS_9sc_signedE
605e0918 T __ZN5sc_dtdvERKNS_12sc_uint_baseERKNS_9sc_signedE
605e0940 T __ZN5sc_dtdvERKNS_9sc_signedEy
605e0b68 T __ZN5sc_dtdvERKNS_9sc_signedERKNS_12sc_uint_baseE
605e0b90 T __ZN5sc_dtdvExRKNS_11sc_unsignedE
605e0de4 T __ZN5sc_dtdvERKNS_11sc_int_baseERKNS_11sc_unsignedE
605e0e0c T __ZN5sc_dtdvERKNS_11sc_unsignedEx
605e1070 T __ZN5sc_dtdvERKNS_11sc_unsignedERKNS_11sc_int_baseE
605e1098 T __ZN5sc_dtdvExRKNS_9sc_signedE
605e12f0 T __ZN5sc_dtdvERKNS_11sc_int_baseERKNS_9sc_signedE
605e1318 T __ZN5sc_dtdvERKNS_9sc_signedEx
605e157c T __ZN5sc_dtdvERKNS_9sc_signedERKNS_11sc_int_baseE
605e15a4 T __ZN5sc_dtdvERKNS_9sc_signedES2_
605e1768 T __ZN5sc_dtdvERKNS_9sc_signedERKNS_11sc_unsignedE
605e192c T __ZN5sc_dtdvERKNS_11sc_unsignedERKNS_9sc_signedE
605e1af4 T __ZN5sc_dtmlEmRKNS_9sc_signedE
605e1cd8 T __ZN5sc_dtmlERKNS_9sc_signedEm
605e1ebc T __ZN5sc_dtmlElRKNS_11sc_unsignedE
605e20bc T __ZN5sc_dtmlERKNS_11sc_unsignedEl
605e22bc T __ZN5sc_dtmlElRKNS_9sc_signedE
605e24c4 T __ZN5sc_dtmlERKNS_9sc_signedEl
605e26cc T __ZN5sc_dtmlEyRKNS_9sc_signedE
605e28bc T __ZN5sc_dtmlERKNS_12sc_uint_baseERKNS_9sc_signedE
605e28e4 T __ZN5sc_dtmlERKNS_9sc_signedEy
605e2ad4 T __ZN5sc_dtmlERKNS_9sc_signedERKNS_12sc_uint_baseE
605e2afc T __ZN5sc_dtmlExRKNS_11sc_unsignedE
605e2d24 T __ZN5sc_dtmlERKNS_11sc_int_baseERKNS_11sc_unsignedE
605e2d4c T __ZN5sc_dtmlERKNS_11sc_unsignedEx
605e2f7c T __ZN5sc_dtmlERKNS_11sc_unsignedERKNS_11sc_int_baseE
605e2fa4 T __ZN5sc_dtmlExRKNS_9sc_signedE
605e31d4 T __ZN5sc_dtmlERKNS_11sc_int_baseERKNS_9sc_signedE
605e31fc T __ZN5sc_dtmlERKNS_9sc_signedEx
605e3424 T __ZN5sc_dtmlERKNS_9sc_signedERKNS_11sc_int_baseE
605e344c T __ZN5sc_dtrsERKNS_9sc_signedEm
605e35ec T __ZN5sc_dtrsERKNS_9sc_signedEl
605e3630 T __ZN5sc_dtrsERKNS_9sc_signedES2_
605e3680 T __ZN5sc_dtrsERKNS_9sc_signedEy
605e36c8 T __ZN5sc_dtrsERKNS_9sc_signedERKNS_12sc_uint_baseE
605e36f0 T __ZN5sc_dtrsERKNS_9sc_signedEx
605e3740 T __ZN5sc_dtrsERKNS_9sc_signedERKNS_11sc_int_baseE
605e3768 T __ZN5sc_dtrsERKNS_9sc_signedERKNS_11sc_unsignedE
605e37b8 T __ZN5sc_dtlsERKNS_9sc_signedEm
605e39d4 T __ZN5sc_dtlsERKNS_9sc_signedEl
605e3a18 T __ZN5sc_dtlsERKNS_9sc_signedEy
605e3a60 T __ZN5sc_dtlsERKNS_9sc_signedERKNS_12sc_uint_baseE
605e3a88 T __ZN5sc_dtlsERKNS_9sc_signedEx
605e3ad8 T __ZN5sc_dtlsERKNS_9sc_signedERKNS_11sc_int_baseE
605e3b00 T __ZN5sc_dtlsERKNS_9sc_signedES2_
605e3b54 T __ZN5sc_dtlsERKNS_9sc_signedERKNS_11sc_unsignedE
605e3ba4 T __ZN5sc_dt17xor_signed_friendEciiPKjciiS1_
605e3f10 T __ZN5sc_dteoEmRKNS_9sc_signedE
605e3fb4 T __ZN5sc_dteoERKNS_9sc_signedEm
605e4058 T __ZN5sc_dteoElRKNS_9sc_signedE
605e414c T __ZN5sc_dteoERKNS_9sc_signedEl
605e4240 T __ZN5sc_dteoEyRKNS_9sc_signedE
605e4344 T __ZN5sc_dteoERKNS_12sc_uint_baseERKNS_9sc_signedE
605e436c T __ZN5sc_dteoERKNS_9sc_signedEy
605e4470 T __ZN5sc_dteoERKNS_9sc_signedERKNS_12sc_uint_baseE
605e4498 T __ZN5sc_dteoExRKNS_9sc_signedE
605e45bc T __ZN5sc_dteoERKNS_11sc_int_baseERKNS_9sc_signedE
605e45e4 T __ZN5sc_dteoERKNS_9sc_signedEx
605e4708 T __ZN5sc_dteoERKNS_9sc_signedERKNS_11sc_int_baseE
605e4730 T __ZN5sc_dteoERKNS_9sc_signedES2_
605e47b0 T __ZN5sc_dt16or_signed_friendEciiPKjciiS1_
605e4b18 T __ZN5sc_dtorEmRKNS_9sc_signedE
605e4bbc T __ZN5sc_dtorERKNS_9sc_signedEm
605e4c60 T __ZN5sc_dtorElRKNS_9sc_signedE
605e4d54 T __ZN5sc_dtorERKNS_9sc_signedEl
605e4e48 T __ZN5sc_dtorEyRKNS_9sc_signedE
605e4f4c T __ZN5sc_dtorERKNS_12sc_uint_baseERKNS_9sc_signedE
605e4f74 T __ZN5sc_dtorERKNS_9sc_signedEy
605e5078 T __ZN5sc_dtorERKNS_9sc_signedERKNS_12sc_uint_baseE
605e50a0 T __ZN5sc_dtorExRKNS_9sc_signedE
605e51c4 T __ZN5sc_dtorERKNS_11sc_int_baseERKNS_9sc_signedE
605e51ec T __ZN5sc_dtorERKNS_9sc_signedEx
605e5310 T __ZN5sc_dtorERKNS_9sc_signedERKNS_11sc_int_baseE
605e5338 T __ZN5sc_dtorERKNS_9sc_signedES2_
605e53b8 T __ZN5sc_dt17and_signed_friendEciiPKjciiS1_
605e5720 T __ZN5sc_dtanEmRKNS_9sc_signedE
605e58c8 T __ZN5sc_dtanERKNS_9sc_signedEm
605e5a74 T __ZN5sc_dtanElRKNS_11sc_unsignedE
605e5c4c T __ZN5sc_dtanERKNS_11sc_unsignedEl
605e5e20 T __ZN5sc_dtanElRKNS_9sc_signedE
605e5ff4 T __ZN5sc_dtanERKNS_9sc_signedEl
605e61c8 T __ZN5sc_dtanEyRKNS_9sc_signedE
605e63bc T __ZN5sc_dtanERKNS_12sc_uint_baseERKNS_9sc_signedE
605e63e4 T __ZN5sc_dtanERKNS_9sc_signedEy
605e65dc T __ZN5sc_dtanERKNS_9sc_signedERKNS_12sc_uint_baseE
605e6604 T __ZN5sc_dtanExRKNS_11sc_unsignedE
605e6810 T __ZN5sc_dtanERKNS_11sc_int_baseERKNS_11sc_unsignedE
605e6838 T __ZN5sc_dtanERKNS_11sc_unsignedEx
605e6a3c T __ZN5sc_dtanERKNS_11sc_unsignedERKNS_11sc_int_baseE
605e6a64 T __ZN5sc_dtanExRKNS_9sc_signedE
605e6c68 T __ZN5sc_dtanERKNS_11sc_int_baseERKNS_9sc_signedE
605e6c90 T __ZN5sc_dtanERKNS_9sc_signedEx
605e6e94 T __ZN5sc_dtanERKNS_9sc_signedERKNS_11sc_int_baseE
605e6ebc T __ZN5sc_dtanERKNS_9sc_signedES2_
605e7044 T __ZN5sc_dtanERKNS_9sc_signedERKNS_11sc_unsignedE
605e71cc T __ZN5sc_dtanERKNS_11sc_unsignedERKNS_9sc_signedE
605e7350 T __ZN5sc_dt9sc_signedaSEl
605e7508 T __ZN5sc_dt9sc_signedC2ERKNS_11sc_unsignedE
605e76e4 T __ZN5sc_dt9sc_signedC1ERKNS_11sc_unsignedEc
605e78c0 T __ZN5sc_dtngERKNS_11sc_unsignedE
605e78e8 T __ZN5sc_dtmiEmRKNS_11sc_unsignedE
605e79a0 T __ZN5sc_dtmiElRKNS_11sc_unsignedE
605e7aa0 T __ZN5sc_dtmiEyRKNS_11sc_unsignedE
605e7bb0 T __ZN5sc_dtmiERKNS_12sc_uint_baseERKNS_11sc_unsignedE
605e7bd8 T __ZN5sc_dtmiExRKNS_11sc_unsignedE
605e7d04 T __ZN5sc_dtmiERKNS_11sc_int_baseERKNS_11sc_unsignedE
605e7d2c T __ZN5sc_dtmiERKNS_9sc_signedERKNS_11sc_unsignedE
605e7db0 T __ZN5sc_dt9sc_signedC2ERKNS_11sc_unsignedEc
605e7f8c T __ZN5sc_dtltElRKNS_9sc_signedE
605e8150 T __ZN5sc_dtgeElRKNS_9sc_signedE
605e8168 T __ZN5sc_dtltERKNS_9sc_signedEl
605e8324 T __ZN5sc_dtgeERKNS_9sc_signedEl
605e833c T __ZN5sc_dteqERKNS_9sc_signedES2_
605e83d4 T __ZN5sc_dtneERKNS_9sc_signedES2_
605e83ec T __ZN5sc_dtltEmRKNS_9sc_signedE
605e84e8 T __ZN5sc_dtgeEmRKNS_9sc_signedE
605e8500 T __ZN5sc_dtltERKNS_9sc_signedEm
605e85f8 T __ZN5sc_dtgeERKNS_9sc_signedEm
605e8610 T __ZN5sc_dtltEyRKNS_9sc_signedE
605e8724 T __ZN5sc_dtgeEyRKNS_9sc_signedE
605e8740 T __ZN5sc_dtgeERKNS_12sc_uint_baseERKNS_9sc_signedE
605e875c T __ZN5sc_dtltERKNS_12sc_uint_baseERKNS_9sc_signedE
605e8778 T __ZN5sc_dtltERKNS_9sc_signedEy
605e8880 T __ZN5sc_dtgeERKNS_9sc_signedEy
605e889c T __ZN5sc_dtgeERKNS_9sc_signedERKNS_12sc_uint_baseE
605e88b8 T __ZN5sc_dtltERKNS_9sc_signedERKNS_12sc_uint_baseE
605e88d4 T __ZN5sc_dtltExRKNS_9sc_signedE
605e8a80 T __ZN5sc_dtgeExRKNS_9sc_signedE
605e8a9c T __ZN5sc_dtgeERKNS_11sc_int_baseERKNS_9sc_signedE
605e8ab8 T __ZN5sc_dtltERKNS_11sc_int_baseERKNS_9sc_signedE
605e8ad4 T __ZN5sc_dtltERKNS_9sc_signedEx
605e8c78 T __ZN5sc_dtgeERKNS_9sc_signedEx
605e8c94 T __ZN5sc_dtgeERKNS_9sc_signedERKNS_11sc_int_baseE
605e8cb0 T __ZN5sc_dtleERKNS_9sc_signedEx
605e8cf4 T __ZN5sc_dtgtERKNS_9sc_signedEx
605e8d10 T __ZN5sc_dtgtERKNS_9sc_signedERKNS_11sc_int_baseE
605e8d2c T __ZN5sc_dtleERKNS_9sc_signedERKNS_11sc_int_baseE
605e8d48 T __ZN5sc_dtltERKNS_9sc_signedERKNS_11sc_int_baseE
605e8d64 T __ZN5sc_dtltERKNS_9sc_signedES2_
605e8e80 T __ZN5sc_dtgeERKNS_9sc_signedES2_
605e8e98 T __ZN5sc_dtleERKNS_9sc_signedES2_
605e8ed0 T __ZN5sc_dtgtERKNS_9sc_signedES2_
605e8ee8 T __ZN5sc_dteqEmRKNS_9sc_signedE
605e8fe8 T __ZN5sc_dtleEmRKNS_9sc_signedE
605e9020 T __ZN5sc_dtgtEmRKNS_9sc_signedE
605e9038 T __ZN5sc_dtneEmRKNS_9sc_signedE
605e9050 T __ZN5sc_dteqERKNS_9sc_signedEm
605e914c T __ZN5sc_dtleERKNS_9sc_signedEm
605e9184 T __ZN5sc_dtgtERKNS_9sc_signedEm
605e919c T __ZN5sc_dtneERKNS_9sc_signedEm
605e91b4 T __ZN5sc_dteqElRKNS_9sc_signedE
605e92cc T __ZN5sc_dtleElRKNS_9sc_signedE
605e9304 T __ZN5sc_dtgtElRKNS_9sc_signedE
605e931c T __ZN5sc_dtneElRKNS_9sc_signedE
605e9334 T __ZN5sc_dteqERKNS_9sc_signedEl
605e9448 T __ZN5sc_dtleERKNS_9sc_signedEl
605e9480 T __ZN5sc_dtgtERKNS_9sc_signedEl
605e9498 T __ZN5sc_dtneERKNS_9sc_signedEl
605e94b0 T __ZN5sc_dteqEyRKNS_9sc_signedE
605e95b8 T __ZN5sc_dtleEyRKNS_9sc_signedE
605e95fc T __ZN5sc_dtgtEyRKNS_9sc_signedE
605e9618 T __ZN5sc_dtgtERKNS_12sc_uint_baseERKNS_9sc_signedE
605e9634 T __ZN5sc_dtleERKNS_12sc_uint_baseERKNS_9sc_signedE
605e9650 T __ZN5sc_dtneEyRKNS_9sc_signedE
605e966c T __ZN5sc_dtneERKNS_12sc_uint_baseERKNS_9sc_signedE
605e9688 T __ZN5sc_dteqERKNS_12sc_uint_baseERKNS_9sc_signedE
605e96a4 T __ZN5sc_dteqERKNS_9sc_signedEy
605e97a0 T __ZN5sc_dtleERKNS_9sc_signedEy
605e97e4 T __ZN5sc_dtgtERKNS_9sc_signedEy
605e9800 T __ZN5sc_dtgtERKNS_9sc_signedERKNS_12sc_uint_baseE
605e981c T __ZN5sc_dtleERKNS_9sc_signedERKNS_12sc_uint_baseE
605e9838 T __ZN5sc_dtneERKNS_9sc_signedEy
605e9854 T __ZN5sc_dtneERKNS_9sc_signedERKNS_12sc_uint_baseE
605e9870 T __ZN5sc_dteqERKNS_9sc_signedERKNS_12sc_uint_baseE
605e988c T __ZN5sc_dteqExRKNS_9sc_signedE
605e99b4 T __ZN5sc_dtleExRKNS_9sc_signedE
605e99f8 T __ZN5sc_dtgtExRKNS_9sc_signedE
605e9a14 T __ZN5sc_dtgtERKNS_11sc_int_baseERKNS_9sc_signedE
605e9a30 T __ZN5sc_dtleERKNS_11sc_int_baseERKNS_9sc_signedE
605e9a4c T __ZN5sc_dtneExRKNS_9sc_signedE
605e9a68 T __ZN5sc_dtneERKNS_11sc_int_baseERKNS_9sc_signedE
605e9a84 T __ZN5sc_dteqERKNS_11sc_int_baseERKNS_9sc_signedE
605e9aa0 T __ZN5sc_dt9sc_signedaSERKNS_11sc_unsignedE
605e9c4c T __ZN5sc_dt9sc_signedoRERKNS_11sc_unsignedE
605e9d60 T __ZN5sc_dt9sc_signedaSERKS0_
605e9f28 T __ZN5sc_dt9sc_signedmmEv
605e9f88 T __ZN5sc_dt9sc_signedppEi
605ea044 T __ZN5sc_dt9sc_signedmmEi
605ea100 T __ZN5sc_dt9sc_signedppEv
605ea160 T __ZN5sc_dt9sc_signedC1ERKNS_11sc_unsignedE
605ea33c T __ZN5sc_dteoElRKNS_11sc_unsignedE
605ea430 T __ZN5sc_dteoERKNS_11sc_unsignedEl
605ea524 T __ZN5sc_dteoExRKNS_11sc_unsignedE
605ea648 T __ZN5sc_dteoERKNS_11sc_int_baseERKNS_11sc_unsignedE
605ea670 T __ZN5sc_dteoERKNS_11sc_unsignedEx
605ea794 T __ZN5sc_dteoERKNS_11sc_unsignedERKNS_11sc_int_baseE
605ea7bc T __ZN5sc_dteoERKNS_9sc_signedERKNS_11sc_unsignedE
605ea83c T __ZN5sc_dteoERKNS_11sc_unsignedERKNS_9sc_signedE
605ea8bc T __ZN5sc_dtorElRKNS_11sc_unsignedE
605ea9b0 T __ZN5sc_dtorERKNS_11sc_unsignedEl
605eaaa4 T __ZN5sc_dtorExRKNS_11sc_unsignedE
605eabc8 T __ZN5sc_dtorERKNS_11sc_int_baseERKNS_11sc_unsignedE
605eabf0 T __ZN5sc_dtorERKNS_11sc_unsignedEx
605ead14 T __ZN5sc_dtorERKNS_11sc_unsignedERKNS_11sc_int_baseE
605ead3c T __ZN5sc_dtorERKNS_9sc_signedERKNS_11sc_unsignedE
605eadbc T __ZN5sc_dtorERKNS_11sc_unsignedERKNS_9sc_signedE
605eae3c T __ZN5sc_dtmiERKNS_11sc_unsignedEm
605eaee0 T __ZN5sc_dtmiERKNS_11sc_unsignedEl
605eafc8 T __ZN5sc_dtmiERKNS_11sc_unsignedEy
605eb0cc T __ZN5sc_dtmiERKNS_11sc_unsignedERKNS_12sc_uint_baseE
605eb0f4 T __ZN5sc_dtmiERKNS_11sc_unsignedEx
605eb220 T __ZN5sc_dtmiERKNS_11sc_unsignedERKNS_11sc_int_baseE
605eb248 T __ZN5sc_dtmiERKNS_11sc_unsignedERKNS_9sc_signedE
605eb2cc T __ZN5sc_dtmiERKNS_11sc_unsignedES2_
605eb350 T __ZN5sc_dtplElRKNS_11sc_unsignedE
605eb444 T __ZN5sc_dtplERKNS_11sc_unsignedEl
605eb538 T __ZN5sc_dtplExRKNS_11sc_unsignedE
605eb65c T __ZN5sc_dtplERKNS_11sc_int_baseERKNS_11sc_unsignedE
605eb684 T __ZN5sc_dtplERKNS_11sc_unsignedEx
605eb7a8 T __ZN5sc_dtplERKNS_11sc_unsignedERKNS_11sc_int_baseE
605eb7d0 T __ZN5sc_dtplERKNS_9sc_signedERKNS_11sc_unsignedE
605eb850 T __ZN5sc_dtplERKNS_11sc_unsignedERKNS_9sc_signedE
605eb8d0 T __ZN5sc_dt9sc_signedaSEy
605eba1c T __ZN5sc_dt9sc_signedeOEy
605ebba0 T __ZN5sc_dt9sc_signedeOERKNS_12sc_uint_baseE
605ebbbc T __ZN5sc_dt9sc_signedC1ERKNS_16sc_uint_subref_rE
605ebdb8 T __ZN5sc_dt9sc_signedC2ERKNS_16sc_uint_subref_rE
605ebfb4 T __ZN5sc_dt9sc_signedC1ERKNS_15sc_int_subref_rE
605ec0e8 T __ZN5sc_dt9sc_signedC2ERKNS_15sc_int_subref_rE
605ec21c T __ZN5sc_dt9sc_signedaSERKNS_12sc_uint_baseE
605ec234 T __ZThn4_N5sc_dt9sc_signed10concat_setEyi
605ec23c T __ZN5sc_dt9sc_signed10concat_setEyi
605ec284 T __ZN5sc_dt9sc_signedaSEx
605ec470 T __ZN5sc_dt9sc_signedaSERKNS_11sc_int_baseE
605ec488 T __ZThn4_N5sc_dt9sc_signed10concat_setERKS0_i
605ec490 T __ZN5sc_dt9sc_signed10concat_setERKS0_i
605ec528 T __ZThn4_N5sc_dt9sc_signed10concat_setExi
605ec530 T __ZN5sc_dt9sc_signed10concat_setExi
605ec57c T __ZN5sc_dt9sc_signedpLEl
605ec72c T __ZN5sc_dt9sc_signedmIEm
605ec8b4 T __ZN5sc_dt9sc_signedpLERKS0_
605eca14 T __ZN5sc_dt9sc_signedmIEx
605ecc0c T __ZN5sc_dt9sc_signedmIERKNS_11sc_int_baseE
605ecc28 T __ZN5sc_dt9sc_signedpLEx
605ece18 T __ZN5sc_dt9sc_signedpLERKNS_11sc_int_baseE
605ece34 T __ZN5sc_dt9sc_signedmIEl
605ecff4 T __ZN5sc_dt9sc_signedaSEm
605ed12c T __ZN5sc_dt9sc_signedmIERKS0_
605ed3e4 T __ZN5sc_dt9sc_signedpLEy
605ed5b4 T __ZN5sc_dt9sc_signedpLERKNS_12sc_uint_baseE
605ed5d0 T __ZN5sc_dt9sc_signedmIEy
605ed7b0 T __ZN5sc_dt9sc_signedmIERKNS_12sc_uint_baseE
605ed7cc T __ZN5sc_dt9sc_signedaSEd
605ed9e4 T __ZN5sc_dt9sc_signedmIERKNS_11sc_unsignedE
605edc9c T __ZN5sc_dt9sc_signedpLERKNS_11sc_unsignedE
605eddfc T __ZN5sc_dt9sc_signedpLEm
605edf80 T __ZN5sc_dt9sc_signedC1EPKNS_11sc_unsignedEii
605ee418 T __ZN5sc_dt9sc_signedC2EPKNS_11sc_unsignedEii
605ee8b0 T __ZN5sc_dt9sc_signed7reverseEv
605eea04 T __ZN5sc_dt9sc_signedC2EPKS0_ii
605eeea8 T __ZN5sc_dt9sc_signedoRERKS0_
605eefd8 T __ZN5sc_dt9sc_signedC1EPKS0_ii
605ef47c T __ZN5sc_dt9sc_signedeOEx
605ef630 T __ZN5sc_dt9sc_signedeOERKNS_11sc_int_baseE
605ef64c T __ZN5sc_dt9sc_signed14set_packed_repEPj
605ef7e8 T __ZN5sc_dt9sc_signedaSERKNS_10sc_bv_baseE
605ef9c4 T __ZN5sc_dt9sc_signedC1ERKNS_10sc_bv_baseE
605efac0 T __ZN5sc_dt9sc_signedC2ERKNS_10sc_bv_baseE
605efbbc T __ZN5sc_dt9sc_signedlSEm
605efd10 T __ZN5sc_dt9sc_signedlSEl
605efd28 T __ZN5sc_dt9sc_signedlSEy
605efd4c T __ZN5sc_dt9sc_signedlSERKNS_12sc_uint_baseE
605efd68 T __ZN5sc_dt9sc_signedlSEx
605efd94 T __ZN5sc_dt9sc_signedlSERKNS_11sc_int_baseE
605efdb0 T __ZN5sc_dt9sc_signedlSERKNS_11sc_unsignedE
605efde8 T __ZN5sc_dt9sc_signedlSERKS0_
605efe24 T __ZN5sc_dt9sc_signedaNEx
605effc8 T __ZN5sc_dt9sc_signedaNERKNS_11sc_int_baseE
605effe4 T __ZN5sc_dt9sc_signedoREl
605f0150 T __ZN5sc_dt9sc_signedaNEl
605f02d4 T __ZN5sc_dt9sc_signed3setEi
605f0420 T __ZN5sc_dt16sc_signed_bitrefoREb
605f0444 T __ZN5sc_dt9sc_signedaNERKS0_
605f0570 T __ZN5sc_dt9sc_signedeOERKS0_
605f0684 T __ZN5sc_dt9sc_signedaNEm
605f07d4 T __ZN5sc_dt9sc_signedeOEl
605f0940 T __ZN5sc_dt9sc_signedaNERKNS_11sc_unsignedE
605f0a6c T __ZN5sc_dt9sc_signedoREx
605f0c0c T __ZN5sc_dt9sc_signedoRERKNS_11sc_int_baseE
605f0c28 T __ZN5sc_dt9sc_signedaNEy
605f0db8 T __ZN5sc_dt9sc_signedaNERKNS_12sc_uint_baseE
605f0dd4 T __ZN5sc_dt9sc_signed5clearEi
605f0f20 T __ZN5sc_dt16sc_signed_bitrefaNEb
605f0f44 T __ZN5sc_dt16sc_signed_bitrefeOEb
605f0fa0 T __ZN5sc_dt16sc_signed_bitrefaSERKS0_
605f0fec T __ZN5sc_dt9sc_signed13mti_set_valueEPv
605f1030 T __ZN5sc_dt16sc_signed_subref10concat_setEyi
605f1120 T __ZN5sc_dt16sc_signed_subref10concat_setERKNS_11sc_unsignedEi
605f11cc T __ZN5sc_dt16sc_signed_subref10concat_setERKNS_9sc_signedEi
605f12e0 T __ZN5sc_dt16sc_signed_subref10concat_setExi
605f1408 T __ZN5sc_dt16sc_signed_subrefaSEd
605f1588 T __ZN5sc_dt16sc_signed_bitrefaSERKNS_18sc_signed_bitref_rE
605f15d4 T __ZN5sc_dt9sc_signed17mti_set_dpi_valueEPv
605f162c T __ZN5sc_dt16sc_signed_subrefaSEx
605f169c T __ZN5sc_dt16sc_signed_subrefaSERKNS_11sc_int_baseE
605f16b4 T __ZN5sc_dt16sc_signed_subrefaSEy
605f1720 T __ZN5sc_dt16sc_signed_subrefaSERKNS_12sc_uint_baseE
605f1738 T __ZN5sc_dt16sc_signed_subrefaSEl
605f1788 T __ZN5sc_dt16sc_signed_subrefaSEm
605f17d8 T __ZN5sc_dt16sc_signed_subrefaSERKNS_11sc_unsignedE
605f1860 T __ZN5sc_dt16sc_signed_subrefaSERKNS_9sc_signedE
605f190c T __ZN5sc_dt16sc_signed_bitref10concat_setEyi
605f1988 T __ZN5sc_dt16sc_signed_bitref10concat_setERKNS_11sc_unsignedEi
605f19ec T __ZN5sc_dt16sc_signed_bitref10concat_setERKNS_9sc_signedEi
605f1a48 T __ZN5sc_dt16sc_signed_bitref10concat_setExi
605f1ac0 T __ZN5sc_dt16sc_signed_bitrefaSEb
605f1af4 T __ZN5sc_dt16sc_signed_bitref4scanERSi
605f1b18 T __ZN5sc_dt9sc_signedaSEPKc
605f1f34 T __ZN5sc_dt9sc_signed4scanERSi
605f2010 T __ZN5sc_dt16sc_signed_subref4scanERSi
605f21a8 T __ZN5sc_dt9sc_signedaSERKNS_10sc_lv_baseE
605f2404 T __ZN5sc_dt9sc_signedC1ERKNS_10sc_lv_baseE
605f2504 T __ZN5sc_dt9sc_signedC2ERKNS_10sc_lv_baseE
605f2604 T __ZN5sc_dt9sc_signedeOERKNS_11sc_unsignedE
605f2734 T __ZN5sc_dt9sc_signedeOEm
605f2870 T __ZN5sc_dt9sc_signedoREy
605f29f4 T __ZN5sc_dt9sc_signedoRERKNS_12sc_uint_baseE
605f2a10 T __ZN5sc_dt9sc_signedrSEm
605f2b58 T __ZN5sc_dt9sc_signedrSEl
605f2b70 T __ZN5sc_dt9sc_signedrSERKS0_
605f2ba4 T __ZN5sc_dt9sc_signedrSEy
605f2bc8 T __ZN5sc_dt9sc_signedrSERKNS_12sc_uint_baseE
605f2be4 T __ZN5sc_dt9sc_signedrSEx
605f2c10 T __ZN5sc_dt9sc_signedrSERKNS_11sc_int_baseE
605f2c2c T __ZN5sc_dt9sc_signedrSERKNS_11sc_unsignedE
605f2c64 T __ZN5sc_dt9sc_signedoREm
605f2da0 T __ZThn4_N5sc_dt9sc_signed10concat_setERKNS_11sc_unsignedEi
605f2da8 T __ZN5sc_dt9sc_signed10concat_setERKNS_11sc_unsignedEi
605f2e30 T __ZN5sc_dt9sc_signedC1ERKNS_20sc_unsigned_subref_rE
605f2fa0 T __ZN5sc_dt9sc_signedC2ERKNS_20sc_unsigned_subref_rE
605f3110 T __ZN5sc_dt9sc_signedC1ERKNS_18sc_signed_subref_rE
605f3280 T __ZN5sc_dt9sc_signedC2ERKNS_18sc_signed_subref_rE
605f33f0 T __ZNK5sc_dt18sc_signed_subref_r8to_ulongEv
605f34a0 T __ZNK5sc_dt18sc_signed_subref_r7to_longEv
605f3550 T __ZNK5sc_dt18sc_signed_subref_r7to_uintEv
605f3600 T __ZNK5sc_dt18sc_signed_subref_r6to_intEv
605f36b0 T __ZNK5sc_dt18sc_signed_subref_r15concat_get_dataEPji
605f3768 T __ZNK5sc_dt18sc_signed_subref_r15concat_get_ctrlEPji
605f3820 T __ZNK5sc_dt18sc_signed_subref_r17concat_get_uint64Ev
605f38d8 T __ZN5sc_dt9sc_signedaSERKNS_18sc_signed_subref_rE
605f393c T __ZN5sc_dt9sc_signedaSERKNS_20sc_unsigned_subref_rE
605f39a0 T __ZN5sc_dt16sc_signed_subrefaSERKNS_20sc_unsigned_subref_rE
605f3a4c T __ZN5sc_dt16sc_signed_subrefaSERKS0_
605f3b08 T __ZN5sc_dt16sc_signed_subrefaSERKNS_18sc_signed_subref_rE
605f3bb4 T __ZNK5sc_dt18sc_signed_subref_r9to_stringENS_9sc_numrepEb
605f3c94 T __ZNK5sc_dt18sc_signed_subref_r9to_stringENS_9sc_numrepE
605f3d6c T __ZNK5sc_dt18sc_signed_subref_r9to_doubleEv
605f3e20 T __ZNK5sc_dt18sc_signed_subref_r9to_uint64Ev
605f3ed8 T __ZNK5sc_dt18sc_signed_subref_r8to_int64Ev
605f3f90 t .text
605f3f90 T _set_error_file_for_fprintf_wrapper
605f3f9d T _counted_fprintf
605f4053 T _counted_printf
605f40f1 T _counted_fwrite
605f4151 T _counted_fputs
605f41ab T _fprintf_incr_error
605f41fd T _fwrite_incr_error
605f4242 T _fputs_incr_error
605f4284 T _fprintf_incr_warning
605f42d6 T _fwrite_incr_warning
605f431b T _fputs_incr_warning
605f4360 t .text
605f4360 T __ZNK7sc_core12sc_attr_base4nameEv
605f436c T __ZN7sc_core12sc_attr_cltn10remove_allEv
605f437c T __ZN7sc_core12sc_attr_baseD2Ev
605f43e8 T __ZN7sc_core12sc_attr_baseC1ERKS0_
605f440c T __ZN7sc_core12sc_attr_baseC2ERKS0_
605f4430 T __ZN7sc_core12sc_attr_baseC1ERKSs
605f4448 T __ZN7sc_core12sc_attr_baseC2ERKSs
605f4460 T __ZN7sc_core12sc_attr_cltnC1Ev
605f447c T __ZN7sc_core12sc_attr_cltnC2Ev
605f4498 T __ZNK7sc_core12sc_attr_cltnixERKSs
605f4528 T __ZN7sc_core12sc_attr_cltnC1ERKS0_
605f45a8 T __ZN7sc_core12sc_attr_cltnixERKSs
605f4638 T __ZN7sc_core12sc_attr_cltn9push_backEPNS_12sc_attr_baseE
605f4718 T __ZN7sc_core12sc_attr_baseD0Ev
605f4794 T __ZN7sc_core12sc_attr_baseD1Ev
605f4800 T __ZN7sc_core12sc_attr_cltn6removeERKSs
605f48c0 T __ZN7sc_core12sc_attr_cltnC2ERKS0_
605f4940 T __ZN7sc_core12sc_attr_cltnD2Ev
605f496c T __ZN7sc_core12sc_attr_cltnD1Ev
605f49a0 t .text
605f49a0 T __ZN7sc_core17sc_interrupt_hereEPKcNS_11sc_severityE
605f49d8 T __ZN7sc_core12sc_stop_hereEPKcNS_11sc_severityE
605f4a10 t .text
605f4a10 t __Z41__static_initialization_and_destruction_0ii
605f4a50 t __GLOBAL__I__ZN5sc_dt10scfx_pow10C2Ev
605f4a60 t ___tcf_0
605f4a78 T __ZN5sc_dt10scfx_pow103negEi
605f4aec T __ZN5sc_dt10scfx_pow103posEi
605f4b44 T __ZN5sc_dt10scfx_pow10D1Ev
605f4be4 T __ZN5sc_dt10scfx_pow10D2Ev
605f4c84 T __ZN5sc_dt10scfx_pow10C2Ev
605f5088 T __ZN5sc_dt10scfx_pow10clEi
605f541c T __ZN5sc_dt10scfx_pow10C1Ev
605f5820 t .text
605f5820 t __Z41__static_initialization_and_destruction_0ii
605f5860 t __GLOBAL__I__ZN5sc_dt11scfx_tc2csdERNS_11scfx_stringEi
605f5870 t ___tcf_0
605f5888 T __ZN5sc_dt11scfx_csd2tcERNS_11scfx_stringE
605f60f4 T __ZN5sc_dt11scfx_tc2csdERNS_11scfx_stringEi
605f6840 t .text
605f6840 T __ZN7sc_core13sc_phash_base11set_cmpr_fnEPFiPKvS2_E
605f6850 T __ZN7sc_core13sc_phash_base11set_hash_fnEPFjPKvE
605f6860 T __ZN7sc_core13sc_phash_base12find_entry_qEjPKvPPPNS_13sc_phash_elemE
605f68b8 T __ZN7sc_core13sc_phash_base12find_entry_cEjPKvPPPNS_13sc_phash_elemE
605f692c T __ZN7sc_core18sc_phash_base_iter5resetEPNS_13sc_phash_baseE
605f69b0 T __ZNK7sc_core18sc_phash_base_iter5emptyEv
605f69c4 T __ZN7sc_core18sc_phash_base_iter4stepEv
605f6a6c T __ZNK7sc_core18sc_phash_base_iter3keyEv
605f6a7c T __ZNK7sc_core18sc_phash_base_iter8contentsEv
605f6a8c T __ZN7sc_core18sc_phash_base_iter12set_contentsEPv
605f6aa0 T __ZN7sc_core19default_ptr_hash_fnEPKv
605f6ad8 T __ZN7sc_core19default_int_hash_fnEPKv
605f6b0c T __ZN7sc_core19default_str_hash_fnEPKv
605f6b54 t __Z41__static_initialization_and_destruction_0ii
605f6b88 t __GLOBAL__I__ZN7sc_core25PHASH_DEFAULT_GROW_FACTORE
605f6b98 t ___tcf_0
605f6bb0 T __ZN7sc_core16sc_strhash_kfreeEPv
605f6bc4 T __ZN7sc_core15sc_strhash_kdupEPKv
605f6bfc T __ZN7sc_core14sc_strhash_cmpEPKvS1_
605f6c08 T __ZN7sc_core13sc_phash_base5eraseEPFvPvE
605f6c98 T __ZN7sc_core13sc_phash_base5eraseEv
605f6d18 T __ZN7sc_core13sc_phash_baseC1EPviidbPFjPKvEPFiS3_S3_E
605f6dac T __ZN7sc_core13sc_phash_baseC2EPviidbPFjPKvEPFiS3_S3_E
605f6e40 T __ZN7sc_core13sc_phash_base6rehashEv
605f6f24 T __ZN7sc_core13sc_phash_baseD2Ev
605f6f88 T __ZN7sc_core18sc_phash_base_iter6removeEPFvPvE
605f6fd4 T __ZN7sc_core18sc_phash_base_iter6removeEv
605f7014 T __ZN7sc_core13sc_phash_base18remove_by_contentsEPFbPKvPvES3_PFvS3_E
605f70b0 T __ZN7sc_core13sc_phash_base18remove_by_contentsEPKvPFvPvE
605f7140 T __ZN7sc_core13sc_phash_base18remove_by_contentsEPFbPKvPvES3_
605f71d4 T __ZN7sc_core13sc_phash_base18remove_by_contentsEPKv
605f725c T __ZN7sc_core13sc_phash_baseD1Ev
605f72c0 T __ZN7sc_core13sc_phash_base10add_directEPvS1_j
605f7328 T __ZN7sc_core13sc_phash_base6insertEPvS1_
605f7394 T __ZN7sc_core13sc_phash_base4copyERKS0_PFPvPKvEPFvS3_E
605f7428 T __ZN7sc_core13sc_phash_base4copyEPKS0_
605f74ac T __ZNK7sc_core13sc_phash_base6lookupEPKvPPv
605f7520 T __ZNK7sc_core13sc_phash_baseixEPKv
605f753c T __ZN7sc_core13sc_phash_base6removeEPKvPPvS4_
605f75f4 T __ZN7sc_core13sc_phash_base6removeEPKvPFvPvE
605f762c T __ZN7sc_core13sc_phash_base6removeEPKv
605f76c4 T __ZN7sc_core13sc_phash_base20insert_if_not_existsEPvS1_PFS1_PKvE
605f7740 T __ZN7sc_core13sc_phash_base20insert_if_not_existsEPvS1_
605f77b0 T __ZN7sc_core13sc_phash_base6insertEPvS1_PFS1_PKvE
605f7830 t .text
605f7830 T _qt_abort
605f7830 T _qt_block
605f7830 T _qt_blocki
605f7830 T qt_abort
605f7830 T qt_block
605f7830 T qt_blocki
605f7836 t qt_common
605f784d T _qt_align
605f784d T qt_align
605f784e T _qt_tramp
605f784e T qt_tramp
605f7858 T _qt_vstart
605f7858 T qt_vstart
605f7870 t .text
605f7870 T _qt_null
605f7875 T _qt_error
605f7880 t .text
605f7880 t __Z41__static_initialization_and_destruction_0ii
605f78b4 t __GLOBAL__I__ZN5sc_dt9to_stringENS_6sc_encE
605f78c4 t ___tcf_0
605f78dc T __ZN5sc_dt9to_stringENS_6sc_encE
605f7958 T __ZN5sc_dt9to_stringENS_6sc_fmtE
605f79d4 T __ZN5sc_dt9to_stringENS_9sc_switchE
605f7a50 T __ZN5sc_dt9to_stringENS_9sc_o_modeE
605f7b28 T __ZN5sc_dt9to_stringENS_9sc_q_modeE
605f7c40 t .text
605f7c40 t __Z41__static_initialization_and_destruction_0ii
605f7c80 t __GLOBAL__I__ZNK5sc_dt16sc_fxtype_params9to_stringEv
605f7c90 t ___tcf_0
605f7ca8 T __ZNK5sc_dt16sc_fxtype_params9to_stringEv
605f7fc0 T __ZNK5sc_dt16sc_fxtype_params5printERSo
605f8090 T __ZNK5sc_dt16sc_fxtype_params4dumpERSo
605f8340 t .text
605f8340 t __Z41__static_initialization_and_destruction_0ii
605f8380 t __GLOBAL__I__ZNK5sc_dt16sc_fxcast_switch9to_stringEv
605f8390 t ___tcf_0
605f83a8 T __ZNK5sc_dt16sc_fxcast_switch9to_stringEv
605f83c8 T __ZNK5sc_dt16sc_fxcast_switch5printERSo
605f849c T __ZNK5sc_dt16sc_fxcast_switch4dumpERSo
605f85d0 t .text
605f85d0 T __ZNK5sc_dt8sc_fxval13lock_observerEv
605f85e4 T __ZNK5sc_dt8sc_fxval15unlock_observerEPNS_17sc_fxval_observerE
605f85f4 T __ZNK5sc_dt13sc_fxval_fast7get_bitEi
605f86c8 T __ZNK5sc_dt13sc_fxval_fast13lock_observerEv
605f86dc T __ZNK5sc_dt13sc_fxval_fast15unlock_observerEPNS_22sc_fxval_fast_observerE
605f86ec t __Z41__static_initialization_and_destruction_0ii
605f872c t __GLOBAL__I__ZNK5sc_dt8sc_fxval9to_stringEv
605f873c t ___tcf_1
605f8754 t ___tcf_0
605f8774 T __ZNK5sc_dt8sc_fxval5printERSo
605f8788 T __ZNK5sc_dt8sc_fxval6to_hexEv
605f87c8 T __ZNK5sc_dt8sc_fxval9to_stringEv
605f8808 T __ZNK5sc_dt8sc_fxval6to_octEv
605f8848 T __ZNK5sc_dt8sc_fxval6to_binEv
605f8888 T __ZNK5sc_dt8sc_fxval6to_decEv
605f88c8 T __ZNK5sc_dt8sc_fxval9to_stringENS_9sc_numrepEbNS_6sc_fmtE
605f890c T __ZNK5sc_dt8sc_fxval9to_stringENS_9sc_numrepENS_6sc_fmtE
605f8950 T __ZNK5sc_dt8sc_fxval9to_stringENS_6sc_fmtE
605f8990 T __ZNK5sc_dt8sc_fxval9to_stringENS_9sc_numrepEb
605f89d4 T __ZNK5sc_dt8sc_fxval9to_stringENS_9sc_numrepE
605f8a14 T __ZN5sc_dt8sc_fxval4scanERSi
605f8c24 T __ZNK5sc_dt13sc_fxval_fast4dumpERSo
605f8cac T __ZNK5sc_dt8sc_fxval4dumpERSo
605f8d20 T __ZN5sc_dt13sc_fxval_fast11from_stringEPKc
605f9958 T __ZN5sc_dt13sc_fxval_fast4scanERSi
605f9a34 t __ZN5sc_dt11print_otherERNS_11scfx_stringERKNS_16scfx_ieee_doubleENS_9sc_numrepEiNS_6sc_fmtEPKNS_11scfx_paramsE
605fb214 t __ZN5sc_dt9print_decERNS_11scfx_stringENS_16scfx_ieee_doubleEiNS_6sc_fmtE
605fbf90 T __ZN5sc_dt9to_stringERKNS_16scfx_ieee_doubleENS_9sc_numrepEiNS_6sc_fmtEPKNS_11scfx_paramsE
605fc590 T __ZNK5sc_dt13sc_fxval_fast5printERSo
605fc60c T __ZNK5sc_dt13sc_fxval_fast6to_hexEv
605fc658 T __ZNK5sc_dt13sc_fxval_fast6to_octEv
605fc6a4 T __ZNK5sc_dt13sc_fxval_fast6to_binEv
605fc6f0 T __ZNK5sc_dt13sc_fxval_fast6to_decEv
605fc73c T __ZNK5sc_dt13sc_fxval_fast9to_stringENS_9sc_numrepEbNS_6sc_fmtE
605fc790 T __ZNK5sc_dt13sc_fxval_fast9to_stringENS_9sc_numrepENS_6sc_fmtE
605fc7e0 T __ZNK5sc_dt13sc_fxval_fast9to_stringENS_6sc_fmtE
605fc830 T __ZNK5sc_dt13sc_fxval_fast9to_stringENS_9sc_numrepEb
605fc880 T __ZNK5sc_dt13sc_fxval_fast9to_stringENS_9sc_numrepE
605fc8d0 T __ZNK5sc_dt13sc_fxval_fast9to_stringEv
605fc920 t .text
605fc920 T __ZN5sc_dt10sc_bv_base18mti_get_value_sizeEPiS1_S1_
605fc940 t __Z41__static_initialization_and_destruction_0ii
605fc980 t __GLOBAL__I__ZN5sc_dt10sc_bv_base4initEib
605fc990 t ___tcf_0
605fc9a8 T __ZN5sc_dt10sc_bv_base18mti_get_value_typeEv
605fc9c0 T __ZN5sc_dt10sc_bv_base13mti_get_valueEv
605fca3c T __ZN5sc_dt10sc_bv_base4initEib
605fcb04 T __ZNK5sc_dt10sc_bv_base17mti_get_dpi_valueEPv
605fcb7c T __ZN5sc_dt10sc_bv_base17mti_set_dpi_valueEPv
605fcbfc T __ZN5sc_dt10sc_bv_base13mti_set_valueEPv
605fcc80 T __ZN5sc_dt10sc_bv_base18assign_from_stringERKSs
605fcdd4 T __ZN5sc_dt10sc_bv_baseC1ERKS0_
605fce54 T __ZN5sc_dt10sc_bv_baseC2ERKS0_
605fced4 T __ZN5sc_dt14convert_to_binEPKc
605fd5f8 T __ZN5sc_dt10sc_bv_baseaSEPKc
605fd6d0 T __ZN5sc_dt10sc_bv_baseC1EPKci
605fd7ec T __ZN5sc_dt10sc_bv_baseC2EPKci
605fd908 T __ZN5sc_dt10sc_bv_baseC1EPKc
605fda28 T __ZN5sc_dt10sc_bv_baseC2EPKc
605fdb48 T __ZN5sc_dt14convert_to_fmtERKSsNS_9sc_numrepEb
605fde60 t .text
605fde60 T __ZN5sc_dt7vec_addEiPKjiS1_Pj
605fdef0 T __ZN5sc_dt10vec_add_onEiPjiPKj
605fdf5c T __ZN5sc_dt11vec_add_on2EiPjiPKj
605fdf9c T __ZN5sc_dt13vec_add_smallEiPKjjPj
605fdff0 T __ZN5sc_dt16vec_add_small_onEiPjj
605fe028 T __ZN5sc_dt7vec_subEiPKjiS1_Pj
605fe0c0 T __ZN5sc_dt10vec_sub_onEiPjiPKj
605fe13c T __ZN5sc_dt13vec_sub_smallEiPKjjPj
605fe1ac T __ZN5sc_dt16vec_sub_small_onEiPjj
605fe1e8 T __ZN5sc_dt16vec_mul_small_onEiPjj
605fe254 T __ZN5sc_dt11vec_to_charEiPKjiPh
605fe344 T __ZN5sc_dt13vec_from_charEiPKhiPj
605fe3b0 t __Z41__static_initialization_and_destruction_0ii
605fe3e4 t __GLOBAL__I__ZN5sc_dt9to_stringENS_9sc_numrepE
605fe3f4 t ___tcf_0
605fe40c T __ZN5sc_dt13vec_rem_largeEiPKjiS1_Pj
605fe618 T __ZN5sc_dt13vec_div_largeEiPKjiS1_Pj
605fe884 T __ZN5sc_dt14parse_hex_bitsEPKciPjS2_
605fec54 T __ZN5sc_dt17parse_binary_bitsEPKciPjS2_
605fef5c T __ZN5sc_dt8fsm_moveEcRcS0_S0_
605ff054 T __ZN5sc_dt17get_base_and_signEPKcRcS2_
605ff134 T __ZN5sc_dt9to_stringENS_9sc_numrepE
605ff260 T __ZN5sc_dt7vec_mulEiPKjiS1_Pj
605ff368 T __ZN5sc_dt16vec_rem_on_smallEiPjj
605ff3d8 T __ZN5sc_dt13vec_rem_smallEiPKjj
605ff440 T __ZN5sc_dt13vec_div_smallEiPKjjPj
605ff4b4 T __ZN5sc_dt13vec_mul_smallEiPKjjPj
605ff538 T __ZN5sc_dt11vec_sub_on2EiPjiPKj
605ff58c T __ZN5sc_dt15vec_shift_rightEiPjij
605ff6fc T __ZN5sc_dt11vec_reverseEiiPjii
605ff8cc T __ZN5sc_dt14vec_shift_leftEiPji
605ffa14 T __ZN5sc_dt12vec_from_strEiiPjPKcNS_9sc_numrepE
605ffed0 t .text
605ffed0 T __ZN5sc_dt11and_on_helpEciiPjciiPKj
606000cc t __Z41__static_initialization_and_destruction_0ii
60600100 t __GLOBAL__I__ZN5sc_dt11add_on_helpERciiPjciiPKj
60600110 t ___tcf_0
60600128 T __ZN5sc_dt11add_on_helpERciiPjciiPKj
6060028c T __ZN5sc_dt11xor_on_helpEciiPjciiPKj
60600484 T __ZN5sc_dt10or_on_helpEciiPjciiPKj
60600678 T __ZN5sc_dt20div_on_help_unsignedERciiPjiiPKj
606009c4 T __ZN5sc_dt20mul_on_help_unsignedERciiPjiiPKj
60600e6c T __ZN5sc_dt20mod_on_help_unsignedERciiPjiiPKj
60601170 T __ZN5sc_dt18mod_on_help_signedERciiPjiiPKj
606014fc T __ZN5sc_dt18div_on_help_signedERciiPjiiPKj
60601914 T __ZN5sc_dt18mul_on_help_signedERciiPjiiPKj
60601f20 t .text
60601f20 T _msg_system_inc_suppressed_error_cnt
60601f3c T _msg_system_inc_suppressed_warning_cnt
60601f58 T _msg_system_inc_total_err_count
60601f74 T _msg_system_inc_total_warning_count
60601f90 T _msgCheckErrorWarning
60602601 T _msgGetMsgCounts
6060264a T _msgAdd2MsgCounts
60602683 T _msgSetMsgCounts
606026a8 T _msgZeroMsgCounts
606026d5 T _msgResetCountIncrMask
606026f0 t .text
606026f0 T __ZNKSt8bad_cast4whatEv
606026fc T __ZNKSt10bad_typeid4whatEv
60602708 T __ZNKSt9type_info14__is_pointer_pEv
60602710 T __ZNKSt9type_info15__is_function_pEv
60602718 T __ZNKSt9type_info11__do_upcastEPKN10__cxxabiv117__class_type_infoEPPv
60602720 T __ZNK10__cxxabiv117__class_type_info11__do_upcastEPKS0_PPv
60602780 T __ZNK10__cxxabiv117__class_type_info20__do_find_public_srcEiPKvPKS0_S2_
60602798 T __ZNSt9type_infoD0Ev
606027ac T __ZNSt9type_infoD1Ev
606027bc T __ZNSt9type_infoD2Ev
606027cc T __ZN10__cxxabiv117__class_type_infoD0Ev
606027f0 T __ZN10__cxxabiv117__class_type_infoD1Ev
60602800 T __ZN10__cxxabiv117__class_type_infoD2Ev
60602810 T __ZN10__cxxabiv121__vmi_class_type_infoD0Ev
60602834 T __ZN10__cxxabiv121__vmi_class_type_infoD1Ev
60602844 T __ZN10__cxxabiv121__vmi_class_type_infoD2Ev
60602854 T __ZN10__cxxabiv120__si_class_type_infoD0Ev
60602878 T __ZN10__cxxabiv120__si_class_type_infoD1Ev
6060288c T __ZN10__cxxabiv120__si_class_type_infoD2Ev
606028a0 T __ZNKSt9type_infoeqERKS_
606028d4 T __ZNK10__cxxabiv117__class_type_info11__do_upcastEPKS0_PKvRNS0_15__upcast_resultE
60602918 T __ZNK10__cxxabiv120__si_class_type_info11__do_upcastEPKNS_17__class_type_infoEPKvRNS1_15__upcast_resultE
60602968 T __ZNK10__cxxabiv120__si_class_type_info12__do_dyncastEiNS_17__class_type_info10__sub_kindEPKS1_PKvS4_S6_RNS1_16__dyncast_resultE
60602a24 T __ZNK10__cxxabiv117__class_type_info12__do_dyncastEiNS0_10__sub_kindEPKS0_PKvS3_S5_RNS0_16__dyncast_resultE
60602a84 T __ZNK10__cxxabiv120__si_class_type_info20__do_find_public_srcEiPKvPKNS_17__class_type_infoES2_
60602af0 T __ZNK10__cxxabiv117__class_type_info10__do_catchEPKSt9type_infoPPvj
60602b40 T __ZNKSt9type_info10__do_catchEPKS_PPvj
60602b5c T __ZNSt10bad_typeidD0Ev
60602b84 T __ZNSt10bad_typeidD1Ev
60602b98 T __ZNSt10bad_typeidD2Ev
60602bac T __ZNSt8bad_castD0Ev
60602bd4 T __ZNSt8bad_castD1Ev
60602be8 T __ZNSt8bad_castD2Ev
60602bfc T __ZNK10__cxxabiv121__vmi_class_type_info20__do_find_public_srcEiPKvPKNS_17__class_type_infoES2_
60602ca4 T __ZNK10__cxxabiv121__vmi_class_type_info11__do_upcastEPKNS_17__class_type_infoEPKvRNS1_15__upcast_resultE
60602eac T ___dynamic_cast
60602f88 T __ZNK10__cxxabiv121__vmi_class_type_info12__do_dyncastEiNS_17__class_type_info10__sub_kindEPKS1_PKvS4_S6_RNS1_16__dyncast_resultE
60603440 t .text
60603440 t __Z12read_uleb128PKhPj
6060347c t __Z12read_sleb128PKhPi
606034d4 t __Z16get_adjusted_ptrPKSt9type_infoS1_PPv
60603530 t __Z28read_encoded_value_with_basehjPKhPj
606035e4 t __Z21base_of_encoded_valuehP15_Unwind_Context
60603648 t __Z17parse_lsda_headerP15_Unwind_ContextPKhP16lsda_header_info
60603700 t __Z15get_ttype_entryP16lsda_header_infoj
60603770 t __Z20check_exception_specP16lsda_header_infoPKSt9type_infoPvi
606037cc T ___cxa_call_unexpected
606038a0 T ___gxx_personality_v0
60603c50 t .text
60603c50 t .text
60603c50 T __ZNSt8ios_base4InitD1Ev
60603cf0 T __ZNSt8ios_base4InitD2Ev
60603d94 T __ZNSt8ios_base4InitC1Ev
606045b8 T __ZNSt8ios_base15sync_with_stdioEb
606047d4 T __ZNSt8ios_base4InitC2Ev
60605000 t .text
60605000 T __ZdlPv
60605020 t .text
60605020 t .text
60605020 t .text
60605020 t .text
60605020 t .text
60605020 T ___cxa_pure_virtual
60605040 t .text
60605040 T __Znwj
606050b0 t .text
606050b0 T __ZdaPv
606050c0 t .text
606050c0 T __ZN9__gnu_cxx18__exchange_and_addEPVii
606050ec T __ZN9__gnu_cxx12__atomic_addEPVii
60605100 t .text
60605100 t __ZN10__cxxabiv17acquireEPx
6060514c T __ZN9__gnu_cxx20recursive_init_errorD0Ev
60605174 T __ZN9__gnu_cxx20recursive_init_errorD1Ev
60605188 T __ZN9__gnu_cxx20recursive_init_errorD2Ev
6060519c t __ZN88_GLOBAL__N_.._.._.._.._gcc_4.2.1_2_src_libstdc___v3_libsupc___guard.cc_00000000_E811042716get_static_mutexEv
606051c8 t __ZN88_GLOBAL__N_.._.._.._.._gcc_4.2.1_2_src_libstdc___v3_libsupc___guard.cc_00000000_E81104274initEv
6060520c T ___cxa_guard_release
60605260 T ___cxa_guard_abort
606052b0 T ___cxa_guard_acquire
606053d0 t .text
606053d0 t __Z41__static_initialization_and_destruction_0ii
60605400 t __GLOBAL__I__ZN91_GLOBAL__N_.._.._.._.._gcc_4.2.1_2_src_libstdc___v3_libsupc___eh_alloc.cc_00000000_7E3F0A1A15emergency_mutexE
60605410 T ___cxa_free_exception
60605504 T ___cxa_allocate_exception
60605670 t .text
60605670 T ___cxa_rethrow
606056c4 T ___cxa_throw
6060571c t __Z23__gxx_exception_cleanup19_Unwind_Reason_CodeP17_Unwind_Exception
60605770 t .text
60605770 t .text
60605770 t .text
60605770 T __ZSt18__throw_bad_typeidv
60605798 T __ZSt16__throw_bad_castv
606057c0 T __ZSt17__throw_bad_allocv
606057e8 T __ZSt21__throw_bad_exceptionv
60605810 T __ZSt19__throw_ios_failurePKc
606058b0 T __ZSt23__throw_underflow_errorPKc
606059b0 T __ZSt22__throw_overflow_errorPKc
60605ab0 T __ZSt24__throw_invalid_argumentPKc
60605bb0 T __ZSt20__throw_domain_errorPKc
60605cb0 T __ZSt19__throw_logic_errorPKc
60605db0 T __ZSt19__throw_range_errorPKc
60605eb0 T __ZSt21__throw_runtime_errorPKc
60605fb0 T __ZSt20__throw_out_of_rangePKc
606060b0 T __ZSt20__throw_length_errorPKc
606061b0 t .text
606061b0 T ___cxa_get_exception_ptr
606061bc T __ZSt18uncaught_exceptionv
606061d4 T ___cxa_end_catch
6060624c T ___cxa_begin_catch
606062d0 t .text
606062d0 t .text
606062d0 T __ZSt13set_terminatePFvvE
606062e4 T __ZSt14set_unexpectedPFvvE
606062f8 T __ZN10__cxxabiv111__terminateEPFvvE
60606314 T __ZSt9terminatev
60606328 T __ZN10__cxxabiv112__unexpectedEPFvvE
60606338 T __ZSt10unexpectedv
60606350 t .text
60606350 T __ZNSt13basic_istreamIwSt11char_traitsIwEE6ignoreEit
606065e4 T __ZNSi7getlineEPcic
60606848 T __ZNSt13basic_istreamIwSt11char_traitsIwEE7getlineEPwiw
60606ad4 T __ZSt7getlineIwSt11char_traitsIwESaIwEERSt13basic_istreamIT_T0_ES7_RSbIS4_S5_T1_ES4_
60606dc8 T __ZSt7getlineIcSt11char_traitsIcESaIcEERSt13basic_istreamIT_T0_ES7_RSbIS4_S5_T1_ES4_
60607090 T __ZStrsIcSt11char_traitsIcESaIcEERSt13basic_istreamIT_T0_ES7_RSbIS4_S5_T1_E
606073bc T __ZStrsIcSt11char_traitsIcEERSt13basic_istreamIT_T0_ES6_PS3_
60607664 T __ZNSi6ignoreEii
606078c0 t .text
606078c0 T __Znaj
606078f0 t .text
606078f0 t .text
606078f0 t .text
606078f0 T __ZNSt8ios_base20_M_dispose_callbacksEv
6060795c T __ZNSt8ios_base17_M_call_callbacksENS_5eventE
606079b8 T __ZNSt8ios_base17register_callbackEPFvNS_5eventERS_iEi
606079ec T __ZNSt8ios_baseD0Ev
60607a68 T __ZNSt8ios_baseD1Ev
60607ad8 T __ZNSt8ios_baseD2Ev
60607b48 T __ZNSt8ios_baseC2Ev
60607bc4 T __ZNSt8ios_baseC1Ev
60607c40 T __ZNSt8ios_base13_M_grow_wordsEib
60607da4 T __ZNSt8ios_base6xallocEv
60607e00 t .text
60607e00 t __ZN88_GLOBAL__N_.._.._.._.._gcc_4.2.1_2_src_libstdc___v3_src_locale_init.cc_00000000_B04EA40616get_locale_mutexEv
60607e7c T __ZNSt6locale5_ImplC2Ej
60608cb0 T __ZNSt6locale5_ImplC1Ej
60609ae4 T __ZNSt6locale18_S_initialize_onceEv
60609b20 T __ZNSt6locale13_S_initializeEv
60609b60 T __ZNSt6locale7classicEv
60609b74 T __ZNSt6locale6globalERKS_
60609db0 T __ZNSt6localeC1Ev
60609e94 T __ZNSt6localeC2Ev
60609f80 t .text
60609f80 T __ZNSt6localeC2EPNS_5_ImplE
60609f90 T __ZNSt6localeC1EPNS_5_ImplE
60609fa0 T __ZNSt6locale5facet13_S_get_c_nameEv
60609fac t __Z41__static_initialization_and_destruction_0ii
60609fdc t __GLOBAL__I__ZN83_GLOBAL__N_.._.._.._.._gcc_4.2.1_2_src_libstdc___v3_src_locale.cc_00000000_61EDA62218locale_cache_mutexE
60609fec T __ZNKSt6locale2id5_M_idEv
6060a034 T __ZNSt6locale5facetD0Ev
6060a048 T __ZNSt6locale5facetD1Ev
6060a058 T __ZNSt6locale5facetD2Ev
6060a068 T __ZNSt6locale21_S_normalize_categoryEi
6060a0c8 T __ZNSt6locale5facet18_S_initialize_onceEv
6060a0e4 T __ZNSt6locale5facet15_S_get_c_localeEv
6060a108 T __ZNSt6localeC2ERKS_
6060a150 T __ZNSt6localeC1ERKS_
6060a198 T __ZNSt6locale5_Impl16_M_install_cacheEPKNS_5facetEj
6060a2ec T __ZNKSt6locale4nameEv
6060a58c T __ZNKSt6localeeqERKS_
6060a7c0 T __ZNSt6locale5_Impl16_M_install_facetEPKNS_2idEPKNS_5facetE
6060aa6c T __ZNSt6locale5_Impl16_M_replace_facetEPKS0_PKNS_2idE
6060aac0 T __ZNSt6locale5_Impl19_M_replace_categoryEPKS0_PKPKNS_2idE
6060aafc T __ZNSt6locale5_ImplD1Ev
6060ac78 T __ZNSt6locale5_ImplC1ERKS0_j
6060ae50 T __ZNSt6locale5_ImplC2ERKS0_j
6060b028 T __ZNSt6localeD2Ev
6060b094 T __ZNSt6localeaSERKS_
6060b138 T __ZNSt6localeD1Ev
6060b1a4 T __ZNSt6locale5_ImplD2Ev
6060b320 t .text
6060b320 t .text
6060b320 t __ZN42_GLOBAL__N_basic_file.cc_00000000_7DDA1B7810fopen_modeESt13_Ios_Openmode
6060b390 T __ZNSt12__basic_fileIcEC2EP17__gthread_mutex_t
6060b3a4 T __ZNSt12__basic_fileIcEC1EP17__gthread_mutex_t
6060b3b8 T __ZNKSt12__basic_fileIcE7is_openEv
6060b3cc T __ZNSt12__basic_fileIcE2fdEv
6060b3dc T __ZNSt12__basic_fileIcE4fileEv
6060b3e8 T __ZNSt12__basic_fileIcE9showmanycEv
6060b484 T __ZNSt12__basic_fileIcE4syncEv
6060b498 T __ZNSt12__basic_fileIcE8sys_openEP6_iobufSt13_Ios_Openmode
6060b4f4 t __ZN42_GLOBAL__N_basic_file.cc_00000000_7DDA1B786xwriteEiPKci
6060b538 T __ZNSt12__basic_fileIcE8xsputn_2EPKciS2_i
6060b580 T __ZNSt12__basic_fileIcE6xsputnEPKci
6060b5a4 T __ZNSt12__basic_fileIcE6xsgetnEPci
6060b5e8 T __ZNSt12__basic_fileIcE5closeEv
6060b648 T __ZNSt12__basic_fileIcED1Ev
6060b650 T __ZNSt12__basic_fileIcED2Ev
6060b658 T __ZNSt12__basic_fileIcE4openEPKcSt13_Ios_Openmodei
6060b6a4 T __ZNSt12__basic_fileIcE8sys_openEiSt13_Ios_Openmode
6060b708 T __ZNSt12__basic_fileIcE7seekoffExSt12_Ios_Seekdir
6060b720 t .text
6060b720 T __ZNK10__cxxabiv119__pointer_type_info14__is_pointer_pEv
6060b72c T __ZNK10__cxxabiv120__function_type_info15__is_function_pEv
6060b738 T __ZNK10__cxxabiv117__pbase_type_info10__do_catchEPKSt9type_infoPPvj
6060b7c8 T __ZN10__cxxabiv117__pbase_type_infoD0Ev
6060b7f0 T __ZN10__cxxabiv117__pbase_type_infoD1Ev
6060b804 T __ZN10__cxxabiv117__pbase_type_infoD2Ev
6060b818 T __ZN10__cxxabiv129__pointer_to_member_type_infoD0Ev
6060b840 T __ZN10__cxxabiv129__pointer_to_member_type_infoD1Ev
6060b850 T __ZN10__cxxabiv129__pointer_to_member_type_infoD2Ev
6060b860 T __ZN10__cxxabiv119__pointer_type_infoD0Ev
6060b888 T __ZN10__cxxabiv119__pointer_type_infoD1Ev
6060b89c T __ZN10__cxxabiv119__pointer_type_infoD2Ev
6060b8b0 T __ZN10__cxxabiv116__enum_type_infoD0Ev
6060b8d8 T __ZN10__cxxabiv116__enum_type_infoD1Ev
6060b8ec T __ZN10__cxxabiv116__enum_type_infoD2Ev
6060b900 T __ZN10__cxxabiv120__function_type_infoD0Ev
6060b928 T __ZN10__cxxabiv120__function_type_infoD1Ev
6060b93c T __ZN10__cxxabiv120__function_type_infoD2Ev
6060b950 T __ZN10__cxxabiv117__array_type_infoD0Ev
6060b978 T __ZN10__cxxabiv117__array_type_infoD1Ev
6060b98c T __ZN10__cxxabiv117__array_type_infoD2Ev
6060b9a0 T __ZN10__cxxabiv123__fundamental_type_infoD0Ev
6060b9c8 T __ZN10__cxxabiv123__fundamental_type_infoD1Ev
6060b9dc T __ZN10__cxxabiv123__fundamental_type_infoD2Ev
6060b9f0 T __ZNKSt9type_info6beforeERKS_
6060ba10 T __ZNK10__cxxabiv119__pointer_type_info15__pointer_catchEPKNS_17__pbase_type_infoEPPvj
6060ba74 T __ZNK10__cxxabiv129__pointer_to_member_type_info15__pointer_catchEPKNS_17__pbase_type_infoEPPvj
6060bad0 t .text
6060bad0 T __ZNKSt9exception4whatEv
6060badc T __ZNKSt13bad_exception4whatEv
6060bae8 T __ZNSt9exceptionD0Ev
6060bafc T __ZNSt9exceptionD1Ev
6060bb0c T __ZNSt9exceptionD2Ev
6060bb1c T __ZNSt13bad_exceptionD0Ev
6060bb40 T __ZNSt13bad_exceptionD1Ev
6060bb50 T __ZNSt13bad_exceptionD2Ev
6060bb60 t .text
6060bb60 T __ZSt18_Rb_tree_incrementPSt18_Rb_tree_node_base
6060bbac T __ZSt18_Rb_tree_incrementPKSt18_Rb_tree_node_base
6060bbb4 T __ZSt18_Rb_tree_decrementPSt18_Rb_tree_node_base
6060bc00 T __ZSt18_Rb_tree_decrementPKSt18_Rb_tree_node_base
6060bc08 T __ZSt20_Rb_tree_rotate_leftPSt18_Rb_tree_node_baseRS0_
6060bc58 T __ZSt21_Rb_tree_rotate_rightPSt18_Rb_tree_node_baseRS0_
6060bca8 T __ZSt29_Rb_tree_insert_and_rebalancebPSt18_Rb_tree_node_baseS0_RS_
6060bdec T __ZSt20_Rb_tree_black_countPKSt18_Rb_tree_node_baseS1_
6060be18 T __ZSt28_Rb_tree_rebalance_for_erasePSt18_Rb_tree_node_baseRS_
6060c120 t .text
6060c120 T ___cxa_call_terminate
6060c160 t .text
6060c160 t __ZN93_GLOBAL__N_.._.._.._.._gcc_4.2.1_2_src_libstdc___v3_libsupc___eh_globals.cc_00000000_497FC13610get_globalEv
6060c178 T ___cxa_get_globals_fast
6060c180 T ___cxa_get_globals
6060c190 t .text
6060c190 t .text
6060c190 T __ZSt21__copy_streambufs_eofIcSt11char_traitsIcEEiPSt15basic_streambufIT_T0_ES6_Rb
6060c290 T __ZSt21__copy_streambufs_eofIwSt11char_traitsIwEEiPSt15basic_streambufIT_T0_ES6_Rb
6060c3b0 t .text
6060c3b0 T __ZNSt5ctypeIcE13classic_tableEv
6060c3bc T __ZNKSt5ctypeIcE10do_toupperEc
6060c3e4 T __ZNKSt5ctypeIcE10do_toupperEPcPKc
6060c420 T __ZNKSt5ctypeIcE10do_tolowerEPcPKc
6060c45c T __ZNSt5ctypeIcED2Ev
6060c4b8 T __ZSt9use_facetISt5ctypeIwEERKT_RKSt6locale
6060c4d8 T __ZSt9use_facetISt5ctypeIcEERKT_RKSt6locale
6060c4f8 T __ZNSt5ctypeIcEC2EPiPKtbj
6060c588 T __ZNSt5ctypeIcEC1EPKtbj
6060c618 T __ZNSt5ctypeIcEC2EPKtbj
6060c6a8 T __ZNSt5ctypeIcEC1EPiPKtbj
6060c738 T __ZNSt5ctypeIcED0Ev
6060c7a0 T __ZNSt5ctypeIcED1Ev
6060c7fc T __ZNSt5ctypeIwEC2EPij
6060c854 t __Z41__static_initialization_and_destruction_0ii
6060c85c t __GLOBAL__I__ZNSt10ctype_base5spaceE
6060c864 T __ZNKSt5ctypeIcE10do_tolowerEc
6060c88c T __ZNSt5ctypeIwEC1Ej
6060c8e0 T __ZNSt5ctypeIwEC2Ej
6060c934 T __ZNSt5ctypeIwED0Ev
6060c988 T __ZNSt5ctypeIwED1Ev
6060c9d4 T __ZNSt5ctypeIwED2Ev
6060ca20 T __ZNSt12ctype_bynameIwEC1EPKcj
6060cab4 T __ZNSt12ctype_bynameIwEC2EPKcj
6060cb48 T __ZNSt5ctypeIwEC1EPij
6060cba0 t .text
6060cba0 t .text
6060cba0 T __ZSt15set_new_handlerPFvvE
6060cbb4 T __ZNKSt9bad_alloc4whatEv
6060cbc0 T __ZNSt9bad_allocD0Ev
6060cbe8 T __ZNSt9bad_allocD1Ev
6060cbfc T __ZNSt9bad_allocD2Ev
6060cc10 t .text
6060cc10 t .text
6060cc10 t .text
6060cc10 t __ZSt17__verify_groupingPKcjRKSs
6060ccb8 t __Z41__static_initialization_and_destruction_0ii
6060cd90 t __GLOBAL__I_.._.._.._.._gcc_4.2.1_2_src_libstdc___v3_src_locale_inst.cc_6FCA3617_1C18F898
6060cdb0 t .text
6060cdb0 T __ZNSt8ios_base5imbueERKSt6locale
6060cdec T __ZNSt8ios_base7_M_initEv
6060ce40 t .text
6060ce40 t __ZSt17__verify_groupingPKcjRKSs
6060cee8 t __Z41__static_initialization_and_destruction_0ii
6060cfc0 t __GLOBAL__I_.._.._.._.._gcc_4.2.1_2_src_libstdc___v3_src_wlocale_inst.cc_76D38880_5E342390
6060cfe0 t .text
6060cfe0 T __ZNKSt13runtime_error4whatEv
6060cfec T __ZNSt11logic_errorD1Ev
6060d080 T __ZNSt13runtime_errorC2ERKSs
6060d0bc T __ZNSt15underflow_errorC1ERKSs
6060d0e0 T __ZNSt15underflow_errorC2ERKSs
6060d104 T __ZNSt14overflow_errorC1ERKSs
6060d128 T __ZNSt14overflow_errorC2ERKSs
6060d14c T __ZNSt11range_errorC1ERKSs
6060d170 T __ZNSt11range_errorC2ERKSs
6060d194 T __ZNSt11logic_errorC1ERKSs
6060d1d0 T __ZNSt11logic_errorC2ERKSs
6060d20c T __ZNSt12out_of_rangeC1ERKSs
6060d230 T __ZNSt12out_of_rangeC2ERKSs
6060d254 T __ZNSt12length_errorC1ERKSs
6060d278 T __ZNSt12length_errorC2ERKSs
6060d29c T __ZNSt16invalid_argumentC1ERKSs
6060d2c0 T __ZNSt16invalid_argumentC2ERKSs
6060d2e4 T __ZNSt12domain_errorC1ERKSs
6060d308 T __ZNSt12domain_errorC2ERKSs
6060d32c T __ZNKSt11logic_error4whatEv
6060d338 T __ZNSt13runtime_errorC1ERKSs
6060d374 T __ZNSt13runtime_errorD1Ev
6060d408 T __ZNSt13runtime_errorD2Ev
6060d49c T __ZNSt13runtime_errorD0Ev
6060d538 T __ZNSt11logic_errorD2Ev
6060d5cc T __ZNSt11logic_errorD0Ev
6060d670 t .text
6060d670 T __ZNKSt8ios_base7failure4whatEv
6060d67c T __ZNSt8ios_base7failureD1Ev
6060d710 T __ZNSt8ios_base7failureC1ERKSs
6060d75c T __ZNSt8ios_base7failureC2ERKSs
6060d7a8 T __ZNSt8ios_base7failureD2Ev
6060d83c T __ZNSt8ios_base7failureD0Ev
6060d8e0 t .text
6060d8e0 T __ZNSi6ignoreEi
6060dac0 T __ZNSt13basic_istreamIwSt11char_traitsIwEE6ignoreEi
6060dcd0 t .text
6060dcd0 T __ZNKSt7codecvtIcciE6do_outERiPKcS3_RS3_PcS5_RS5_
6060dcec T __ZNKSt7codecvtIcciE10do_unshiftERiPcS2_RS2_
6060dd00 T __ZNKSt7codecvtIcciE5do_inERiPKcS3_RS3_PcS5_RS5_
6060dd1c T __ZNKSt7codecvtIcciE11do_encodingEv
6060dd28 T __ZNKSt7codecvtIcciE16do_always_noconvEv
6060dd34 T __ZNKSt7codecvtIcciE13do_max_lengthEv
6060dd40 T __ZNKSt7codecvtIwciE10do_unshiftERiPcS2_RS2_
6060dd54 T __ZNKSt7codecvtIwciE16do_always_noconvEv
6060dd5c T __ZNKSt7codecvtIcciE9do_lengthERiPKcS3_j
6060dd84 t __Z41__static_initialization_and_destruction_0ii
6060dd8c t __GLOBAL__I__ZNSt7codecvtIcciE2idE
6060dd94 T __ZNSt7codecvtIcciED2Ev
6060dde0 T __ZNSt7codecvtIcciEC1EPij
6060de2c T __ZNSt7codecvtIcciEC2EPij
6060de78 T __ZNSt7codecvtIcciEC1Ej
6060debc T __ZNSt7codecvtIcciEC2Ej
6060df00 T __ZNSt7codecvtIwciED0Ev
6060df54 T __ZNSt7codecvtIwciEC1EPij
6060dfa0 T __ZNSt7codecvtIwciEC2EPij
6060dfec T __ZNSt7codecvtIwciEC1Ej
6060e030 T __ZNSt7codecvtIwciEC2Ej
6060e074 T __ZNSt7codecvtIwciED1Ev
6060e0c0 T __ZNSt7codecvtIwciED2Ev
6060e10c T __ZNSt7codecvtIcciED0Ev
6060e160 T __ZNSt7codecvtIcciED1Ev
6060e1b0 t .text
6060e1b0 T __ZNSt8numpunctIwED0Ev
6060e200 T __ZNSt8numpunctIwED1Ev
6060e244 T __ZNSt8numpunctIwED2Ev
6060e288 T __ZNSt8numpunctIcED0Ev
6060e2d8 T __ZNSt8numpunctIcED1Ev
6060e31c T __ZNSt8numpunctIcED2Ev
6060e360 T __ZNSt8numpunctIwE22_M_initialize_numpunctEPi
6060e464 T __ZNSt8numpunctIcE22_M_initialize_numpunctEPi
6060e570 t .text
6060e570 T __ZNSt10money_base20_S_construct_patternEccc
6060e57c T __ZNSt10moneypunctIwLb0EED0Ev
6060e5cc T __ZNSt10moneypunctIwLb0EED1Ev
6060e610 T __ZNSt10moneypunctIwLb0EED2Ev
6060e654 T __ZNSt10moneypunctIwLb1EED0Ev
6060e6a4 T __ZNSt10moneypunctIwLb1EED1Ev
6060e6e8 T __ZNSt10moneypunctIwLb1EED2Ev
6060e72c T __ZNSt10moneypunctIcLb0EED0Ev
6060e77c T __ZNSt10moneypunctIcLb0EED1Ev
6060e7c0 T __ZNSt10moneypunctIcLb0EED2Ev
6060e804 T __ZNSt10moneypunctIcLb1EED0Ev
6060e854 T __ZNSt10moneypunctIcLb1EED1Ev
6060e898 T __ZNSt10moneypunctIcLb1EED2Ev
6060e8dc T __ZNSt10moneypunctIwLb0EE24_M_initialize_moneypunctEPiPKc
6060e9fc T __ZNSt10moneypunctIwLb1EE24_M_initialize_moneypunctEPiPKc
6060eb1c T __ZNSt10moneypunctIcLb0EE24_M_initialize_moneypunctEPiPKc
6060ec40 T __ZNSt10moneypunctIcLb1EE24_M_initialize_moneypunctEPiPKc
6060ed70 t .text
6060ed70 T __ZNSt6locale5facet19_S_destroy_c_localeERPi
6060ed80 T __ZNSt6locale5facet17_S_clone_c_localeERPi
6060ed88 T __ZNSt6locale5facet18_S_create_c_localeERPiPKcS1_
6060edbc T __ZSt14__convert_to_vIdEvPKcRT_RSt12_Ios_IostateRKPi
6060ee48 T __ZSt14__convert_to_vIfEvPKcRT_RSt12_Ios_IostateRKPi
6060eed4 T __ZSt14__convert_to_vIeEvPKcRT_RSt12_Ios_IostateRKPi
6060ef60 t .text
6060ef60 T ___cxa_bad_typeid
6060ef88 T ___cxa_bad_cast
6060efb0 t .text
6060efb0 T __ZNKSt5ctypeIwE10do_scan_isEtPKwS2_
6060eff4 T __ZNKSt5ctypeIwE11do_scan_notEtPKwS2_
6060f038 T __ZNKSt5ctypeIwE8do_widenEc
6060f04c T __ZNKSt5ctypeIwE8do_widenEPKcS2_Pw
6060f080 T __ZNKSt5ctypeIwE9do_narrowEPKwS2_cPc
6060f11c T __ZNKSt5ctypeIwE9do_narrowEwc
6060f16c T __ZNKSt5ctypeIwE5do_isEPKwS2_Pt
6060f1d8 T __ZNKSt5ctypeIwE5do_isEtw
6060f238 T __ZNKSt5ctypeIwE10do_tolowerEPwPKw
6060f26c T __ZNKSt5ctypeIwE10do_tolowerEw
6060f284 T __ZNKSt5ctypeIwE10do_toupperEPwPKw
6060f2b8 T __ZNKSt5ctypeIwE10do_toupperEw
6060f2d0 T __ZNKSt5ctypeIwE19_M_convert_to_wmaskEt
6060f440 T __ZNSt5ctypeIwE19_M_initialize_ctypeEv
6060f51c T __ZNSt12ctype_bynameIcEC1EPKcj
6060f5ac T __ZNSt12ctype_bynameIcEC2EPKcj
6060f640 t .text
6060f640 T __ZN9__gnu_cxx27__verbose_terminate_handlerEv
6060f790 t .text
6060f790 T __ZNSt10__num_base15_S_format_floatERKSt8ios_basePcc
6060f840 t .text
6060f840 T __ZNSt11__timepunctIwE23_M_initialize_timepunctEPi
6060fb84 T __ZNSt11__timepunctIcE23_M_initialize_timepunctEPi
6060fec8 T __ZNKSt11__timepunctIwE6_M_putEPwjPKwPK2tm
6060ff30 T __ZNKSt11__timepunctIcE6_M_putEPcjPKcPK2tm
6060ffa0 t .text
6060ffa0 T __ZNKSt7collateIwE12_M_transformEPwPKwj
6060ffbc T __ZNKSt7collateIwE10_M_compareEPKwS2_
6060ffe0 T __ZNKSt7collateIcE12_M_transformEPcPKcj
6060fffc T __ZNKSt7collateIcE10_M_compareEPKcS2_
60610020 t .text
60610020 T __ZNKSt8messagesIwE6do_getEiiiRKSbIwSt11char_traitsIwESaIwEE
6061003c T __ZNKSt8messagesIcE6do_getEiiiRKSs
60610060 t .text
60610060 T __ZNKSt7codecvtIwciE11do_encodingEv
60610074 T __ZNKSt7codecvtIwciE13do_max_lengthEv
60610080 T __ZNKSt7codecvtIwciE9do_lengthERiPKcS3_j
606100f8 T __ZNKSt7codecvtIwciE5do_inERiPKcS3_RS3_PwS5_RS5_
6061018c T __ZNKSt7codecvtIwciE6do_outERiPKwS3_RS3_PcS5_RS5_
60610270 t .text
60610270 T ___cxa_current_exception_type
60610290 t .text
60610290 t _d_make_empty
606102c0 t _d_make_comp
60610308 t _d_make_name
60610340 t _d_make_sub
60610364 t _is_ctor_dtor_or_conversion
60610398 t _has_return_type
606103dc t _d_number
60610450 t _d_call_offset
606104a8 t _d_cv_qualifiers
60610538 t _d_template_param
606105a4 t _d_discriminator
606105cc t _d_add_substitution
606105fc t _d_substitution
60610714 t _d_print_error
60610734 t _d_source_name
60610804 t _d_expression
60610a20 t _d_type
60610d98 t _d_bare_function_type
60610e6c t _d_operator_name
60610f90 t _d_unqualified_name
606110d8 t _d_name
60611388 t _d_class_enum_type
60611394 t _d_encoding
606116bc t _d_mangled_name
606116f8 t _d_expr_primary
606117c8 t _d_template_args
60611878 t _d_print_resize
606118dc t _d_print_append_buffer
60611930 t _d_print_append_char
60611970 t _d_print_comp
60613078 t _d_print_cast
60613190 t _d_print_expr_op
6061320c t _d_print_mod
60613464 t _d_print_mod_list
606135a4 t _d_print_array_type
606136e8 t _d_print_function_type
60613934 t _d_demangle
60613c04 T ___cxa_demangle
60613d10 t .text
60613d10 t ___dyn_tls_dtor@12
60613d44 T ___dyn_tls_init@12
60613dc4 T ___tlregdtor
60613dcc t .text
60613dcc T _DllMain@12
60613dd8 t .text
60613dd8 t ___report_error
60613e24 t ___write_memory
60613f08 T __pei386_runtime_relocator
606140d4 t .text
606140d4 t .text
606140d4 t ___mingwthr_run_key_dtors
60614144 T ____w64_mingwthr_add_key_dtor
606141b4 T ____w64_mingwthr_remove_key_dtor
60614240 T ___mingw_TLScallback
606142b8 t .text
606142c0 t .text
606142c0 t .text
606142c0 t _read_uleb128
606142fc t _read_sleb128
60614354 T __Unwind_GetCFA
60614360 T __Unwind_GetIP
6061436c T __Unwind_SetIP
6061437c T __Unwind_GetLanguageSpecificData
60614388 T __Unwind_GetRegionStart
60614394 T __Unwind_GetDataRelBase
606143a0 T __Unwind_GetTextRelBase
606143ac T __Unwind_DeleteException
606143cc T __Unwind_SetGR
6061440c T __Unwind_GetGR
6061444c t _read_encoded_value_with_base
60614500 t _base_of_encoded_value
60614558 t _init_dwarf_reg_size_table
606145d0 T __Unwind_FindEnclosingFunction
606145f0 T __Unwind_GetIPInfo
60614608 t _execute_cfa_program
60614a84 t _uw_frame_state_for
60614fbc T ___frame_state_for
60615078 t _execute_stack_op
6061552c t _uw_update_context_1
60615794 t _uw_init_context_1
60615924 t _uw_install_context_1
60615a38 t _uw_update_context
60615a88 T __Unwind_Backtrace
60615b14 t __Unwind_RaiseException_Phase2
60615b94 T __Unwind_RaiseException
60615cc8 t __Unwind_ForcedUnwind_Phase2
60615d78 T __Unwind_Resume_or_Rethrow
60615e24 T __Unwind_Resume
60615ec8 T __Unwind_ForcedUnwind
60615f70 t .text
60615f70 T ___fixunsdfdi
60615fd0 t .text
60615fd0 T ___umoddi3
60616120 t .text
60616120 T ___udivdi3
60616250 t .text
60616250 T ___gthr_win32_recursive_mutex_unlock
606162a0 T ___gthr_win32_mutex_unlock
606162dc T ___gthr_win32_recursive_mutex_trylock
60616328 T ___gthr_win32_recursive_mutex_lock
606163a4 T ___gthr_win32_mutex_lock
606163f0 T ___gthr_win32_recursive_mutex_init_function
60616428 T ___gthr_win32_mutex_init_function
60616450 T ___gthr_win32_setspecific
60616474 T ___gthr_win32_getspecific
6061649c T ___gthr_win32_key_delete
606164c0 T ___gthr_win32_key_create
606164f0 T ___gthr_win32_once
60616560 T ___gthr_win32_mutex_trylock
60616580 t .text
60616580 T ___chkstk
60616580 T __alloca
60616586 t probe
6061659d t done
606165b0 t .text
606165b0 T ___emutls_register_common
606165e8 t _emutls_alloc
60616678 t _emutls_init
606166d0 t _emutls_destroy
60616714 T ___emutls_get_address
60616950 t .text
60616950 t _read_uleb128
6061698c t _read_sleb128
606169e4 t _fde_unencoded_compare
60616a04 t _frame_downheap
60616a9c t _frame_heapsort
60616b28 t _init_object_mutex_once
60616b88 t _init_object_mutex
60616bb0 t _base_from_object
60616bf4 t _read_encoded_value_with_base
60616ca8 t _fde_single_encoding_compare
60616d24 t _get_cie_encoding
60616dcc t _size_of_encoded_value
60616e10 t _linear_search_fdes
60616f34 t _add_fdes
60617034 t _classify_object_over_fdes
60617168 t _search_object
60617714 t _fde_mixed_encoding_compare
606177a0 T ___register_frame_info_bases
60617884 T ___register_frame_info
606178a0 T ___register_frame
606178cc T __Unwind_Find_FDE
60617a88 T ___deregister_frame_info_bases
60617bcc T ___deregister_frame_info
60617bd8 T ___deregister_frame
60617c04 T ___register_frame_info_table_bases
60617cd8 T ___register_frame_info_table
60617cf4 T ___register_frame_table
60617d20 t .text
60617d20 T _strdup
60617d30 t .text
60617d30 T _write
60617d40 t .text
60617d40 T _fdopen
60617d50 t .text
60617d50 T _read
60617d60 t .text
60617d60 t .text
60617d60 t .text
60617d60 T _fseeko64
60617e08 t .text
60617e08 T _wmemchr
60617e38 t .text
60617e38 T _wmemcpy
60617e68 t .text
60617e68 T _wmemcmp
60617ec8 t .text
60617ec8 T _wmemmove
60617f20 t .text
60617f20 T _wmemset
60617f44 t .text
60617f44 T ___mingw_vsnprintf
60617f44 T _vsnprintf
60617fb8 t .text
60617fb8 T ___strtof
60617fb8 T _strtof
60618048 t .text
60618048 T ___strtold
60618048 T _strtold
60618168 t .text
60618168 T _wctype
606181ac t .text
606181ac T _wctob
60618258 t .text
60618258 T _btowc
606182f0 t .text
606182f0 t ___wcrtomb_cp
60618378 T _wcrtomb
606183e4 T _wcsrtombs
60618518 t .text
60618518 t ___mbrtowc_cp
6061867c T _mbrtowc
6061870c T _mbsrtowcs
60618850 T _mbrlen
606188d0 t .text
606188d0 t ___pformat_cvt
606189c0 t ___pformat_putc
60618a14 t ___pformat_wputchars
60618b20 t ___pformat_putchars
60618bc8 t ___pformat_emit_inf_or_nan
60618c50 t ___pformat_int
60618eb8 t ___pformat_xint
60619128 t ___pformat_emit_radix_point
6061921c t ___pformat_emit_float
60619438 t ___pformat_emit_efloat
60619504 t ___pformat_efloat
606195b4 t ___pformat_float
6061968c t ___pformat_gfloat
6061980c t ___pformat_xldouble
60619d2c T ___mingw_pformat
6061a5f4 t .text
6061a5f4 T ___increment_D2A
6061a680 t _rvOK
6061a990 T ___decrement_D2A
6061a9bc T ___set_ones_D2A
6061aa34 T ___strtodg
6061c838 t .text
6061c838 T ___gdtoa
6061dc3c t .text
6061dc3c T ___rv_alloc_D2A
6061dc70 T ___nrv_alloc_D2A
6061dcb0 T ___freedtoa
6061dcd8 T ___quorem_D2A
6061df1c t .text
6061df1c t _dtoa_lock
6061dfcc t _dtoa_lock_cleanup
6061e00c t _dtoa_unlock
6061e034 T ___Balloc_D2A
6061e0e4 T ___Bfree_D2A
6061e130 T ___multadd_D2A
6061e224 T ___i2b_D2A
6061e24c T ___mult_D2A
6061e3c4 T ___pow5mult_D2A
6061e4dc T ___lshift_D2A
6061e5cc T ___cmp_D2A
6061e614 T ___diff_D2A
6061e794 T ___b2d_D2A
6061e88c T ___d2b_D2A
6061e970 T ___strcp_D2A
6061e990 t .text
6061e990 T ___s2b_D2A
6061ea70 T ___ratio_D2A
6061eb00 T ___match_D2A
6061eb40 T ___copybits_D2A
6061eb9c T ___any_on_D2A
6061ebfc t .text
6061ebfc T ___rshift_D2A
6061ecf0 T ___trailz_D2A
6061ed34 t .text
6061ed34 T ___sum_D2A
6061eea8 t .text
6061eea8 T ___gethex_D2A
6061f800 t .text
6061f800 T ___hexnan_D2A
6061fb38 t .text
6061fb38 T _hexdig_init_D2A
6061fbb0 t .text
6061fbb0 T _free
6061fbc0 t .text
6061fbc0 T _fflush
6061fbd0 t .text
6061fbd0 T _malloc
6061fbe0 t .text
6061fbe0 T __errno
6061fbf0 t .text
6061fbf0 T ___dllonexit
6061fc00 t .text
6061fc00 T _sprintf
6061fc10 t .text
6061fc10 T __assert
6061fc20 t .text
6061fc20 T _memcpy
6061fc30 t .text
6061fc30 T _pow
6061fc40 t .text
6061fc40 T _getenv
6061fc50 t .text
6061fc50 T _memmove
6061fc60 t .text
6061fc60 t .text
6061fc60 T _printf
6061fc70 t .text
6061fc70 T _puts
6061fc80 t .text
6061fc80 T _atoi
6061fc90 t .text
6061fc90 T _strrchr
6061fca0 t .text
6061fca0 T _fwrite
6061fcb0 t .text
6061fcb0 T _log10
6061fcc0 t .text
6061fcc0 T _modf
6061fcd0 t .text
6061fcd0 t .text
6061fcd0 t .text
6061fcd0 T __isctype
6061fce0 t .text
6061fce0 T _strcpy
6061fcf0 t .text
6061fcf0 T _strcmp
6061fd00 t .text
6061fd00 T _strncmp
6061fd10 t .text
6061fd10 T _vsprintf
6061fd20 t .text
6061fd20 T _ceil
6061fd30 t .text
6061fd30 T _floor
6061fd40 t .text
6061fd40 T _memset
6061fd50 t .text
6061fd50 T _fmod
6061fd60 t .text
6061fd60 T _fputs
6061fd70 t .text
6061fd70 T _vfprintf
6061fd80 t .text
6061fd80 T _fprintf
6061fd90 t .text
6061fd90 T _abort
6061fda0 t .text
6061fda0 T _toupper
6061fdb0 t .text
6061fdb0 T _memchr
6061fdc0 t .text
6061fdc0 T _strchr
6061fdd0 t .text
6061fdd0 T _isalnum
6061fde0 t .text
6061fde0 T _wcslen
6061fdf0 t .text
6061fdf0 T __filbuf
6061fe00 t .text
6061fe00 T __flsbuf
6061fe10 t .text
6061fe10 T _fgetpos
6061fe20 t .text
6061fe20 T _ungetc
6061fe30 t .text
6061fe30 T _fread
6061fe40 t .text
6061fe40 T _getwc
6061fe50 t .text
6061fe50 T _ungetwc
6061fe60 t .text
6061fe60 T _putwc
6061fe70 t .text
6061fe70 T _setlocale
6061fe80 t .text
6061fe80 T _fopen
6061fe90 t .text
6061fe90 T __lseeki64
6061fea0 t .text
6061fea0 T _setvbuf
6061feb0 t .text
6061feb0 T _fclose
6061fec0 t .text
6061fec0 T __fstat64
6061fed0 t .text
6061fed0 T _strtod
6061fee0 t .text
6061fee0 T _towupper
6061fef0 t .text
6061fef0 T _towlower
6061ff00 t .text
6061ff00 T _iswctype
6061ff10 t .text
6061ff10 T _fputc
6061ff20 t .text
6061ff20 T _strftime
6061ff30 t .text
6061ff30 T _wcsftime
6061ff40 t .text
6061ff40 T _strcoll
6061ff50 t .text
6061ff50 T _strxfrm
6061ff60 t .text
6061ff60 T _wcscoll
6061ff70 t .text
6061ff70 T _wcsxfrm
6061ff80 t .text
6061ff80 T _realloc
6061ff90 t .text
6061ff90 T _strcat
6061ffa0 t .text
6061ffa0 T _calloc
6061ffb0 t .text
6061ffb0 T _fsetpos
6061ffc0 t .text
6061ffc0 T __filelengthi64
6061ffd0 t .text
6061ffd0 T _localeconv
6061ffe0 t .text
6061ffe0 T __get_output_format
6061fff0 t .text
6061fff0 t .text
6061fff0 t .text
6061fff0 T _GetModuleHandleA@4
6061fff8 t .text
6061fff8 T _GetProcAddress@8
60620000 t .text
60620000 T _LeaveCriticalSection@4
60620008 t .text
60620008 T _TryEnterCriticalSection@4
60620010 t .text
60620010 T _EnterCriticalSection@4
60620018 t .text
60620018 T _InitializeCriticalSection@4
60620020 t .text
60620020 T _DeleteCriticalSection@4
60620028 t .text
60620028 T _VirtualQuery@12
60620030 t .text
60620030 T _VirtualProtect@16
60620038 t .text
60620038 T _TlsGetValue@4
60620040 t .text
60620040 T _GetLastError@0
60620048 t .text
60620048 T _InterlockedIncrement@4
60620050 t .text
60620050 T _Sleep@4
60620058 t .text
60620058 T _InterlockedDecrement@4
60620060 t .text
60620060 T _ReleaseSemaphore@12
60620068 t .text
60620068 T _GetCurrentThreadId@0
60620070 t .text
60620070 T _WaitForSingleObject@8
60620078 t .text
60620078 T _CreateSemaphoreA@16
60620080 t .text
60620080 T _TlsSetValue@8
60620088 t .text
60620088 T _SetLastError@4
60620090 t .text
60620090 T _TlsFree@4
60620098 t .text
60620098 T _TlsAlloc@0
606200a0 t .text
606200a0 T _WideCharToMultiByte@32
606200a8 t .text
606200a8 T _MultiByteToWideChar@24
606200b0 t .text
606200b0 T _IsDBCSLeadByteEx@8
606200b8 t .text
606200b8 T _InterlockedExchange@8
606200c0 t .text
606200c0 t .text
606200c0 t .text
606200c0 T ___mingwthr_remove_key_dtor
606200cc T ___mingwthr_key_dtor
606200f0 t .text
606200f0 t .text
606200f0 T _mti_ActivateScMethodProcess
60620100 t .text
60620100 T _mti_ActivateScPrimChannel
60620110 t .text
60620110 T _mti_ActivateScThreadProcess
60620120 t .text
60620120 T _mti_AddScApiToFuncTray
60620130 t .text
60620130 T _mti_CancelScEvent
60620140 t .text
60620140 T _mti_ConnectToHdlParentSignal
60620150 t .text
60620150 T _mti_ConnectToScParentSignal
60620160 t .text
60620160 T _mti_CreateModuleVariables
60620170 t .text
60620170 T _mti_CreateNativeCType
60620180 t .text
60620180 T _mti_CreateScEvent
60620190 t .text
60620190 T _mti_CreateScFixedPointType
606201a0 t .text
606201a0 T _mti_CreateScPrimChannel
606201b0 t .text
606201b0 T _mti_CreateScProcess
606201c0 t .text
606201c0 T _mti_CreateScRegion
606201d0 t .text
606201d0 T _mti_CreateScScalarType
606201e0 t .text
606201e0 T _mti_CreateScSignalAlias
606201f0 t .text
606201f0 T _mti_CreateScVectorType
60620200 t .text
60620200 T _mti_DeactivateScMethodProcess
60620210 t .text
60620210 T _mti_DeactivateScThreadProcess
60620220 t .text
60620220 T _mti_DeleteScEvent
60620230 t .text
60620230 T _mti_DestroyGenericList
60620240 t .text
60620240 T _mti_FindGeneric
60620250 t .text
60620250 T _mti_FreeScProcess
60620260 t .text
60620260 T _mti_GetHdlGenericList
60620270 t .text
60620270 T _mti_GetIniVarValue
60620280 t .text
60620280 T _mti_GetIntGenericValue
60620290 t .text
60620290 T _mti_GetRealGenericValue
606202a0 t .text
606202a0 T _mti_GetResolutionLimitEx
606202b0 t .text
606202b0 T _mti_GetScArgc
606202c0 t .text
606202c0 T _mti_GetScArgv
606202d0 t .text
606202d0 T _mti_GetScCurrContextPathName
606202e0 t .text
606202e0 T _mti_GetScMessage
606202f0 t .text
606202f0 T _mti_GetScPathSeparator
60620300 t .text
60620300 T _mti_GetScStackSizeSpecified
60620310 t .text
60620310 T _mti_GetScTimeUnit
60620320 t .text
60620320 T _mti_GetStringGenericValue
60620330 t .text
60620330 T _mti_IsScEvaluationPhase
60620340 t .text
60620340 T _mti_IsScProcQueued
60620350 t .text
60620350 T _mti_IsScUpdatePhase
60620360 t .text
60620360 T _mti_IsSystemcCleanup
60620370 t .text
60620370 T _mti_IsVoptMode
60620380 t .text
60620380 T _mti_MakeScPrimChannelResolved
60620390 t .text
60620390 T _mti_PrintScMessage
606203a0 t .text
606203a0 T _mti_ProcessGetParamInVopt
606203b0 t .text
606203b0 T _mti_RemoveEventFromEventList
606203c0 t .text
606203c0 T _mti_ScCheckSimulatorRunning
606203d0 t .text
606203d0 T _mti_ScControlHdlSignal
606203e0 t .text
606203e0 T _mti_ScDelta
606203f0 t .text
606203f0 T _mti_ScDoneLoadingSo
60620400 t .text
60620400 T _mti_ScError
60620410 t .text
60620410 T _mti_ScGetKernelFlags
60620420 t .text
60620420 T _mti_ScGetNextEventTime
60620430 t .text
60620430 T _mti_ScGetNow
60620440 t .text
60620440 T _mti_ScInitSignalDriver
60620450 t .text
60620450 T _mti_ScInitSignalSpy
60620460 t .text
60620460 T _mti_ScIsCheckpointRestoreEnabled
60620470 t .text
60620470 T _mti_ScObserveHdlSignal
60620480 t .text
60620480 T _mti_ScPause
60620490 t .text
60620490 T _mti_ScScheduleThisProcessNext
606204a0 t .text
606204a0 T _mti_ScSetSimulatorRunning
606204b0 t .text
606204b0 T _mti_ScSetTypename
606204c0 t .text
606204c0 T _mti_ScStop
606204d0 t .text
606204d0 T _mti_ScVsimOrVoptAlreadyShutdown
606204e0 t .text
606204e0 T _mti_ScWarnChkptRestoreScElementDisable
606204f0 t .text
606204f0 T _mti_ScheduleScClockEvent
60620500 t .text
60620500 T _mti_ScheduleScEvent
60620510 t .text
60620510 T _mti_SetBoundaryChannelDebugInfo
60620520 t .text
60620520 T _mti_SetResolutionLimit
60620530 t .text
60620530 T _mti_SetScMainScope
60620540 t .text
60620540 T _mti_SetScProcessDebugInfo
60620550 t .text
60620550 T _mti_SetScRegionDebugInfo
60620560 t .text
60620560 T _mti_SetScStartMode
60620570 t .text
60620570 T _mti_StripScMainScopeName
60620580 t .text
60620580 T _mti_WarnIncompleteAggregates
60620590 t .text
60620590 T _mti_cdbg_suspend_me_wrapper
606205a0 t .text
606205a0 T _svGetBitselBit
606205b0 t .text
606205b0 T _svPutBitselBit
606205b8 t .text$_ZN10lk_counter5countEv
606205b8 T __ZN10lk_counter5countEv
60620824 t .text$_ZN10lk_counterC1EN7sc_core14sc_module_nameE
60620824 T __ZN10lk_counterC1EN7sc_core14sc_module_nameE
60620cdc t .text$_ZN10lk_counterD0Ev
60620cdc T __ZN10lk_counterD0Ev
60620e78 t .text$_ZN10lk_counterD1Ev
60620e78 T __ZN10lk_counterD1Ev
60621014 t .text$_ZN13sc_mti_access17mti_set_dpi_valueEPv
60621014 T __ZN13sc_mti_access17mti_set_dpi_valueEPv
6062101c t .text$_ZN13sc_mti_access18mti_get_value_sizeEPiS0_S0_
6062101c T __ZN13sc_mti_access18mti_get_value_sizeEPiS0_S0_
6062103c t .text$_ZN13sc_mti_access18mti_get_value_typeEv
6062103c T __ZN13sc_mti_access18mti_get_value_typeEv
60621048 t .text$_ZN13sc_mti_accessC2Ev
60621048 T __ZN13sc_mti_accessC2Ev
60621058 t .text$_ZN13sc_mti_accessD0Ev
60621058 T __ZN13sc_mti_accessD0Ev
60621084 t .text$_ZN13sc_mti_accessD1Ev
60621084 T __ZN13sc_mti_accessD1Ev
606210b0 t .text$_ZN13sc_mti_accessD2Ev
606210b0 T __ZN13sc_mti_accessD2Ev
606210dc t .text$_ZN5sc_dt10sc_bv_baseD0Ev
606210dc T __ZN5sc_dt10sc_bv_baseD0Ev
60621134 t .text$_ZN5sc_dt10sc_bv_baseD1Ev
60621134 T __ZN5sc_dt10sc_bv_baseD1Ev
60621184 t .text$_ZN5sc_dt10sc_io_baseERSoNS_9sc_numrepE
60621184 T __ZN5sc_dt10sc_io_baseERSoNS_9sc_numrepE
6062121c t .text$_ZN5sc_dt11sc_unsignedD0Ev
6062121c T __ZN5sc_dt11sc_unsignedD0Ev
60621278 t .text$_ZN5sc_dt11sc_unsignedD1Ev
60621278 T __ZN5sc_dt11sc_unsignedD1Ev
606212d0 t .text$_ZN5sc_dt11scfx_stringpLEc
606212d0 T __ZN5sc_dt11scfx_stringpLEc
606213ac t .text$_ZN5sc_dt12sc_uint_base11extend_signEv
606213ac T __ZN5sc_dt12sc_uint_base11extend_signEv
60621410 t .text$_ZN5sc_dt12sc_uint_baseC2Ei
60621410 T __ZN5sc_dt12sc_uint_baseC2Ei
606214d4 t .text$_ZN5sc_dt12sc_uint_baseD0Ev
606214d4 T __ZN5sc_dt12sc_uint_baseD0Ev
60621518 t .text$_ZN5sc_dt12sc_uint_baseD1Ev
60621518 T __ZN5sc_dt12sc_uint_baseD1Ev
60621554 t .text$_ZN5sc_dt12sc_uint_baseD2Ev
60621554 T __ZN5sc_dt12sc_uint_baseD2Ev
606215d4 t .text$_ZN5sc_dt12sc_uint_baseaSEi
606215d4 T __ZN5sc_dt12sc_uint_baseaSEi
606215f8 t .text$_ZN5sc_dt12sc_uint_baseaSEy
606215f8 T __ZN5sc_dt12sc_uint_baseaSEy
6062162c t .text$_ZN5sc_dt13sc_fxnum_fastD0Ev
6062162c T __ZN5sc_dt13sc_fxnum_fastD0Ev
60621664 t .text$_ZN5sc_dt13sc_fxnum_fastD1Ev
60621664 T __ZN5sc_dt13sc_fxnum_fastD1Ev
60621694 t .text$_ZN5sc_dt13sc_value_baseC2Ev
60621694 T __ZN5sc_dt13sc_value_baseC2Ev
606216a4 t .text$_ZN5sc_dt13sc_value_baseD0Ev
606216a4 T __ZN5sc_dt13sc_value_baseD0Ev
606216b8 t .text$_ZN5sc_dt13sc_value_baseD1Ev
606216b8 T __ZN5sc_dt13sc_value_baseD1Ev
606216c8 t .text$_ZN5sc_dt13sc_value_baseD2Ev
606216c8 T __ZN5sc_dt13sc_value_baseD2Ev
606216f4 t .text$_ZN5sc_dt14sc_uint_bitrefD0Ev
606216f4 T __ZN5sc_dt14sc_uint_bitrefD0Ev
60621708 t .text$_ZN5sc_dt14sc_uint_bitrefD1Ev
60621708 T __ZN5sc_dt14sc_uint_bitrefD1Ev
60621718 t .text$_ZN5sc_dt14sc_uint_subrefD0Ev
60621718 T __ZN5sc_dt14sc_uint_subrefD0Ev
6062172c t .text$_ZN5sc_dt14sc_uint_subrefD1Ev
6062172c T __ZN5sc_dt14sc_uint_subrefD1Ev
6062173c t .text$_ZN5sc_dt15sc_io_show_baseERSo
6062173c T __ZN5sc_dt15sc_io_show_baseERSo
60621770 t .text$_ZN5sc_dt16sc_signed_bitrefD0Ev
60621770 T __ZN5sc_dt16sc_signed_bitrefD0Ev
60621784 t .text$_ZN5sc_dt16sc_signed_bitrefD1Ev
60621784 T __ZN5sc_dt16sc_signed_bitrefD1Ev
60621794 t .text$_ZN5sc_dt16sc_signed_subrefD0Ev
60621794 T __ZN5sc_dt16sc_signed_subrefD0Ev
606217a8 t .text$_ZN5sc_dt16sc_signed_subrefD1Ev
606217a8 T __ZN5sc_dt16sc_signed_subrefD1Ev
606217b8 t .text$_ZN5sc_dt16sc_uint_bitref_rD0Ev
606217b8 T __ZN5sc_dt16sc_uint_bitref_rD0Ev
606217cc t .text$_ZN5sc_dt16sc_uint_bitref_rD1Ev
606217cc T __ZN5sc_dt16sc_uint_bitref_rD1Ev
606217dc t .text$_ZN5sc_dt16sc_uint_subref_rD0Ev
606217dc T __ZN5sc_dt16sc_uint_subref_rD0Ev
606217f0 t .text$_ZN5sc_dt16sc_uint_subref_rD1Ev
606217f0 T __ZN5sc_dt16sc_uint_subref_rD1Ev
60621800 t .text$_ZN5sc_dt17sc_fxnum_observer4readERKNS_8sc_fxnumE
60621800 T __ZN5sc_dt17sc_fxnum_observer4readERKNS_8sc_fxnumE
60621808 t .text$_ZN5sc_dt17sc_fxnum_observer5writeERKNS_8sc_fxnumE
60621808 T __ZN5sc_dt17sc_fxnum_observer5writeERKNS_8sc_fxnumE
60621810 t .text$_ZN5sc_dt17sc_fxnum_observer8destructERKNS_8sc_fxnumE
60621810 T __ZN5sc_dt17sc_fxnum_observer8destructERKNS_8sc_fxnumE
60621818 t .text$_ZN5sc_dt17sc_fxnum_observer9constructERKNS_8sc_fxnumE
60621818 T __ZN5sc_dt17sc_fxnum_observer9constructERKNS_8sc_fxnumE
60621820 t .text$_ZN5sc_dt17sc_fxnum_observerD0Ev
60621820 T __ZN5sc_dt17sc_fxnum_observerD0Ev
60621834 t .text$_ZN5sc_dt17sc_fxnum_observerD1Ev
60621834 T __ZN5sc_dt17sc_fxnum_observerD1Ev
60621844 t .text$_ZN5sc_dt17sc_fxval_observer4readERKNS_8sc_fxvalE
60621844 T __ZN5sc_dt17sc_fxval_observer4readERKNS_8sc_fxvalE
6062184c t .text$_ZN5sc_dt17sc_fxval_observer5writeERKNS_8sc_fxvalE
6062184c T __ZN5sc_dt17sc_fxval_observer5writeERKNS_8sc_fxvalE
60621854 t .text$_ZN5sc_dt17sc_fxval_observer8destructERKNS_8sc_fxvalE
60621854 T __ZN5sc_dt17sc_fxval_observer8destructERKNS_8sc_fxvalE
6062185c t .text$_ZN5sc_dt17sc_fxval_observer9constructERKNS_8sc_fxvalE
6062185c T __ZN5sc_dt17sc_fxval_observer9constructERKNS_8sc_fxvalE
60621864 t .text$_ZN5sc_dt17sc_fxval_observerD0Ev
60621864 T __ZN5sc_dt17sc_fxval_observerD0Ev
60621878 t .text$_ZN5sc_dt17sc_fxval_observerD1Ev
60621878 T __ZN5sc_dt17sc_fxval_observerD1Ev
60621888 t .text$_ZN5sc_dt18sc_signed_bitref_rD0Ev
60621888 T __ZN5sc_dt18sc_signed_bitref_rD0Ev
6062189c t .text$_ZN5sc_dt18sc_signed_bitref_rD1Ev
6062189c T __ZN5sc_dt18sc_signed_bitref_rD1Ev
606218ac t .text$_ZN5sc_dt18sc_signed_subref_rD0Ev
606218ac T __ZN5sc_dt18sc_signed_subref_rD0Ev
606218c0 t .text$_ZN5sc_dt18sc_signed_subref_rD1Ev
606218c0 T __ZN5sc_dt18sc_signed_subref_rD1Ev
606218d0 t .text$_ZN5sc_dt18sc_unsigned_bitrefD0Ev
606218d0 T __ZN5sc_dt18sc_unsigned_bitrefD0Ev
606218e4 t .text$_ZN5sc_dt18sc_unsigned_bitrefD1Ev
606218e4 T __ZN5sc_dt18sc_unsigned_bitrefD1Ev
606218f4 t .text$_ZN5sc_dt18sc_unsigned_subrefD0Ev
606218f4 T __ZN5sc_dt18sc_unsigned_subrefD0Ev
60621908 t .text$_ZN5sc_dt18sc_unsigned_subrefD1Ev
60621908 T __ZN5sc_dt18sc_unsigned_subrefD1Ev
60621918 t .text$_ZN5sc_dt20sc_unsigned_bitref_rD0Ev
60621918 T __ZN5sc_dt20sc_unsigned_bitref_rD0Ev
6062192c t .text$_ZN5sc_dt20sc_unsigned_bitref_rD1Ev
6062192c T __ZN5sc_dt20sc_unsigned_bitref_rD1Ev
6062193c t .text$_ZN5sc_dt20sc_unsigned_subref_rD0Ev
6062193c T __ZN5sc_dt20sc_unsigned_subref_rD0Ev
60621950 t .text$_ZN5sc_dt20sc_unsigned_subref_rD1Ev
60621950 T __ZN5sc_dt20sc_unsigned_subref_rD1Ev
60621960 t .text$_ZN5sc_dt22sc_fxnum_fast_observer4readERKNS_13sc_fxnum_fastE
60621960 T __ZN5sc_dt22sc_fxnum_fast_observer4readERKNS_13sc_fxnum_fastE
60621968 t .text$_ZN5sc_dt22sc_fxnum_fast_observer5writeERKNS_13sc_fxnum_fastE
60621968 T __ZN5sc_dt22sc_fxnum_fast_observer5writeERKNS_13sc_fxnum_fastE
60621970 t .text$_ZN5sc_dt22sc_fxnum_fast_observer8destructERKNS_13sc_fxnum_fastE
60621970 T __ZN5sc_dt22sc_fxnum_fast_observer8destructERKNS_13sc_fxnum_fastE
60621978 t .text$_ZN5sc_dt22sc_fxnum_fast_observer9constructERKNS_13sc_fxnum_fastE
60621978 T __ZN5sc_dt22sc_fxnum_fast_observer9constructERKNS_13sc_fxnum_fastE
60621980 t .text$_ZN5sc_dt22sc_fxnum_fast_observerD0Ev
60621980 T __ZN5sc_dt22sc_fxnum_fast_observerD0Ev
60621994 t .text$_ZN5sc_dt22sc_fxnum_fast_observerD1Ev
60621994 T __ZN5sc_dt22sc_fxnum_fast_observerD1Ev
606219a4 t .text$_ZN5sc_dt22sc_fxval_fast_observer4readERKNS_13sc_fxval_fastE
606219a4 T __ZN5sc_dt22sc_fxval_fast_observer4readERKNS_13sc_fxval_fastE
606219ac t .text$_ZN5sc_dt22sc_fxval_fast_observer5writeERKNS_13sc_fxval_fastE
606219ac T __ZN5sc_dt22sc_fxval_fast_observer5writeERKNS_13sc_fxval_fastE
606219b4 t .text$_ZN5sc_dt22sc_fxval_fast_observer8destructERKNS_13sc_fxval_fastE
606219b4 T __ZN5sc_dt22sc_fxval_fast_observer8destructERKNS_13sc_fxval_fastE
606219bc t .text$_ZN5sc_dt22sc_fxval_fast_observer9constructERKNS_13sc_fxval_fastE
606219bc T __ZN5sc_dt22sc_fxval_fast_observer9constructERKNS_13sc_fxval_fastE
606219c4 t .text$_ZN5sc_dt22sc_fxval_fast_observerD0Ev
606219c4 T __ZN5sc_dt22sc_fxval_fast_observerD0Ev
606219d8 t .text$_ZN5sc_dt22sc_fxval_fast_observerD1Ev
606219d8 T __ZN5sc_dt22sc_fxval_fast_observerD1Ev
606219e8 t .text$_ZN5sc_dt6sc_fixD0Ev
606219e8 T __ZN5sc_dt6sc_fixD0Ev
60621a58 t .text$_ZN5sc_dt6sc_fixD1Ev
60621a58 T __ZN5sc_dt6sc_fixD1Ev
60621ac0 t .text$_ZN5sc_dt7sc_ufixD0Ev
60621ac0 T __ZN5sc_dt7sc_ufixD0Ev
60621b30 t .text$_ZN5sc_dt7sc_ufixD1Ev
60621b30 T __ZN5sc_dt7sc_ufixD1Ev
60621b98 t .text$_ZN5sc_dt7sc_uintILi2EEC1Ei
60621b98 T __ZN5sc_dt7sc_uintILi2EEC1Ei
60621bd8 t .text$_ZN5sc_dt7sc_uintILi2EEC1Ev
60621bd8 T __ZN5sc_dt7sc_uintILi2EEC1Ev
60621c08 t .text$_ZN5sc_dt7sc_uintILi2EED0Ev
60621c08 T __ZN5sc_dt7sc_uintILi2EED0Ev
60621c4c t .text$_ZN5sc_dt7sc_uintILi2EED1Ev
60621c4c T __ZN5sc_dt7sc_uintILi2EED1Ev
60621c90 t .text$_ZN5sc_dt7sc_uintILi2EEaSERKS1_
60621c90 T __ZN5sc_dt7sc_uintILi2EEaSERKS1_
60621cac t .text$_ZN5sc_dt7sc_uintILi32EEC1Ei
60621cac T __ZN5sc_dt7sc_uintILi32EEC1Ei
60621cec t .text$_ZN5sc_dt7sc_uintILi32EEC1Ev
60621cec T __ZN5sc_dt7sc_uintILi32EEC1Ev
60621d1c t .text$_ZN5sc_dt7sc_uintILi32EED0Ev
60621d1c T __ZN5sc_dt7sc_uintILi32EED0Ev
60621d60 t .text$_ZN5sc_dt7sc_uintILi32EED1Ev
60621d60 T __ZN5sc_dt7sc_uintILi32EED1Ev
60621da4 t .text$_ZN5sc_dt7sc_uintILi32EEaSERKS1_
60621da4 T __ZN5sc_dt7sc_uintILi32EEaSERKS1_
60621dc0 t .text$_ZN5sc_dt7sc_uintILi32EEaSEi
60621dc0 T __ZN5sc_dt7sc_uintILi32EEaSEi
60621dd8 t .text$_ZN5sc_dt7sc_uintILi32EEaSEy
60621dd8 T __ZN5sc_dt7sc_uintILi32EEaSEy
60621e04 t .text$_ZN5sc_dt8sc_fxnumD0Ev
60621e04 T __ZN5sc_dt8sc_fxnumD0Ev
60621e74 t .text$_ZN5sc_dt8sc_fxnumD1Ev
60621e74 T __ZN5sc_dt8sc_fxnumD1Ev
60621edc t .text$_ZN5sc_dt8sc_logic8to_valueEi
60621edc T __ZN5sc_dt8sc_logic8to_valueEi
60621f04 t .text$_ZN5sc_dt8sc_logicC1Ei
60621f04 T __ZN5sc_dt8sc_logicC1Ei
60621f68 t .text$_ZN5sc_dt8sc_logicC1Ev
60621f68 T __ZN5sc_dt8sc_logicC1Ev
60621f94 t .text$_ZN5sc_dt8sc_logicD0Ev
60621f94 T __ZN5sc_dt8sc_logicD0Ev
60621fb0 t .text$_ZN5sc_dt8sc_logicD1Ev
60621fb0 T __ZN5sc_dt8sc_logicD1Ev
60621fec t .text$_ZN5sc_dt8sc_logicdlEPvj
60621fec T __ZN5sc_dt8sc_logicdlEPvj
60622008 t .text$_ZN5sc_dt8sc_proxyINS_10sc_bv_baseEED0Ev
60622008 T __ZN5sc_dt8sc_proxyINS_10sc_bv_baseEED0Ev
6062201c t .text$_ZN5sc_dt8sc_proxyINS_10sc_bv_baseEED1Ev
6062201c T __ZN5sc_dt8sc_proxyINS_10sc_bv_baseEED1Ev
6062202c t .text$_ZN5sc_dt9sc_signedD0Ev
6062202c T __ZN5sc_dt9sc_signedD0Ev
60622084 t .text$_ZN5sc_dt9sc_signedD1Ev
60622084 T __ZN5sc_dt9sc_signedD1Ev
606220d4 t .text$_ZN5sc_dteqERKNS_12sc_uint_baseES2_
606220d4 T __ZN5sc_dteqERKNS_12sc_uint_baseES2_
60622104 t .text$_ZN5sc_dteqERKNS_8sc_logicES2_
60622104 T __ZN5sc_dteqERKNS_8sc_logicES2_
60622120 t .text$_ZN5sc_dteqERKNS_8sc_logicEi
60622120 T __ZN5sc_dteqERKNS_8sc_logicEi
60622164 t .text$_ZN5sc_dtlsERSoRKNS_12sc_uint_baseE
60622164 T __ZN5sc_dtlsERSoRKNS_12sc_uint_baseE
60622180 t .text$_ZN7sc_core10sc_cor_pkgD0Ev
60622180 T __ZN7sc_core10sc_cor_pkgD0Ev
60622194 t .text$_ZN7sc_core10sc_cor_pkgD1Ev
60622194 T __ZN7sc_core10sc_cor_pkgD1Ev
606221a4 t .text$_ZN7sc_core11sc_mutex_ifD0Ev
606221a4 T __ZN7sc_core11sc_mutex_ifD0Ev
606221cc t .text$_ZN7sc_core11sc_mutex_ifD1Ev
606221cc T __ZN7sc_core11sc_mutex_ifD1Ev
606221e0 t .text$_ZN7sc_core12sc_port_base19mti_is_boundary_topEv
606221e0 T __ZN7sc_core12sc_port_base19mti_is_boundary_topEv
606221f0 t .text$_ZN7sc_core12sc_port_base22mti_disable_port_checkEv
606221f0 T __ZN7sc_core12sc_port_base22mti_disable_port_checkEv
606221fc t .text$_ZN7sc_core12sc_process_b16add_child_objectEPNS_9sc_objectE
606221fc T __ZN7sc_core12sc_process_b16add_child_objectEPNS_9sc_objectE
60622238 t .text$_ZN7sc_core12sc_process_b19reference_decrementEv
60622238 T __ZN7sc_core12sc_process_b19reference_decrementEv
60622268 t .text$_ZN7sc_core12sc_process_b19reference_incrementEv
60622268 T __ZN7sc_core12sc_process_b19reference_incrementEv
606222a0 t .text$_ZN7sc_core12sc_process_b19remove_child_objectEPNS_9sc_objectE
606222a0 T __ZN7sc_core12sc_process_b19remove_child_objectEPNS_9sc_objectE
606222f0 t .text$_ZN7sc_core13sc_host_mutex4lockEv
606222f0 T __ZN7sc_core13sc_host_mutex4lockEv
60622308 t .text$_ZN7sc_core13sc_host_mutex6unlockEv
60622308 T __ZN7sc_core13sc_host_mutex6unlockEv
60622320 t .text$_ZN7sc_core13sc_host_mutex7trylockEv
60622320 T __ZN7sc_core13sc_host_mutex7trylockEv
6062233c t .text$_ZN7sc_core13sc_host_mutexD0Ev
6062233c T __ZN7sc_core13sc_host_mutexD0Ev
606223a8 t .text$_ZN7sc_core13sc_host_mutexD1Ev
606223a8 T __ZN7sc_core13sc_host_mutexD1Ev
6062240c t .text$_ZN7sc_core13sc_trace_fileD0Ev
6062240c T __ZN7sc_core13sc_trace_fileD0Ev
60622420 t .text$_ZN7sc_core13sc_trace_fileD1Ev
60622420 T __ZN7sc_core13sc_trace_fileD1Ev
60622430 t .text$_ZN7sc_core14sc_delta_countEv
60622430 T __ZN7sc_core14sc_delta_countEv
60622444 t .text$_ZN7sc_core14sc_export_base23mti_create_export_aliasEv
60622444 T __ZN7sc_core14sc_export_base23mti_create_export_aliasEv
6062244c t .text$_ZN7sc_core14sc_in_resolvedD0Ev
6062244c T __ZN7sc_core14sc_in_resolvedD0Ev
60622508 t .text$_ZN7sc_core14sc_in_resolvedD1Ev
60622508 T __ZN7sc_core14sc_in_resolvedD1Ev
606225bc t .text$_ZN7sc_core14sc_main_moduleD0Ev
606225bc T __ZN7sc_core14sc_main_moduleD0Ev
606225e8 t .text$_ZN7sc_core14sc_main_moduleD1Ev
606225e8 T __ZN7sc_core14sc_main_moduleD1Ev
60622604 t .text$_ZN7sc_core14sc_spawn_resetINS_15sc_signal_in_ifIbEEE13specify_resetEv
60622604 T __ZN7sc_core14sc_spawn_resetINS_15sc_signal_in_ifIbEEE13specify_resetEv
60622624 t .text$_ZN7sc_core14sc_spawn_resetINS_15sc_signal_in_ifIbEEED0Ev
60622624 T __ZN7sc_core14sc_spawn_resetINS_15sc_signal_in_ifIbEEED0Ev
60622638 t .text$_ZN7sc_core14sc_spawn_resetINS_15sc_signal_in_ifIbEEED1Ev
60622638 T __ZN7sc_core14sc_spawn_resetINS_15sc_signal_in_ifIbEEED1Ev
60622648 t .text$_ZN7sc_core14sc_spawn_resetINS_5sc_inIbEEE13specify_resetEv
60622648 T __ZN7sc_core14sc_spawn_resetINS_5sc_inIbEEE13specify_resetEv
60622668 t .text$_ZN7sc_core14sc_spawn_resetINS_5sc_inIbEEED0Ev
60622668 T __ZN7sc_core14sc_spawn_resetINS_5sc_inIbEEED0Ev
6062267c t .text$_ZN7sc_core14sc_spawn_resetINS_5sc_inIbEEED1Ev
6062267c T __ZN7sc_core14sc_spawn_resetINS_5sc_inIbEEED1Ev
6062268c t .text$_ZN7sc_core14sc_spawn_resetINS_6sc_outIbEEE13specify_resetEv
6062268c T __ZN7sc_core14sc_spawn_resetINS_6sc_outIbEEE13specify_resetEv
606226ac t .text$_ZN7sc_core14sc_spawn_resetINS_6sc_outIbEEED0Ev
606226ac T __ZN7sc_core14sc_spawn_resetINS_6sc_outIbEEED0Ev
606226c0 t .text$_ZN7sc_core14sc_spawn_resetINS_6sc_outIbEEED1Ev
606226c0 T __ZN7sc_core14sc_spawn_resetINS_6sc_outIbEEED1Ev
606226d0 t .text$_ZN7sc_core14sc_spawn_resetINS_8sc_inoutIbEEE13specify_resetEv
606226d0 T __ZN7sc_core14sc_spawn_resetINS_8sc_inoutIbEEE13specify_resetEv
606226f0 t .text$_ZN7sc_core14sc_spawn_resetINS_8sc_inoutIbEEED0Ev
606226f0 T __ZN7sc_core14sc_spawn_resetINS_8sc_inoutIbEEED0Ev
60622704 t .text$_ZN7sc_core14sc_spawn_resetINS_8sc_inoutIbEEED1Ev
60622704 T __ZN7sc_core14sc_spawn_resetINS_8sc_inoutIbEEED1Ev
60622714 t .text$_ZN7sc_core15sc_prim_channel14request_updateEv
60622714 T __ZN7sc_core15sc_prim_channel14request_updateEv
6062275c t .text$_ZN7sc_core15sc_prim_channel20mti_get_channel_typeEv
6062275c T __ZN7sc_core15sc_prim_channel20mti_get_channel_typeEv
60622764 t .text$_ZN7sc_core15sc_prim_channel20mti_get_prim_channelEv
60622764 T __ZN7sc_core15sc_prim_channel20mti_get_prim_channelEv
60622770 t .text$_ZN7sc_core15sc_prim_channel27mti_get_construction_paramsEPiS1_S1_S1_S1_
60622770 T __ZN7sc_core15sc_prim_channel27mti_get_construction_paramsEPiS1_S1_S1_S1_
60622788 t .text$_ZN7sc_core15sc_process_hostD0Ev
60622788 T __ZN7sc_core15sc_process_hostD0Ev
6062279c t .text$_ZN7sc_core15sc_process_hostD1Ev
6062279c T __ZN7sc_core15sc_process_hostD1Ev
606227ac t .text$_ZN7sc_core15sc_signal_in_ifIN5sc_dt7sc_uintILi2EEEEC2Ev
606227ac T __ZN7sc_core15sc_signal_in_ifIN5sc_dt7sc_uintILi2EEEEC2Ev
606227d8 t .text$_ZN7sc_core15sc_signal_in_ifIN5sc_dt7sc_uintILi2EEEED0Ev
606227d8 T __ZN7sc_core15sc_signal_in_ifIN5sc_dt7sc_uintILi2EEEED0Ev
6062282c t .text$_ZN7sc_core15sc_signal_in_ifIN5sc_dt7sc_uintILi2EEEED1Ev
6062282c T __ZN7sc_core15sc_signal_in_ifIN5sc_dt7sc_uintILi2EEEED1Ev
60622880 t .text$_ZN7sc_core15sc_signal_in_ifIN5sc_dt7sc_uintILi2EEEED2Ev
60622880 T __ZN7sc_core15sc_signal_in_ifIN5sc_dt7sc_uintILi2EEEED2Ev
606228dc t .text$_ZN7sc_core15sc_signal_in_ifIN5sc_dt7sc_uintILi32EEEEC2Ev
606228dc T __ZN7sc_core15sc_signal_in_ifIN5sc_dt7sc_uintILi32EEEEC2Ev
60622908 t .text$_ZN7sc_core15sc_signal_in_ifIN5sc_dt7sc_uintILi32EEEED0Ev
60622908 T __ZN7sc_core15sc_signal_in_ifIN5sc_dt7sc_uintILi32EEEED0Ev
6062295c t .text$_ZN7sc_core15sc_signal_in_ifIN5sc_dt7sc_uintILi32EEEED1Ev
6062295c T __ZN7sc_core15sc_signal_in_ifIN5sc_dt7sc_uintILi32EEEED1Ev
606229b0 t .text$_ZN7sc_core15sc_signal_in_ifIN5sc_dt7sc_uintILi32EEEED2Ev
606229b0 T __ZN7sc_core15sc_signal_in_ifIN5sc_dt7sc_uintILi32EEEED2Ev
60622a0c t .text$_ZN7sc_core15sc_signal_in_ifIN5sc_dt8sc_logicEEC2Ev
60622a0c T __ZN7sc_core15sc_signal_in_ifIN5sc_dt8sc_logicEEC2Ev
60622a38 t .text$_ZN7sc_core15sc_signal_in_ifIN5sc_dt8sc_logicEED0Ev
60622a38 T __ZN7sc_core15sc_signal_in_ifIN5sc_dt8sc_logicEED0Ev
60622a8c t .text$_ZN7sc_core15sc_signal_in_ifIN5sc_dt8sc_logicEED1Ev
60622a8c T __ZN7sc_core15sc_signal_in_ifIN5sc_dt8sc_logicEED1Ev
60622ae0 t .text$_ZN7sc_core15sc_signal_in_ifIN5sc_dt8sc_logicEED2Ev
60622ae0 T __ZN7sc_core15sc_signal_in_ifIN5sc_dt8sc_logicEED2Ev
60622b3c t .text$_ZN7sc_core15sc_signal_in_ifIbEC2Ev
60622b3c T __ZN7sc_core15sc_signal_in_ifIbEC2Ev
60622b68 t .text$_ZN7sc_core15sc_signal_in_ifIbED0Ev
60622b68 T __ZN7sc_core15sc_signal_in_ifIbED0Ev
60622bbc t .text$_ZN7sc_core15sc_signal_in_ifIbED1Ev
60622bbc T __ZN7sc_core15sc_signal_in_ifIbED1Ev
60622c10 t .text$_ZN7sc_core15sc_signal_in_ifIbED2Ev
60622c10 T __ZN7sc_core15sc_signal_in_ifIbED2Ev
60622c6c t .text$_ZN7sc_core15sc_spawn_objectIN8sc_boost3_bi6bind_tIvNS1_4_mfi3mf0IvNS_16sc_invoke_methodEEENS2_5list1INS2_5valueIPS6_EEEEEEE9semanticsEv
60622c6c T __ZN7sc_core15sc_spawn_objectIN8sc_boost3_bi6bind_tIvNS1_4_mfi3mf0IvNS_16sc_invoke_methodEEENS2_5list1INS2_5valueIPS6_EEEEEEE9semanticsEv
60622c94 t .text$_ZN7sc_core15sc_spawn_objectIN8sc_boost3_bi6bind_tIvNS1_4_mfi3mf0IvNS_16sc_invoke_methodEEENS2_5list1INS2_5valueIPS6_EEEEEEED0Ev
60622c94 T __ZN7sc_core15sc_spawn_objectIN8sc_boost3_bi6bind_tIvNS1_4_mfi3mf0IvNS_16sc_invoke_methodEEENS2_5list1INS2_5valueIPS6_EEEEEEED0Ev
60622ca8 t .text$_ZN7sc_core15sc_spawn_objectIN8sc_boost3_bi6bind_tIvNS1_4_mfi3mf0IvNS_16sc_invoke_methodEEENS2_5list1INS2_5valueIPS6_EEEEEEED1Ev
60622ca8 T __ZN7sc_core15sc_spawn_objectIN8sc_boost3_bi6bind_tIvNS1_4_mfi3mf0IvNS_16sc_invoke_methodEEENS2_5list1INS2_5valueIPS6_EEEEEEED1Ev
60622cb8 t .text$_ZN7sc_core15sc_trace_paramsD1Ev
60622cb8 T __ZN7sc_core15sc_trace_paramsD1Ev
60622cd4 t .text$_ZN7sc_core16sc_invoke_method13invoke_methodEPNS_17sc_method_processE
60622cd4 T __ZN7sc_core16sc_invoke_method13invoke_methodEPNS_17sc_method_processE
606234a8 t .text$_ZN7sc_core16sc_invoke_method7invokerEv
606234a8 T __ZN7sc_core16sc_invoke_method7invokerEv
60623738 t .text$_ZN7sc_core16sc_invoke_methodD0Ev
60623738 T __ZN7sc_core16sc_invoke_methodD0Ev
60623940 t .text$_ZN7sc_core16sc_invoke_methodD1Ev
60623940 T __ZN7sc_core16sc_invoke_methodD1Ev
60623b40 t .text$_ZN7sc_core17sc_event_finder_tINS_15sc_signal_in_ifIN5sc_dt8sc_logicEEEEC1ERKNS_12sc_port_baseEMS4_KFRKNS_8sc_eventEvE
60623b40 T __ZN7sc_core17sc_event_finder_tINS_15sc_signal_in_ifIN5sc_dt8sc_logicEEEEC1ERKNS_12sc_port_baseEMS4_KFRKNS_8sc_eventEvE
60623b74 t .text$_ZN7sc_core17sc_event_finder_tINS_15sc_signal_in_ifIN5sc_dt8sc_logicEEEED0Ev
60623b74 T __ZN7sc_core17sc_event_finder_tINS_15sc_signal_in_ifIN5sc_dt8sc_logicEEEED0Ev
60623bac t .text$_ZN7sc_core17sc_event_finder_tINS_15sc_signal_in_ifIN5sc_dt8sc_logicEEEED1Ev
60623bac T __ZN7sc_core17sc_event_finder_tINS_15sc_signal_in_ifIN5sc_dt8sc_logicEEEED1Ev
60623be4 t .text$_ZN7sc_core17sc_event_finder_tINS_15sc_signal_in_ifIbEEEC1ERKNS_12sc_port_baseEMS2_KFRKNS_8sc_eventEvE
60623be4 T __ZN7sc_core17sc_event_finder_tINS_15sc_signal_in_ifIbEEEC1ERKNS_12sc_port_baseEMS2_KFRKNS_8sc_eventEvE
60623c18 t .text$_ZN7sc_core17sc_event_finder_tINS_15sc_signal_in_ifIbEEED0Ev
60623c18 T __ZN7sc_core17sc_event_finder_tINS_15sc_signal_in_ifIbEEED0Ev
60623c50 t .text$_ZN7sc_core17sc_event_finder_tINS_15sc_signal_in_ifIbEEED1Ev
60623c50 T __ZN7sc_core17sc_event_finder_tINS_15sc_signal_in_ifIbEEED1Ev
60623c88 t .text$_ZN7sc_core17sc_inout_resolvedD0Ev
60623c88 T __ZN7sc_core17sc_inout_resolvedD0Ev
60623d58 t .text$_ZN7sc_core17sc_inout_resolvedD1Ev
60623d58 T __ZN7sc_core17sc_inout_resolvedD1Ev
60623e20 t .text$_ZN7sc_core17sc_method_process22prepare_for_simulationEv
60623e20 T __ZN7sc_core17sc_method_process22prepare_for_simulationEv
60623e28 t .text$_ZN7sc_core17sc_process_handleC1ERKS0_
60623e28 T __ZN7sc_core17sc_process_handleC1ERKS0_
60623e54 t .text$_ZN7sc_core17sc_process_handleD1Ev
60623e54 T __ZN7sc_core17sc_process_handleD1Ev
60623e78 t .text$_ZN7sc_core17sc_spawn_object_vIN8sc_boost3_bi6bind_tIiPFiPFiiPPcEENS2_5list1INS2_5valueIS7_EEEEEEE9semanticsEv
60623e78 T __ZN7sc_core17sc_spawn_object_vIN8sc_boost3_bi6bind_tIiPFiPFiiPPcEENS2_5list1INS2_5valueIS7_EEEEEEE9semanticsEv
60623e98 t .text$_ZN7sc_core17sc_spawn_object_vIN8sc_boost3_bi6bind_tIiPFiPFiiPPcEENS2_5list1INS2_5valueIS7_EEEEEEED0Ev
60623e98 T __ZN7sc_core17sc_spawn_object_vIN8sc_boost3_bi6bind_tIiPFiPFiiPPcEENS2_5list1INS2_5valueIS7_EEEEEEED0Ev
60623eac t .text$_ZN7sc_core17sc_spawn_object_vIN8sc_boost3_bi6bind_tIiPFiPFiiPPcEENS2_5list1INS2_5valueIS7_EEEEEEED1Ev
60623eac T __ZN7sc_core17sc_spawn_object_vIN8sc_boost3_bi6bind_tIiPFiPFiiPPcEENS2_5list1INS2_5valueIS7_EEEEEEED1Ev
60623ebc t .text$_ZN7sc_core18sc_process_monitor6signalEPNS_17sc_thread_processEi
60623ebc T __ZN7sc_core18sc_process_monitor6signalEPNS_17sc_thread_processEi
60623ec4 t .text$_ZN7sc_core18sc_process_monitorD0Ev
60623ec4 T __ZN7sc_core18sc_process_monitorD0Ev
60623ef0 t .text$_ZN7sc_core18sc_process_monitorD1Ev
60623ef0 T __ZN7sc_core18sc_process_monitorD1Ev
60623f1c t .text$_ZN7sc_core18sc_signal_inout_ifIN5sc_dt7sc_uintILi2EEEEC2Ev
60623f1c T __ZN7sc_core18sc_signal_inout_ifIN5sc_dt7sc_uintILi2EEEEC2Ev
60623f80 t .text$_ZN7sc_core18sc_signal_inout_ifIN5sc_dt7sc_uintILi2EEEED0Ev
60623f80 T __ZN7sc_core18sc_signal_inout_ifIN5sc_dt7sc_uintILi2EEEED0Ev
606240a0 t .text$_ZN7sc_core18sc_signal_inout_ifIN5sc_dt7sc_uintILi2EEEED1Ev
606240a0 T __ZN7sc_core18sc_signal_inout_ifIN5sc_dt7sc_uintILi2EEEED1Ev
606241c0 t .text$_ZN7sc_core18sc_signal_inout_ifIN5sc_dt7sc_uintILi2EEEED2Ev
606241c0 T __ZN7sc_core18sc_signal_inout_ifIN5sc_dt7sc_uintILi2EEEED2Ev
606242ec t .text$_ZN7sc_core18sc_signal_inout_ifIN5sc_dt7sc_uintILi32EEEEC2Ev
606242ec T __ZN7sc_core18sc_signal_inout_ifIN5sc_dt7sc_uintILi32EEEEC2Ev
60624350 t .text$_ZN7sc_core18sc_signal_inout_ifIN5sc_dt7sc_uintILi32EEEED0Ev
60624350 T __ZN7sc_core18sc_signal_inout_ifIN5sc_dt7sc_uintILi32EEEED0Ev
60624470 t .text$_ZN7sc_core18sc_signal_inout_ifIN5sc_dt7sc_uintILi32EEEED1Ev
60624470 T __ZN7sc_core18sc_signal_inout_ifIN5sc_dt7sc_uintILi32EEEED1Ev
60624590 t .text$_ZN7sc_core18sc_signal_inout_ifIN5sc_dt7sc_uintILi32EEEED2Ev
60624590 T __ZN7sc_core18sc_signal_inout_ifIN5sc_dt7sc_uintILi32EEEED2Ev
606246bc t .text$_ZN7sc_core18sc_signal_inout_ifIN5sc_dt8sc_logicEEC2Ev
606246bc T __ZN7sc_core18sc_signal_inout_ifIN5sc_dt8sc_logicEEC2Ev
60624720 t .text$_ZN7sc_core18sc_signal_inout_ifIN5sc_dt8sc_logicEED0Ev
60624720 T __ZN7sc_core18sc_signal_inout_ifIN5sc_dt8sc_logicEED0Ev
60624840 t .text$_ZN7sc_core18sc_signal_inout_ifIN5sc_dt8sc_logicEED1Ev
60624840 T __ZN7sc_core18sc_signal_inout_ifIN5sc_dt8sc_logicEED1Ev
60624960 t .text$_ZN7sc_core18sc_signal_inout_ifIN5sc_dt8sc_logicEED2Ev
60624960 T __ZN7sc_core18sc_signal_inout_ifIN5sc_dt8sc_logicEED2Ev
60624a8c t .text$_ZN7sc_core18sc_signal_inout_ifIbEC2Ev
60624a8c T __ZN7sc_core18sc_signal_inout_ifIbEC2Ev
60624af0 t .text$_ZN7sc_core18sc_signal_inout_ifIbED0Ev
60624af0 T __ZN7sc_core18sc_signal_inout_ifIbED0Ev
60624c10 t .text$_ZN7sc_core18sc_signal_inout_ifIbED1Ev
60624c10 T __ZN7sc_core18sc_signal_inout_ifIbED1Ev
60624d30 t .text$_ZN7sc_core18sc_signal_inout_ifIbED2Ev
60624d30 T __ZN7sc_core18sc_signal_inout_ifIbED2Ev
60624d68 t .text$_ZN7sc_core18sc_signal_resolved13register_portERNS_12sc_port_baseEPKc
60624d68 T __ZN7sc_core18sc_signal_resolved13register_portERNS_12sc_port_baseEPKc
60624d70 t .text$_ZN7sc_core18sc_signal_resolvedC1EPKc
60624d70 T __ZN7sc_core18sc_signal_resolvedC1EPKc
60624e5c t .text$_ZN7sc_core18sc_signal_resolvedD0Ev
60624e5c T __ZN7sc_core18sc_signal_resolvedD0Ev
60624f48 t .text$_ZN7sc_core18sc_signal_resolvedD1Ev
60624f48 T __ZN7sc_core18sc_signal_resolvedD1Ev
6062502c t .text$_ZN7sc_core18sc_signal_write_ifIN5sc_dt7sc_uintILi2EEEEC2Ev
6062502c T __ZN7sc_core18sc_signal_write_ifIN5sc_dt7sc_uintILi2EEEEC2Ev
60625058 t .text$_ZN7sc_core18sc_signal_write_ifIN5sc_dt7sc_uintILi2EEEED0Ev
60625058 T __ZN7sc_core18sc_signal_write_ifIN5sc_dt7sc_uintILi2EEEED0Ev
606250ac t .text$_ZN7sc_core18sc_signal_write_ifIN5sc_dt7sc_uintILi2EEEED1Ev
606250ac T __ZN7sc_core18sc_signal_write_ifIN5sc_dt7sc_uintILi2EEEED1Ev
60625100 t .text$_ZN7sc_core18sc_signal_write_ifIN5sc_dt7sc_uintILi2EEEED2Ev
60625100 T __ZN7sc_core18sc_signal_write_ifIN5sc_dt7sc_uintILi2EEEED2Ev
6062515c t .text$_ZN7sc_core18sc_signal_write_ifIN5sc_dt7sc_uintILi32EEEEC2Ev
6062515c T __ZN7sc_core18sc_signal_write_ifIN5sc_dt7sc_uintILi32EEEEC2Ev
60625188 t .text$_ZN7sc_core18sc_signal_write_ifIN5sc_dt7sc_uintILi32EEEED0Ev
60625188 T __ZN7sc_core18sc_signal_write_ifIN5sc_dt7sc_uintILi32EEEED0Ev
606251dc t .text$_ZN7sc_core18sc_signal_write_ifIN5sc_dt7sc_uintILi32EEEED1Ev
606251dc T __ZN7sc_core18sc_signal_write_ifIN5sc_dt7sc_uintILi32EEEED1Ev
60625230 t .text$_ZN7sc_core18sc_signal_write_ifIN5sc_dt7sc_uintILi32EEEED2Ev
60625230 T __ZN7sc_core18sc_signal_write_ifIN5sc_dt7sc_uintILi32EEEED2Ev
6062528c t .text$_ZN7sc_core18sc_signal_write_ifIN5sc_dt8sc_logicEEC2Ev
6062528c T __ZN7sc_core18sc_signal_write_ifIN5sc_dt8sc_logicEEC2Ev
606252b8 t .text$_ZN7sc_core18sc_signal_write_ifIN5sc_dt8sc_logicEED0Ev
606252b8 T __ZN7sc_core18sc_signal_write_ifIN5sc_dt8sc_logicEED0Ev
6062530c t .text$_ZN7sc_core18sc_signal_write_ifIN5sc_dt8sc_logicEED1Ev
6062530c T __ZN7sc_core18sc_signal_write_ifIN5sc_dt8sc_logicEED1Ev
60625360 t .text$_ZN7sc_core18sc_signal_write_ifIN5sc_dt8sc_logicEED2Ev
60625360 T __ZN7sc_core18sc_signal_write_ifIN5sc_dt8sc_logicEED2Ev
606253bc t .text$_ZN7sc_core18sc_signal_write_ifIbEC2Ev
606253bc T __ZN7sc_core18sc_signal_write_ifIbEC2Ev
606253e8 t .text$_ZN7sc_core18sc_signal_write_ifIbED0Ev
606253e8 T __ZN7sc_core18sc_signal_write_ifIbED0Ev
6062543c t .text$_ZN7sc_core18sc_signal_write_ifIbED1Ev
6062543c T __ZN7sc_core18sc_signal_write_ifIbED1Ev
60625490 t .text$_ZN7sc_core18sc_signal_write_ifIbED2Ev
60625490 T __ZN7sc_core18sc_signal_write_ifIbED2Ev
606254ec t .text$_ZN7sc_core19sc_spawn_reset_baseD0Ev
606254ec T __ZN7sc_core19sc_spawn_reset_baseD0Ev
60625500 t .text$_ZN7sc_core19sc_spawn_reset_baseD1Ev
60625500 T __ZN7sc_core19sc_spawn_reset_baseD1Ev
60625510 t .text$_ZN7sc_core22sc_get_curr_simcontextEv
60625510 T __ZN7sc_core22sc_get_curr_simcontextEv
60625584 t .text$_ZN7sc_core22sc_writer_policy_checkILNS_16sc_writer_policyE0EEC2Ev
60625584 T __ZN7sc_core22sc_writer_policy_checkILNS_16sc_writer_policyE0EEC2Ev
606255a8 t .text$_ZN7sc_core22sc_writer_policy_checkILNS_16sc_writer_policyE1EEC2Ev
606255a8 T __ZN7sc_core22sc_writer_policy_checkILNS_16sc_writer_policyE1EEC2Ev
606255c8 t .text$_ZN7sc_core24sc_prim_channel_registry14request_updateERNS_15sc_prim_channelE
606255c8 T __ZN7sc_core24sc_prim_channel_registry14request_updateERNS_15sc_prim_channelE
606255e4 t .text$_ZN7sc_core27sc_writer_policy_check_portC2Ev
606255e4 T __ZN7sc_core27sc_writer_policy_check_portC2Ev
606255f4 t .text$_ZN7sc_core28sc_writer_policy_check_deltaC2Ev
606255f4 T __ZN7sc_core28sc_writer_policy_check_deltaC2Ev
60625608 t .text$_ZN7sc_core28sc_writer_policy_check_write11check_writeEPNS_9sc_objectEb
60625608 T __ZN7sc_core28sc_writer_policy_check_write11check_writeEPNS_9sc_objectEb
6062568c t .text$_ZN7sc_core28sc_writer_policy_check_write6updateEv
6062568c T __ZN7sc_core28sc_writer_policy_check_write6updateEv
60625694 t .text$_ZN7sc_core28sc_writer_policy_check_writeC2Eb
60625694 T __ZN7sc_core28sc_writer_policy_check_writeC2Eb
606256b4 t .text$_ZN7sc_core29sc_writer_policy_nocheck_portC2Ev
606256b4 T __ZN7sc_core29sc_writer_policy_nocheck_portC2Ev
606256bc t .text$_ZN7sc_core5sc_inIN5sc_dt7sc_uintILi2EEEE18end_of_elaborationEv
606256bc T __ZN7sc_core5sc_inIN5sc_dt7sc_uintILi2EEEE18end_of_elaborationEv
606257a4 t .text$_ZN7sc_core5sc_inIN5sc_dt7sc_uintILi2EEEE20mti_bind_sc_obj_nameEPc
606257a4 T __ZN7sc_core5sc_inIN5sc_dt7sc_uintILi2EEEE20mti_bind_sc_obj_nameEPc
60625908 t .text$_ZN7sc_core5sc_inIN5sc_dt7sc_uintILi2EEEE28mti_initialize_boundary_portEv
60625908 T __ZN7sc_core5sc_inIN5sc_dt7sc_uintILi2EEEE28mti_initialize_boundary_portEv
606259e8 t .text$_ZN7sc_core5sc_inIN5sc_dt7sc_uintILi2EEEE4bindERKNS_15sc_signal_in_ifIS3_EE
606259e8 T __ZN7sc_core5sc_inIN5sc_dt7sc_uintILi2EEEE4bindERKNS_15sc_signal_in_ifIS3_EE
60625a10 t .text$_ZN7sc_core5sc_inIN5sc_dt7sc_uintILi2EEEE4bindERNS_15sc_signal_in_ifIS3_EE
60625a10 T __ZN7sc_core5sc_inIN5sc_dt7sc_uintILi2EEEE4bindERNS_15sc_signal_in_ifIS3_EE
60625a34 t .text$_ZN7sc_core5sc_inIN5sc_dt7sc_uintILi2EEEE4bindERNS_7sc_portINS_15sc_signal_in_ifIS3_EELi1ELNS_14sc_port_policyE0EEE
60625a34 T __ZN7sc_core5sc_inIN5sc_dt7sc_uintILi2EEEE4bindERNS_7sc_portINS_15sc_signal_in_ifIS3_EELi1ELNS_14sc_port_policyE0EEE
60625a50 t .text$_ZN7sc_core5sc_inIN5sc_dt7sc_uintILi2EEEE4bindERNS_7sc_portINS_18sc_signal_inout_ifIS3_EELi1ELNS_14sc_port_policyE0EEE
60625a50 T __ZN7sc_core5sc_inIN5sc_dt7sc_uintILi2EEEE4bindERNS_7sc_portINS_18sc_signal_inout_ifIS3_EELi1ELNS_14sc_port_policyE0EEE
60625a6c t .text$_ZN7sc_core5sc_inIN5sc_dt7sc_uintILi2EEEE4bindERNS_9sc_port_bINS_15sc_signal_in_ifIS3_EEEE
60625a6c T __ZN7sc_core5sc_inIN5sc_dt7sc_uintILi2EEEE4bindERNS_9sc_port_bINS_15sc_signal_in_ifIS3_EEEE
60625a88 t .text$_ZN7sc_core5sc_inIN5sc_dt7sc_uintILi2EEEE5vbindERNS_12sc_interfaceE
60625a88 T __ZN7sc_core5sc_inIN5sc_dt7sc_uintILi2EEEE5vbindERNS_12sc_interfaceE
60625aa4 t .text$_ZN7sc_core5sc_inIN5sc_dt7sc_uintILi2EEEE5vbindERNS_12sc_port_baseE
60625aa4 T __ZN7sc_core5sc_inIN5sc_dt7sc_uintILi2EEEE5vbindERNS_12sc_port_baseE
60625b58 t .text$_ZN7sc_core5sc_inIN5sc_dt7sc_uintILi2EEEEC1Ev
60625b58 T __ZN7sc_core5sc_inIN5sc_dt7sc_uintILi2EEEEC1Ev
60625bec t .text$_ZN7sc_core5sc_inIN5sc_dt7sc_uintILi2EEEED0Ev
60625bec T __ZN7sc_core5sc_inIN5sc_dt7sc_uintILi2EEEED0Ev
60625cd0 t .text$_ZN7sc_core5sc_inIN5sc_dt7sc_uintILi2EEEED1Ev
60625cd0 T __ZN7sc_core5sc_inIN5sc_dt7sc_uintILi2EEEED1Ev
60625db4 t .text$_ZN7sc_core5sc_inIN5sc_dt7sc_uintILi2EEEEclERKNS_15sc_signal_in_ifIS3_EE
60625db4 T __ZN7sc_core5sc_inIN5sc_dt7sc_uintILi2EEEEclERKNS_15sc_signal_in_ifIS3_EE
60625dd8 t .text$_ZN7sc_core5sc_inIN5sc_dt7sc_uintILi32EEEE18end_of_elaborationEv
60625dd8 T __ZN7sc_core5sc_inIN5sc_dt7sc_uintILi32EEEE18end_of_elaborationEv
60625ec0 t .text$_ZN7sc_core5sc_inIN5sc_dt7sc_uintILi32EEEE20mti_bind_sc_obj_nameEPc
60625ec0 T __ZN7sc_core5sc_inIN5sc_dt7sc_uintILi32EEEE20mti_bind_sc_obj_nameEPc
60626024 t .text$_ZN7sc_core5sc_inIN5sc_dt7sc_uintILi32EEEE28mti_initialize_boundary_portEv
60626024 T __ZN7sc_core5sc_inIN5sc_dt7sc_uintILi32EEEE28mti_initialize_boundary_portEv
60626104 t .text$_ZN7sc_core5sc_inIN5sc_dt7sc_uintILi32EEEE4bindERKNS_15sc_signal_in_ifIS3_EE
60626104 T __ZN7sc_core5sc_inIN5sc_dt7sc_uintILi32EEEE4bindERKNS_15sc_signal_in_ifIS3_EE
6062612c t .text$_ZN7sc_core5sc_inIN5sc_dt7sc_uintILi32EEEE4bindERNS_15sc_signal_in_ifIS3_EE
6062612c T __ZN7sc_core5sc_inIN5sc_dt7sc_uintILi32EEEE4bindERNS_15sc_signal_in_ifIS3_EE
60626150 t .text$_ZN7sc_core5sc_inIN5sc_dt7sc_uintILi32EEEE4bindERNS_7sc_portINS_15sc_signal_in_ifIS3_EELi1ELNS_14sc_port_policyE0EEE
60626150 T __ZN7sc_core5sc_inIN5sc_dt7sc_uintILi32EEEE4bindERNS_7sc_portINS_15sc_signal_in_ifIS3_EELi1ELNS_14sc_port_policyE0EEE
6062616c t .text$_ZN7sc_core5sc_inIN5sc_dt7sc_uintILi32EEEE4bindERNS_7sc_portINS_18sc_signal_inout_ifIS3_EELi1ELNS_14sc_port_policyE0EEE
6062616c T __ZN7sc_core5sc_inIN5sc_dt7sc_uintILi32EEEE4bindERNS_7sc_portINS_18sc_signal_inout_ifIS3_EELi1ELNS_14sc_port_policyE0EEE
60626188 t .text$_ZN7sc_core5sc_inIN5sc_dt7sc_uintILi32EEEE4bindERNS_9sc_port_bINS_15sc_signal_in_ifIS3_EEEE
60626188 T __ZN7sc_core5sc_inIN5sc_dt7sc_uintILi32EEEE4bindERNS_9sc_port_bINS_15sc_signal_in_ifIS3_EEEE
606261a4 t .text$_ZN7sc_core5sc_inIN5sc_dt7sc_uintILi32EEEE5vbindERNS_12sc_interfaceE
606261a4 T __ZN7sc_core5sc_inIN5sc_dt7sc_uintILi32EEEE5vbindERNS_12sc_interfaceE
606261c0 t .text$_ZN7sc_core5sc_inIN5sc_dt7sc_uintILi32EEEE5vbindERNS_12sc_port_baseE
606261c0 T __ZN7sc_core5sc_inIN5sc_dt7sc_uintILi32EEEE5vbindERNS_12sc_port_baseE
60626274 t .text$_ZN7sc_core5sc_inIN5sc_dt7sc_uintILi32EEEEC1Ev
60626274 T __ZN7sc_core5sc_inIN5sc_dt7sc_uintILi32EEEEC1Ev
60626308 t .text$_ZN7sc_core5sc_inIN5sc_dt7sc_uintILi32EEEED0Ev
60626308 T __ZN7sc_core5sc_inIN5sc_dt7sc_uintILi32EEEED0Ev
606263ec t .text$_ZN7sc_core5sc_inIN5sc_dt7sc_uintILi32EEEED1Ev
606263ec T __ZN7sc_core5sc_inIN5sc_dt7sc_uintILi32EEEED1Ev
606264d0 t .text$_ZN7sc_core5sc_inIN5sc_dt7sc_uintILi32EEEEclERKNS_15sc_signal_in_ifIS3_EE
606264d0 T __ZN7sc_core5sc_inIN5sc_dt7sc_uintILi32EEEEclERKNS_15sc_signal_in_ifIS3_EE
606264f4 t .text$_ZN7sc_core5sc_inIN5sc_dt8sc_logicEE20mti_bind_sc_obj_nameEPc
606264f4 T __ZN7sc_core5sc_inIN5sc_dt8sc_logicEE20mti_bind_sc_obj_nameEPc
60626694 t .text$_ZN7sc_core5sc_inIN5sc_dt8sc_logicEE28mti_initialize_boundary_portEv
60626694 T __ZN7sc_core5sc_inIN5sc_dt8sc_logicEE28mti_initialize_boundary_portEv
606267ec t .text$_ZN7sc_core5sc_inIN5sc_dt8sc_logicEE4bindERKNS_15sc_signal_in_ifIS2_EE
606267ec T __ZN7sc_core5sc_inIN5sc_dt8sc_logicEE4bindERKNS_15sc_signal_in_ifIS2_EE
60626800 t .text$_ZN7sc_core5sc_inIN5sc_dt8sc_logicEE4bindERNS_15sc_signal_in_ifIS2_EE
60626800 T __ZN7sc_core5sc_inIN5sc_dt8sc_logicEE4bindERNS_15sc_signal_in_ifIS2_EE
60626814 t .text$_ZN7sc_core5sc_inIN5sc_dt8sc_logicEE4bindERNS_7sc_portINS_15sc_signal_in_ifIS2_EELi1ELNS_14sc_port_policyE0EEE
60626814 T __ZN7sc_core5sc_inIN5sc_dt8sc_logicEE4bindERNS_7sc_portINS_15sc_signal_in_ifIS2_EELi1ELNS_14sc_port_policyE0EEE
60626820 t .text$_ZN7sc_core5sc_inIN5sc_dt8sc_logicEE4bindERNS_7sc_portINS_18sc_signal_inout_ifIS2_EELi1ELNS_14sc_port_policyE0EEE
60626820 T __ZN7sc_core5sc_inIN5sc_dt8sc_logicEE4bindERNS_7sc_portINS_18sc_signal_inout_ifIS2_EELi1ELNS_14sc_port_policyE0EEE
6062682c t .text$_ZN7sc_core5sc_inIN5sc_dt8sc_logicEE4bindERNS_9sc_port_bINS_15sc_signal_in_ifIS2_EEEE
6062682c T __ZN7sc_core5sc_inIN5sc_dt8sc_logicEE4bindERNS_9sc_port_bINS_15sc_signal_in_ifIS2_EEEE
60626838 t .text$_ZN7sc_core5sc_inIN5sc_dt8sc_logicEEC1Ev
60626838 T __ZN7sc_core5sc_inIN5sc_dt8sc_logicEEC1Ev
606268e0 t .text$_ZN7sc_core5sc_inIN5sc_dt8sc_logicEED0Ev
606268e0 T __ZN7sc_core5sc_inIN5sc_dt8sc_logicEED0Ev
6062699c t .text$_ZN7sc_core5sc_inIN5sc_dt8sc_logicEED1Ev
6062699c T __ZN7sc_core5sc_inIN5sc_dt8sc_logicEED1Ev
60626ae0 t .text$_ZN7sc_core5sc_inIN5sc_dt8sc_logicEEclERKNS_15sc_signal_in_ifIS2_EE
60626ae0 T __ZN7sc_core5sc_inIN5sc_dt8sc_logicEEclERKNS_15sc_signal_in_ifIS2_EE
60626b04 t .text$_ZN7sc_core5sc_inIbE20mti_bind_sc_obj_nameEPc
60626b04 T __ZN7sc_core5sc_inIbE20mti_bind_sc_obj_nameEPc
60626ca4 t .text$_ZN7sc_core5sc_inIbE28mti_initialize_boundary_portEv
60626ca4 T __ZN7sc_core5sc_inIbE28mti_initialize_boundary_portEv
60626d84 t .text$_ZN7sc_core5sc_inIbE4bindERKNS_15sc_signal_in_ifIbEE
60626d84 T __ZN7sc_core5sc_inIbE4bindERKNS_15sc_signal_in_ifIbEE
60626d98 t .text$_ZN7sc_core5sc_inIbE4bindERNS_15sc_signal_in_ifIbEE
60626d98 T __ZN7sc_core5sc_inIbE4bindERNS_15sc_signal_in_ifIbEE
60626dac t .text$_ZN7sc_core5sc_inIbE4bindERNS_7sc_portINS_15sc_signal_in_ifIbEELi1ELNS_14sc_port_policyE0EEE
60626dac T __ZN7sc_core5sc_inIbE4bindERNS_7sc_portINS_15sc_signal_in_ifIbEELi1ELNS_14sc_port_policyE0EEE
60626db8 t .text$_ZN7sc_core5sc_inIbE4bindERNS_7sc_portINS_18sc_signal_inout_ifIbEELi1ELNS_14sc_port_policyE0EEE
60626db8 T __ZN7sc_core5sc_inIbE4bindERNS_7sc_portINS_18sc_signal_inout_ifIbEELi1ELNS_14sc_port_policyE0EEE
60626dc4 t .text$_ZN7sc_core5sc_inIbE4bindERNS_9sc_port_bINS_15sc_signal_in_ifIbEEEE
60626dc4 T __ZN7sc_core5sc_inIbE4bindERNS_9sc_port_bINS_15sc_signal_in_ifIbEEEE
60626dd0 t .text$_ZN7sc_core5sc_inIbEC1Ev
60626dd0 T __ZN7sc_core5sc_inIbEC1Ev
60626e78 t .text$_ZN7sc_core5sc_inIbED0Ev
60626e78 T __ZN7sc_core5sc_inIbED0Ev
60626f1c t .text$_ZN7sc_core5sc_inIbED1Ev
60626f1c T __ZN7sc_core5sc_inIbED1Ev
60627008 t .text$_ZN7sc_core5sc_inIbEclERKNS_15sc_signal_in_ifIbEE
60627008 T __ZN7sc_core5sc_inIbEclERKNS_15sc_signal_in_ifIbEE
6062702c t .text$_ZN7sc_core6sc_cor13stack_protectEb
6062702c T __ZN7sc_core6sc_cor13stack_protectEb
60627034 t .text$_ZN7sc_core6sc_cor36sc_mti_get_qthread_top_stack_pointerEv
60627034 T __ZN7sc_core6sc_cor36sc_mti_get_qthread_top_stack_pointerEv
6062703c t .text$_ZN7sc_core6sc_corD0Ev
6062703c T __ZN7sc_core6sc_corD0Ev
60627050 t .text$_ZN7sc_core6sc_corD1Ev
60627050 T __ZN7sc_core6sc_corD1Ev
60627060 t .text$_ZN7sc_core6sc_outIN5sc_dt7sc_uintILi32EEEEC1Ev
60627060 T __ZN7sc_core6sc_outIN5sc_dt7sc_uintILi32EEEEC1Ev
60627084 t .text$_ZN7sc_core6sc_outIN5sc_dt7sc_uintILi32EEEED0Ev
60627084 T __ZN7sc_core6sc_outIN5sc_dt7sc_uintILi32EEEED0Ev
606270bc t .text$_ZN7sc_core6sc_outIN5sc_dt7sc_uintILi32EEEED1Ev
606270bc T __ZN7sc_core6sc_outIN5sc_dt7sc_uintILi32EEEED1Ev
606270f4 t .text$_ZN7sc_core7sc_portINS_15sc_signal_in_ifIN5sc_dt7sc_uintILi2EEEEELi1ELNS_14sc_port_policyE0EEC2Ev
606270f4 T __ZN7sc_core7sc_portINS_15sc_signal_in_ifIN5sc_dt7sc_uintILi2EEEEELi1ELNS_14sc_port_policyE0EEC2Ev
6062711c t .text$_ZN7sc_core7sc_portINS_15sc_signal_in_ifIN5sc_dt7sc_uintILi2EEEEELi1ELNS_14sc_port_policyE0EED0Ev
6062711c T __ZN7sc_core7sc_portINS_15sc_signal_in_ifIN5sc_dt7sc_uintILi2EEEEELi1ELNS_14sc_port_policyE0EED0Ev
60627154 t .text$_ZN7sc_core7sc_portINS_15sc_signal_in_ifIN5sc_dt7sc_uintILi2EEEEELi1ELNS_14sc_port_policyE0EED1Ev
60627154 T __ZN7sc_core7sc_portINS_15sc_signal_in_ifIN5sc_dt7sc_uintILi2EEEEELi1ELNS_14sc_port_policyE0EED1Ev
6062718c t .text$_ZN7sc_core7sc_portINS_15sc_signal_in_ifIN5sc_dt7sc_uintILi2EEEEELi1ELNS_14sc_port_policyE0EED2Ev
6062718c T __ZN7sc_core7sc_portINS_15sc_signal_in_ifIN5sc_dt7sc_uintILi2EEEEELi1ELNS_14sc_port_policyE0EED2Ev
606271c4 t .text$_ZN7sc_core7sc_portINS_15sc_signal_in_ifIN5sc_dt7sc_uintILi32EEEEELi1ELNS_14sc_port_policyE0EEC2Ev
606271c4 T __ZN7sc_core7sc_portINS_15sc_signal_in_ifIN5sc_dt7sc_uintILi32EEEEELi1ELNS_14sc_port_policyE0EEC2Ev
606271ec t .text$_ZN7sc_core7sc_portINS_15sc_signal_in_ifIN5sc_dt7sc_uintILi32EEEEELi1ELNS_14sc_port_policyE0EED0Ev
606271ec T __ZN7sc_core7sc_portINS_15sc_signal_in_ifIN5sc_dt7sc_uintILi32EEEEELi1ELNS_14sc_port_policyE0EED0Ev
60627224 t .text$_ZN7sc_core7sc_portINS_15sc_signal_in_ifIN5sc_dt7sc_uintILi32EEEEELi1ELNS_14sc_port_policyE0EED1Ev
60627224 T __ZN7sc_core7sc_portINS_15sc_signal_in_ifIN5sc_dt7sc_uintILi32EEEEELi1ELNS_14sc_port_policyE0EED1Ev
6062725c t .text$_ZN7sc_core7sc_portINS_15sc_signal_in_ifIN5sc_dt7sc_uintILi32EEEEELi1ELNS_14sc_port_policyE0EED2Ev
6062725c T __ZN7sc_core7sc_portINS_15sc_signal_in_ifIN5sc_dt7sc_uintILi32EEEEELi1ELNS_14sc_port_policyE0EED2Ev
60627294 t .text$_ZN7sc_core7sc_portINS_15sc_signal_in_ifIN5sc_dt8sc_logicEEELi1ELNS_14sc_port_policyE0EEC2Ev
60627294 T __ZN7sc_core7sc_portINS_15sc_signal_in_ifIN5sc_dt8sc_logicEEELi1ELNS_14sc_port_policyE0EEC2Ev
606272bc t .text$_ZN7sc_core7sc_portINS_15sc_signal_in_ifIN5sc_dt8sc_logicEEELi1ELNS_14sc_port_policyE0EED0Ev
606272bc T __ZN7sc_core7sc_portINS_15sc_signal_in_ifIN5sc_dt8sc_logicEEELi1ELNS_14sc_port_policyE0EED0Ev
606272f4 t .text$_ZN7sc_core7sc_portINS_15sc_signal_in_ifIN5sc_dt8sc_logicEEELi1ELNS_14sc_port_policyE0EED1Ev
606272f4 T __ZN7sc_core7sc_portINS_15sc_signal_in_ifIN5sc_dt8sc_logicEEELi1ELNS_14sc_port_policyE0EED1Ev
6062732c t .text$_ZN7sc_core7sc_portINS_15sc_signal_in_ifIN5sc_dt8sc_logicEEELi1ELNS_14sc_port_policyE0EED2Ev
6062732c T __ZN7sc_core7sc_portINS_15sc_signal_in_ifIN5sc_dt8sc_logicEEELi1ELNS_14sc_port_policyE0EED2Ev
60627364 t .text$_ZN7sc_core7sc_portINS_15sc_signal_in_ifIbEELi1ELNS_14sc_port_policyE0EEC2Ev
60627364 T __ZN7sc_core7sc_portINS_15sc_signal_in_ifIbEELi1ELNS_14sc_port_policyE0EEC2Ev
6062738c t .text$_ZN7sc_core7sc_portINS_15sc_signal_in_ifIbEELi1ELNS_14sc_port_policyE0EED0Ev
6062738c T __ZN7sc_core7sc_portINS_15sc_signal_in_ifIbEELi1ELNS_14sc_port_policyE0EED0Ev
606273c4 t .text$_ZN7sc_core7sc_portINS_15sc_signal_in_ifIbEELi1ELNS_14sc_port_policyE0EED1Ev
606273c4 T __ZN7sc_core7sc_portINS_15sc_signal_in_ifIbEELi1ELNS_14sc_port_policyE0EED1Ev
606273fc t .text$_ZN7sc_core7sc_portINS_15sc_signal_in_ifIbEELi1ELNS_14sc_port_policyE0EED2Ev
606273fc T __ZN7sc_core7sc_portINS_15sc_signal_in_ifIbEELi1ELNS_14sc_port_policyE0EED2Ev
60627434 t .text$_ZN7sc_core7sc_portINS_18sc_signal_inout_ifIN5sc_dt7sc_uintILi32EEEEELi1ELNS_14sc_port_policyE0EEC2Ev
60627434 T __ZN7sc_core7sc_portINS_18sc_signal_inout_ifIN5sc_dt7sc_uintILi32EEEEELi1ELNS_14sc_port_policyE0EEC2Ev
6062745c t .text$_ZN7sc_core7sc_portINS_18sc_signal_inout_ifIN5sc_dt7sc_uintILi32EEEEELi1ELNS_14sc_port_policyE0EED0Ev
6062745c T __ZN7sc_core7sc_portINS_18sc_signal_inout_ifIN5sc_dt7sc_uintILi32EEEEELi1ELNS_14sc_port_policyE0EED0Ev
60627494 t .text$_ZN7sc_core7sc_portINS_18sc_signal_inout_ifIN5sc_dt7sc_uintILi32EEEEELi1ELNS_14sc_port_policyE0EED1Ev
60627494 T __ZN7sc_core7sc_portINS_18sc_signal_inout_ifIN5sc_dt7sc_uintILi32EEEEELi1ELNS_14sc_port_policyE0EED1Ev
606274cc t .text$_ZN7sc_core7sc_portINS_18sc_signal_inout_ifIN5sc_dt7sc_uintILi32EEEEELi1ELNS_14sc_port_policyE0EED2Ev
606274cc T __ZN7sc_core7sc_portINS_18sc_signal_inout_ifIN5sc_dt7sc_uintILi32EEEEELi1ELNS_14sc_port_policyE0EED2Ev
60627504 t .text$_ZN7sc_core7sc_portINS_18sc_signal_inout_ifIN5sc_dt8sc_logicEEELi1ELNS_14sc_port_policyE0EED0Ev
60627504 T __ZN7sc_core7sc_portINS_18sc_signal_inout_ifIN5sc_dt8sc_logicEEELi1ELNS_14sc_port_policyE0EED0Ev
60627534 t .text$_ZN7sc_core7sc_portINS_18sc_signal_inout_ifIN5sc_dt8sc_logicEEELi1ELNS_14sc_port_policyE0EED1Ev
60627534 T __ZN7sc_core7sc_portINS_18sc_signal_inout_ifIN5sc_dt8sc_logicEEELi1ELNS_14sc_port_policyE0EED1Ev
6062755c t .text$_ZN7sc_core7sc_portINS_18sc_signal_inout_ifIbEELi1ELNS_14sc_port_policyE0EED0Ev
6062755c T __ZN7sc_core7sc_portINS_18sc_signal_inout_ifIbEELi1ELNS_14sc_port_policyE0EED0Ev
6062758c t .text$_ZN7sc_core7sc_portINS_18sc_signal_inout_ifIbEELi1ELNS_14sc_port_policyE0EED1Ev
6062758c T __ZN7sc_core7sc_portINS_18sc_signal_inout_ifIbEELi1ELNS_14sc_port_policyE0EED1Ev
606275b4 t .text$_ZN7sc_core8sc_event17notify_next_deltaEv
606275b4 T __ZN7sc_core8sc_event17notify_next_deltaEv
60627630 t .text$_ZN7sc_core8sc_eventC1EPNS_8sc_clockENS0_17mtiClockEdgeTypeTE
60627630 T __ZN7sc_core8sc_eventC1EPNS_8sc_clockENS0_17mtiClockEdgeTypeTE
606277e0 t .text$_ZN7sc_core8sc_inoutIN5sc_dt7sc_uintILi32EEEE18end_of_elaborationEv
606277e0 T __ZN7sc_core8sc_inoutIN5sc_dt7sc_uintILi32EEEE18end_of_elaborationEv
60627910 t .text$_ZN7sc_core8sc_inoutIN5sc_dt7sc_uintILi32EEEE20mti_bind_sc_obj_nameEPc
60627910 T __ZN7sc_core8sc_inoutIN5sc_dt7sc_uintILi32EEEE20mti_bind_sc_obj_nameEPc
60627a78 t .text$_ZN7sc_core8sc_inoutIN5sc_dt7sc_uintILi32EEEE28mti_initialize_boundary_portEv
60627a78 T __ZN7sc_core8sc_inoutIN5sc_dt7sc_uintILi32EEEE28mti_initialize_boundary_portEv
60627b58 t .text$_ZN7sc_core8sc_inoutIN5sc_dt7sc_uintILi32EEEE5writeERKS3_
60627b58 T __ZN7sc_core8sc_inoutIN5sc_dt7sc_uintILi32EEEE5writeERKS3_
60627b88 t .text$_ZN7sc_core8sc_inoutIN5sc_dt7sc_uintILi32EEEEC2Ev
60627b88 T __ZN7sc_core8sc_inoutIN5sc_dt7sc_uintILi32EEEEC2Ev
60627c24 t .text$_ZN7sc_core8sc_inoutIN5sc_dt7sc_uintILi32EEEED0Ev
60627c24 T __ZN7sc_core8sc_inoutIN5sc_dt7sc_uintILi32EEEED0Ev
60627d38 t .text$_ZN7sc_core8sc_inoutIN5sc_dt7sc_uintILi32EEEED1Ev
60627d38 T __ZN7sc_core8sc_inoutIN5sc_dt7sc_uintILi32EEEED1Ev
60627e4c t .text$_ZN7sc_core8sc_inoutIN5sc_dt7sc_uintILi32EEEED2Ev
60627e4c T __ZN7sc_core8sc_inoutIN5sc_dt7sc_uintILi32EEEED2Ev
60627f60 t .text$_ZN7sc_core8sc_inoutIN5sc_dt8sc_logicEE20mti_bind_sc_obj_nameEPc
60627f60 T __ZN7sc_core8sc_inoutIN5sc_dt8sc_logicEE20mti_bind_sc_obj_nameEPc
60628100 t .text$_ZN7sc_core8sc_inoutIN5sc_dt8sc_logicEED0Ev
60628100 T __ZN7sc_core8sc_inoutIN5sc_dt8sc_logicEED0Ev
606281d0 t .text$_ZN7sc_core8sc_inoutIN5sc_dt8sc_logicEED1Ev
606281d0 T __ZN7sc_core8sc_inoutIN5sc_dt8sc_logicEED1Ev
60628298 t .text$_ZN7sc_core8sc_inoutIbE20mti_bind_sc_obj_nameEPc
60628298 T __ZN7sc_core8sc_inoutIbE20mti_bind_sc_obj_nameEPc
60628438 t .text$_ZN7sc_core8sc_inoutIbED0Ev
60628438 T __ZN7sc_core8sc_inoutIbED0Ev
60628508 t .text$_ZN7sc_core8sc_inoutIbED1Ev
60628508 T __ZN7sc_core8sc_inoutIbED1Ev
606285d0 t .text$_ZN7sc_core8sc_startEiNS_12sc_time_unitENS_20sc_starvation_policyE
606285d0 T __ZN7sc_core8sc_startEiNS_12sc_time_unitENS_20sc_starvation_policyE
60628604 t .text$_ZN7sc_core9sc_cor_qt36sc_mti_get_qthread_top_stack_pointerEv
60628604 T __ZN7sc_core9sc_cor_qt36sc_mti_get_qthread_top_stack_pointerEv
60628610 t .text$_ZN7sc_core9sc_cor_qtD0Ev
60628610 T __ZN7sc_core9sc_cor_qtD0Ev
60628648 t .text$_ZN7sc_core9sc_cor_qtD1Ev
60628648 T __ZN7sc_core9sc_cor_qtD1Ev
60628678 t .text$_ZN7sc_core9sc_module13mti_is_regionEv
60628678 T __ZN7sc_core9sc_module13mti_is_regionEv
60628684 t .text$_ZN7sc_core9sc_object13mti_is_regionEv
60628684 T __ZN7sc_core9sc_object13mti_is_regionEv
60628690 t .text$_ZN7sc_core9sc_object23mti_is_use_default_nameEv
60628690 T __ZN7sc_core9sc_object23mti_is_use_default_nameEv
606286a0 t .text$_ZN7sc_core9sc_object24mti_set_use_default_nameEb
606286a0 T __ZN7sc_core9sc_object24mti_set_use_default_nameEb
606286b8 t .text$_ZN7sc_core9sc_port_bINS_15sc_signal_in_ifIN5sc_dt7sc_uintILi2EEEEEE13add_interfaceEPNS_12sc_interfaceE
606286b8 T __ZN7sc_core9sc_port_bINS_15sc_signal_in_ifIN5sc_dt7sc_uintILi2EEEEEE13add_interfaceEPNS_12sc_interfaceE
6062879c t .text$_ZN7sc_core9sc_port_bINS_15sc_signal_in_ifIN5sc_dt7sc_uintILi2EEEEEE13get_interfaceEv
6062879c T __ZN7sc_core9sc_port_bINS_15sc_signal_in_ifIN5sc_dt7sc_uintILi2EEEEEE13get_interfaceEv
606287d4 t .text$_ZN7sc_core9sc_port_bINS_15sc_signal_in_ifIN5sc_dt7sc_uintILi2EEEEEE15interface_countEv
606287d4 T __ZN7sc_core9sc_port_bINS_15sc_signal_in_ifIN5sc_dt7sc_uintILi2EEEEEE15interface_countEv
606287e8 t .text$_ZN7sc_core9sc_port_bINS_15sc_signal_in_ifIN5sc_dt7sc_uintILi2EEEEEE4bindERS5_
606287e8 T __ZN7sc_core9sc_port_bINS_15sc_signal_in_ifIN5sc_dt7sc_uintILi2EEEEEE4bindERS5_
60628810 t .text$_ZN7sc_core9sc_port_bINS_15sc_signal_in_ifIN5sc_dt7sc_uintILi2EEEEEE4bindERS6_
60628810 T __ZN7sc_core9sc_port_bINS_15sc_signal_in_ifIN5sc_dt7sc_uintILi2EEEEEE4bindERS6_
6062882c t .text$_ZN7sc_core9sc_port_bINS_15sc_signal_in_ifIN5sc_dt7sc_uintILi2EEEEEE5vbindERNS_12sc_interfaceE
6062882c T __ZN7sc_core9sc_port_bINS_15sc_signal_in_ifIN5sc_dt7sc_uintILi2EEEEEE5vbindERNS_12sc_interfaceE
6062889c t .text$_ZN7sc_core9sc_port_bINS_15sc_signal_in_ifIN5sc_dt7sc_uintILi2EEEEEE5vbindERNS_12sc_port_baseE
6062889c T __ZN7sc_core9sc_port_bINS_15sc_signal_in_ifIN5sc_dt7sc_uintILi2EEEEEE5vbindERNS_12sc_port_baseE
60628900 t .text$_ZN7sc_core9sc_port_bINS_15sc_signal_in_ifIN5sc_dt7sc_uintILi2EEEEEEC2EiNS_14sc_port_policyE
60628900 T __ZN7sc_core9sc_port_bINS_15sc_signal_in_ifIN5sc_dt7sc_uintILi2EEEEEEC2EiNS_14sc_port_policyE
60628940 t .text$_ZN7sc_core9sc_port_bINS_15sc_signal_in_ifIN5sc_dt7sc_uintILi2EEEEEED0Ev
60628940 T __ZN7sc_core9sc_port_bINS_15sc_signal_in_ifIN5sc_dt7sc_uintILi2EEEEEED0Ev
6062898c t .text$_ZN7sc_core9sc_port_bINS_15sc_signal_in_ifIN5sc_dt7sc_uintILi2EEEEEED1Ev
6062898c T __ZN7sc_core9sc_port_bINS_15sc_signal_in_ifIN5sc_dt7sc_uintILi2EEEEEED1Ev
606289d8 t .text$_ZN7sc_core9sc_port_bINS_15sc_signal_in_ifIN5sc_dt7sc_uintILi2EEEEEED2Ev
606289d8 T __ZN7sc_core9sc_port_bINS_15sc_signal_in_ifIN5sc_dt7sc_uintILi2EEEEEED2Ev
60628a24 t .text$_ZN7sc_core9sc_port_bINS_15sc_signal_in_ifIN5sc_dt7sc_uintILi32EEEEEE13add_interfaceEPNS_12sc_interfaceE
60628a24 T __ZN7sc_core9sc_port_bINS_15sc_signal_in_ifIN5sc_dt7sc_uintILi32EEEEEE13add_interfaceEPNS_12sc_interfaceE
60628b08 t .text$_ZN7sc_core9sc_port_bINS_15sc_signal_in_ifIN5sc_dt7sc_uintILi32EEEEEE13get_interfaceEv
60628b08 T __ZN7sc_core9sc_port_bINS_15sc_signal_in_ifIN5sc_dt7sc_uintILi32EEEEEE13get_interfaceEv
60628b40 t .text$_ZN7sc_core9sc_port_bINS_15sc_signal_in_ifIN5sc_dt7sc_uintILi32EEEEEE15interface_countEv
60628b40 T __ZN7sc_core9sc_port_bINS_15sc_signal_in_ifIN5sc_dt7sc_uintILi32EEEEEE15interface_countEv
60628b54 t .text$_ZN7sc_core9sc_port_bINS_15sc_signal_in_ifIN5sc_dt7sc_uintILi32EEEEEE4bindERS5_
60628b54 T __ZN7sc_core9sc_port_bINS_15sc_signal_in_ifIN5sc_dt7sc_uintILi32EEEEEE4bindERS5_
60628b7c t .text$_ZN7sc_core9sc_port_bINS_15sc_signal_in_ifIN5sc_dt7sc_uintILi32EEEEEE4bindERS6_
60628b7c T __ZN7sc_core9sc_port_bINS_15sc_signal_in_ifIN5sc_dt7sc_uintILi32EEEEEE4bindERS6_
60628b98 t .text$_ZN7sc_core9sc_port_bINS_15sc_signal_in_ifIN5sc_dt7sc_uintILi32EEEEEE5vbindERNS_12sc_interfaceE
60628b98 T __ZN7sc_core9sc_port_bINS_15sc_signal_in_ifIN5sc_dt7sc_uintILi32EEEEEE5vbindERNS_12sc_interfaceE
60628c08 t .text$_ZN7sc_core9sc_port_bINS_15sc_signal_in_ifIN5sc_dt7sc_uintILi32EEEEEE5vbindERNS_12sc_port_baseE
60628c08 T __ZN7sc_core9sc_port_bINS_15sc_signal_in_ifIN5sc_dt7sc_uintILi32EEEEEE5vbindERNS_12sc_port_baseE
60628c6c t .text$_ZN7sc_core9sc_port_bINS_15sc_signal_in_ifIN5sc_dt7sc_uintILi32EEEEEEC2EiNS_14sc_port_policyE
60628c6c T __ZN7sc_core9sc_port_bINS_15sc_signal_in_ifIN5sc_dt7sc_uintILi32EEEEEEC2EiNS_14sc_port_policyE
60628cac t .text$_ZN7sc_core9sc_port_bINS_15sc_signal_in_ifIN5sc_dt7sc_uintILi32EEEEEED0Ev
60628cac T __ZN7sc_core9sc_port_bINS_15sc_signal_in_ifIN5sc_dt7sc_uintILi32EEEEEED0Ev
60628cf8 t .text$_ZN7sc_core9sc_port_bINS_15sc_signal_in_ifIN5sc_dt7sc_uintILi32EEEEEED1Ev
60628cf8 T __ZN7sc_core9sc_port_bINS_15sc_signal_in_ifIN5sc_dt7sc_uintILi32EEEEEED1Ev
60628d44 t .text$_ZN7sc_core9sc_port_bINS_15sc_signal_in_ifIN5sc_dt7sc_uintILi32EEEEEED2Ev
60628d44 T __ZN7sc_core9sc_port_bINS_15sc_signal_in_ifIN5sc_dt7sc_uintILi32EEEEEED2Ev
60628d90 t .text$_ZN7sc_core9sc_port_bINS_15sc_signal_in_ifIN5sc_dt8sc_logicEEEE13add_interfaceEPNS_12sc_interfaceE
60628d90 T __ZN7sc_core9sc_port_bINS_15sc_signal_in_ifIN5sc_dt8sc_logicEEEE13add_interfaceEPNS_12sc_interfaceE
60628e74 t .text$_ZN7sc_core9sc_port_bINS_15sc_signal_in_ifIN5sc_dt8sc_logicEEEE13get_interfaceEv
60628e74 T __ZN7sc_core9sc_port_bINS_15sc_signal_in_ifIN5sc_dt8sc_logicEEEE13get_interfaceEv
60628eac t .text$_ZN7sc_core9sc_port_bINS_15sc_signal_in_ifIN5sc_dt8sc_logicEEEE15interface_countEv
60628eac T __ZN7sc_core9sc_port_bINS_15sc_signal_in_ifIN5sc_dt8sc_logicEEEE15interface_countEv
60628ec0 t .text$_ZN7sc_core9sc_port_bINS_15sc_signal_in_ifIN5sc_dt8sc_logicEEEE4bindERS4_
60628ec0 T __ZN7sc_core9sc_port_bINS_15sc_signal_in_ifIN5sc_dt8sc_logicEEEE4bindERS4_
60628ee8 t .text$_ZN7sc_core9sc_port_bINS_15sc_signal_in_ifIN5sc_dt8sc_logicEEEE4bindERS5_
60628ee8 T __ZN7sc_core9sc_port_bINS_15sc_signal_in_ifIN5sc_dt8sc_logicEEEE4bindERS5_
60628f04 t .text$_ZN7sc_core9sc_port_bINS_15sc_signal_in_ifIN5sc_dt8sc_logicEEEE5vbindERNS_12sc_interfaceE
60628f04 T __ZN7sc_core9sc_port_bINS_15sc_signal_in_ifIN5sc_dt8sc_logicEEEE5vbindERNS_12sc_interfaceE
60628f74 t .text$_ZN7sc_core9sc_port_bINS_15sc_signal_in_ifIN5sc_dt8sc_logicEEEE5vbindERNS_12sc_port_baseE
60628f74 T __ZN7sc_core9sc_port_bINS_15sc_signal_in_ifIN5sc_dt8sc_logicEEEE5vbindERNS_12sc_port_baseE
60628fd8 t .text$_ZN7sc_core9sc_port_bINS_15sc_signal_in_ifIN5sc_dt8sc_logicEEEEC2EiNS_14sc_port_policyE
60628fd8 T __ZN7sc_core9sc_port_bINS_15sc_signal_in_ifIN5sc_dt8sc_logicEEEEC2EiNS_14sc_port_policyE
60629018 t .text$_ZN7sc_core9sc_port_bINS_15sc_signal_in_ifIN5sc_dt8sc_logicEEEED0Ev
60629018 T __ZN7sc_core9sc_port_bINS_15sc_signal_in_ifIN5sc_dt8sc_logicEEEED0Ev
60629064 t .text$_ZN7sc_core9sc_port_bINS_15sc_signal_in_ifIN5sc_dt8sc_logicEEEED1Ev
60629064 T __ZN7sc_core9sc_port_bINS_15sc_signal_in_ifIN5sc_dt8sc_logicEEEED1Ev
606290b0 t .text$_ZN7sc_core9sc_port_bINS_15sc_signal_in_ifIN5sc_dt8sc_logicEEEED2Ev
606290b0 T __ZN7sc_core9sc_port_bINS_15sc_signal_in_ifIN5sc_dt8sc_logicEEEED2Ev
606290fc t .text$_ZN7sc_core9sc_port_bINS_15sc_signal_in_ifIbEEE13add_interfaceEPNS_12sc_interfaceE
606290fc T __ZN7sc_core9sc_port_bINS_15sc_signal_in_ifIbEEE13add_interfaceEPNS_12sc_interfaceE
606291e0 t .text$_ZN7sc_core9sc_port_bINS_15sc_signal_in_ifIbEEE13get_interfaceEv
606291e0 T __ZN7sc_core9sc_port_bINS_15sc_signal_in_ifIbEEE13get_interfaceEv
60629218 t .text$_ZN7sc_core9sc_port_bINS_15sc_signal_in_ifIbEEE15interface_countEv
60629218 T __ZN7sc_core9sc_port_bINS_15sc_signal_in_ifIbEEE15interface_countEv
6062922c t .text$_ZN7sc_core9sc_port_bINS_15sc_signal_in_ifIbEEE4bindERS2_
6062922c T __ZN7sc_core9sc_port_bINS_15sc_signal_in_ifIbEEE4bindERS2_
60629254 t .text$_ZN7sc_core9sc_port_bINS_15sc_signal_in_ifIbEEE4bindERS3_
60629254 T __ZN7sc_core9sc_port_bINS_15sc_signal_in_ifIbEEE4bindERS3_
60629270 t .text$_ZN7sc_core9sc_port_bINS_15sc_signal_in_ifIbEEE5vbindERNS_12sc_interfaceE
60629270 T __ZN7sc_core9sc_port_bINS_15sc_signal_in_ifIbEEE5vbindERNS_12sc_interfaceE
606292e0 t .text$_ZN7sc_core9sc_port_bINS_15sc_signal_in_ifIbEEE5vbindERNS_12sc_port_baseE
606292e0 T __ZN7sc_core9sc_port_bINS_15sc_signal_in_ifIbEEE5vbindERNS_12sc_port_baseE
60629344 t .text$_ZN7sc_core9sc_port_bINS_15sc_signal_in_ifIbEEEC2EiNS_14sc_port_policyE
60629344 T __ZN7sc_core9sc_port_bINS_15sc_signal_in_ifIbEEEC2EiNS_14sc_port_policyE
60629384 t .text$_ZN7sc_core9sc_port_bINS_15sc_signal_in_ifIbEEED0Ev
60629384 T __ZN7sc_core9sc_port_bINS_15sc_signal_in_ifIbEEED0Ev
606293d0 t .text$_ZN7sc_core9sc_port_bINS_15sc_signal_in_ifIbEEED1Ev
606293d0 T __ZN7sc_core9sc_port_bINS_15sc_signal_in_ifIbEEED1Ev
6062941c t .text$_ZN7sc_core9sc_port_bINS_15sc_signal_in_ifIbEEED2Ev
6062941c T __ZN7sc_core9sc_port_bINS_15sc_signal_in_ifIbEEED2Ev
60629468 t .text$_ZN7sc_core9sc_port_bINS_18sc_signal_inout_ifIN5sc_dt7sc_uintILi32EEEEEE13add_interfaceEPNS_12sc_interfaceE
60629468 T __ZN7sc_core9sc_port_bINS_18sc_signal_inout_ifIN5sc_dt7sc_uintILi32EEEEEE13add_interfaceEPNS_12sc_interfaceE
6062954c t .text$_ZN7sc_core9sc_port_bINS_18sc_signal_inout_ifIN5sc_dt7sc_uintILi32EEEEEE13get_interfaceEv
6062954c T __ZN7sc_core9sc_port_bINS_18sc_signal_inout_ifIN5sc_dt7sc_uintILi32EEEEEE13get_interfaceEv
60629584 t .text$_ZN7sc_core9sc_port_bINS_18sc_signal_inout_ifIN5sc_dt7sc_uintILi32EEEEEE15interface_countEv
60629584 T __ZN7sc_core9sc_port_bINS_18sc_signal_inout_ifIN5sc_dt7sc_uintILi32EEEEEE15interface_countEv
60629598 t .text$_ZN7sc_core9sc_port_bINS_18sc_signal_inout_ifIN5sc_dt7sc_uintILi32EEEEEE4bindERS5_
60629598 T __ZN7sc_core9sc_port_bINS_18sc_signal_inout_ifIN5sc_dt7sc_uintILi32EEEEEE4bindERS5_
606295c0 t .text$_ZN7sc_core9sc_port_bINS_18sc_signal_inout_ifIN5sc_dt7sc_uintILi32EEEEEE4bindERS6_
606295c0 T __ZN7sc_core9sc_port_bINS_18sc_signal_inout_ifIN5sc_dt7sc_uintILi32EEEEEE4bindERS6_
606295dc t .text$_ZN7sc_core9sc_port_bINS_18sc_signal_inout_ifIN5sc_dt7sc_uintILi32EEEEEE5vbindERNS_12sc_interfaceE
606295dc T __ZN7sc_core9sc_port_bINS_18sc_signal_inout_ifIN5sc_dt7sc_uintILi32EEEEEE5vbindERNS_12sc_interfaceE
6062964c t .text$_ZN7sc_core9sc_port_bINS_18sc_signal_inout_ifIN5sc_dt7sc_uintILi32EEEEEE5vbindERNS_12sc_port_baseE
6062964c T __ZN7sc_core9sc_port_bINS_18sc_signal_inout_ifIN5sc_dt7sc_uintILi32EEEEEE5vbindERNS_12sc_port_baseE
606296b0 t .text$_ZN7sc_core9sc_port_bINS_18sc_signal_inout_ifIN5sc_dt7sc_uintILi32EEEEEEC2EiNS_14sc_port_policyE
606296b0 T __ZN7sc_core9sc_port_bINS_18sc_signal_inout_ifIN5sc_dt7sc_uintILi32EEEEEEC2EiNS_14sc_port_policyE
606296f0 t .text$_ZN7sc_core9sc_port_bINS_18sc_signal_inout_ifIN5sc_dt7sc_uintILi32EEEEEED0Ev
606296f0 T __ZN7sc_core9sc_port_bINS_18sc_signal_inout_ifIN5sc_dt7sc_uintILi32EEEEEED0Ev
6062973c t .text$_ZN7sc_core9sc_port_bINS_18sc_signal_inout_ifIN5sc_dt7sc_uintILi32EEEEEED1Ev
6062973c T __ZN7sc_core9sc_port_bINS_18sc_signal_inout_ifIN5sc_dt7sc_uintILi32EEEEEED1Ev
60629788 t .text$_ZN7sc_core9sc_port_bINS_18sc_signal_inout_ifIN5sc_dt7sc_uintILi32EEEEEED2Ev
60629788 T __ZN7sc_core9sc_port_bINS_18sc_signal_inout_ifIN5sc_dt7sc_uintILi32EEEEEED2Ev
606297d4 t .text$_ZN7sc_core9sc_port_bINS_18sc_signal_inout_ifIN5sc_dt7sc_uintILi32EEEEEEclERS5_
606297d4 T __ZN7sc_core9sc_port_bINS_18sc_signal_inout_ifIN5sc_dt7sc_uintILi32EEEEEEclERS5_
606297f4 t .text$_ZN7sc_core9sc_port_bINS_18sc_signal_inout_ifIN5sc_dt7sc_uintILi32EEEEEEptEv
606297f4 T __ZN7sc_core9sc_port_bINS_18sc_signal_inout_ifIN5sc_dt7sc_uintILi32EEEEEEptEv
60629828 t .text$_ZN7sc_core9sc_port_bINS_18sc_signal_inout_ifIN5sc_dt8sc_logicEEEE13add_interfaceEPNS_12sc_interfaceE
60629828 T __ZN7sc_core9sc_port_bINS_18sc_signal_inout_ifIN5sc_dt8sc_logicEEEE13add_interfaceEPNS_12sc_interfaceE
606298d4 t .text$_ZN7sc_core9sc_port_bINS_18sc_signal_inout_ifIN5sc_dt8sc_logicEEEE13get_interfaceEv
606298d4 T __ZN7sc_core9sc_port_bINS_18sc_signal_inout_ifIN5sc_dt8sc_logicEEEE13get_interfaceEv
606298f0 t .text$_ZN7sc_core9sc_port_bINS_18sc_signal_inout_ifIN5sc_dt8sc_logicEEEE15interface_countEv
606298f0 T __ZN7sc_core9sc_port_bINS_18sc_signal_inout_ifIN5sc_dt8sc_logicEEEE15interface_countEv
606298fc t .text$_ZN7sc_core9sc_port_bINS_18sc_signal_inout_ifIN5sc_dt8sc_logicEEEE4bindERS4_
606298fc T __ZN7sc_core9sc_port_bINS_18sc_signal_inout_ifIN5sc_dt8sc_logicEEEE4bindERS4_
60629910 t .text$_ZN7sc_core9sc_port_bINS_18sc_signal_inout_ifIN5sc_dt8sc_logicEEEE4bindERS5_
60629910 T __ZN7sc_core9sc_port_bINS_18sc_signal_inout_ifIN5sc_dt8sc_logicEEEE4bindERS5_
6062991c t .text$_ZN7sc_core9sc_port_bINS_18sc_signal_inout_ifIN5sc_dt8sc_logicEEEE5vbindERNS_12sc_interfaceE
6062991c T __ZN7sc_core9sc_port_bINS_18sc_signal_inout_ifIN5sc_dt8sc_logicEEEE5vbindERNS_12sc_interfaceE
60629964 t .text$_ZN7sc_core9sc_port_bINS_18sc_signal_inout_ifIN5sc_dt8sc_logicEEEE5vbindERNS_12sc_port_baseE
60629964 T __ZN7sc_core9sc_port_bINS_18sc_signal_inout_ifIN5sc_dt8sc_logicEEEE5vbindERNS_12sc_port_baseE
606299a8 t .text$_ZN7sc_core9sc_port_bINS_18sc_signal_inout_ifIN5sc_dt8sc_logicEEEED0Ev
606299a8 T __ZN7sc_core9sc_port_bINS_18sc_signal_inout_ifIN5sc_dt8sc_logicEEEED0Ev
606299d8 t .text$_ZN7sc_core9sc_port_bINS_18sc_signal_inout_ifIN5sc_dt8sc_logicEEEED1Ev
606299d8 T __ZN7sc_core9sc_port_bINS_18sc_signal_inout_ifIN5sc_dt8sc_logicEEEED1Ev
60629a00 t .text$_ZN7sc_core9sc_port_bINS_18sc_signal_inout_ifIbEEE13add_interfaceEPNS_12sc_interfaceE
60629a00 T __ZN7sc_core9sc_port_bINS_18sc_signal_inout_ifIbEEE13add_interfaceEPNS_12sc_interfaceE
60629aac t .text$_ZN7sc_core9sc_port_bINS_18sc_signal_inout_ifIbEEE13get_interfaceEv
60629aac T __ZN7sc_core9sc_port_bINS_18sc_signal_inout_ifIbEEE13get_interfaceEv
60629ac8 t .text$_ZN7sc_core9sc_port_bINS_18sc_signal_inout_ifIbEEE15interface_countEv
60629ac8 T __ZN7sc_core9sc_port_bINS_18sc_signal_inout_ifIbEEE15interface_countEv
60629ad4 t .text$_ZN7sc_core9sc_port_bINS_18sc_signal_inout_ifIbEEE4bindERS2_
60629ad4 T __ZN7sc_core9sc_port_bINS_18sc_signal_inout_ifIbEEE4bindERS2_
60629ae8 t .text$_ZN7sc_core9sc_port_bINS_18sc_signal_inout_ifIbEEE4bindERS3_
60629ae8 T __ZN7sc_core9sc_port_bINS_18sc_signal_inout_ifIbEEE4bindERS3_
60629af4 t .text$_ZN7sc_core9sc_port_bINS_18sc_signal_inout_ifIbEEE5vbindERNS_12sc_interfaceE
60629af4 T __ZN7sc_core9sc_port_bINS_18sc_signal_inout_ifIbEEE5vbindERNS_12sc_interfaceE
60629b3c t .text$_ZN7sc_core9sc_port_bINS_18sc_signal_inout_ifIbEEE5vbindERNS_12sc_port_baseE
60629b3c T __ZN7sc_core9sc_port_bINS_18sc_signal_inout_ifIbEEE5vbindERNS_12sc_port_baseE
60629b80 t .text$_ZN7sc_core9sc_port_bINS_18sc_signal_inout_ifIbEEED0Ev
60629b80 T __ZN7sc_core9sc_port_bINS_18sc_signal_inout_ifIbEEED0Ev
60629bb0 t .text$_ZN7sc_core9sc_port_bINS_18sc_signal_inout_ifIbEEED1Ev
60629bb0 T __ZN7sc_core9sc_port_bINS_18sc_signal_inout_ifIbEEED1Ev
60629bd8 t .text$_ZN7sc_core9sc_signalIN5sc_dt7sc_uintILi2EEELNS_16sc_writer_policyE0EE13register_portERNS_12sc_port_baseEPKc
60629bd8 T __ZN7sc_core9sc_signalIN5sc_dt7sc_uintILi2EEELNS_16sc_writer_policyE0EE13register_portERNS_12sc_port_baseEPKc
60629cac t .text$_ZN7sc_core9sc_signalIN5sc_dt7sc_uintILi2EEELNS_16sc_writer_policyE0EE18mti_get_channel_idEPNS_9sc_objectE
60629cac T __ZN7sc_core9sc_signalIN5sc_dt7sc_uintILi2EEELNS_16sc_writer_policyE0EE18mti_get_channel_idEPNS_9sc_objectE
60629cc0 t .text$_ZN7sc_core9sc_signalIN5sc_dt7sc_uintILi2EEELNS_16sc_writer_policyE0EE20mti_get_channel_typeEv
60629cc0 T __ZN7sc_core9sc_signalIN5sc_dt7sc_uintILi2EEELNS_16sc_writer_policyE0EE20mti_get_channel_typeEv
60629cdc t .text$_ZN7sc_core9sc_signalIN5sc_dt7sc_uintILi2EEELNS_16sc_writer_policyE0EE21mti_get_channel_valueEi
60629cdc T __ZN7sc_core9sc_signalIN5sc_dt7sc_uintILi2EEELNS_16sc_writer_policyE0EE21mti_get_channel_valueEi
60629d1c t .text$_ZN7sc_core9sc_signalIN5sc_dt7sc_uintILi2EEELNS_16sc_writer_policyE0EE21mti_set_channel_valueEPvi
60629d1c T __ZN7sc_core9sc_signalIN5sc_dt7sc_uintILi2EEELNS_16sc_writer_policyE0EE21mti_set_channel_valueEPvi
60629d3c t .text$_ZN7sc_core9sc_signalIN5sc_dt7sc_uintILi2EEELNS_16sc_writer_policyE0EE27mti_get_construction_paramsEPiS6_S6_S6_S6_
60629d3c T __ZN7sc_core9sc_signalIN5sc_dt7sc_uintILi2EEELNS_16sc_writer_policyE0EE27mti_get_construction_paramsEPiS6_S6_S6_S6_
60629d70 t .text$_ZN7sc_core9sc_signalIN5sc_dt7sc_uintILi2EEELNS_16sc_writer_policyE0EE5writeERKS3_
60629d70 T __ZN7sc_core9sc_signalIN5sc_dt7sc_uintILi2EEELNS_16sc_writer_policyE0EE5writeERKS3_
60629ddc t .text$_ZN7sc_core9sc_signalIN5sc_dt7sc_uintILi2EEELNS_16sc_writer_policyE0EE6updateEv
60629ddc T __ZN7sc_core9sc_signalIN5sc_dt7sc_uintILi2EEELNS_16sc_writer_policyE0EE6updateEv
60629eac t .text$_ZN7sc_core9sc_signalIN5sc_dt7sc_uintILi2EEELNS_16sc_writer_policyE0EEC1EPKc
60629eac T __ZN7sc_core9sc_signalIN5sc_dt7sc_uintILi2EEELNS_16sc_writer_policyE0EEC1EPKc
6062a098 t .text$_ZN7sc_core9sc_signalIN5sc_dt7sc_uintILi2EEELNS_16sc_writer_policyE0EEC1Ev
6062a098 T __ZN7sc_core9sc_signalIN5sc_dt7sc_uintILi2EEELNS_16sc_writer_policyE0EEC1Ev
6062a2a4 t .text$_ZN7sc_core9sc_signalIN5sc_dt7sc_uintILi2EEELNS_16sc_writer_policyE0EED0Ev
6062a2a4 T __ZN7sc_core9sc_signalIN5sc_dt7sc_uintILi2EEELNS_16sc_writer_policyE0EED0Ev
6062a554 t .text$_ZN7sc_core9sc_signalIN5sc_dt7sc_uintILi2EEELNS_16sc_writer_policyE0EED1Ev
6062a554 T __ZN7sc_core9sc_signalIN5sc_dt7sc_uintILi2EEELNS_16sc_writer_policyE0EED1Ev
6062a804 t .text$_ZN7sc_core9sc_signalIN5sc_dt7sc_uintILi2EEELNS_16sc_writer_policyE0EEaSERKS3_
6062a804 T __ZN7sc_core9sc_signalIN5sc_dt7sc_uintILi2EEELNS_16sc_writer_policyE0EEaSERKS3_
6062a82c t .text$_ZN7sc_core9sc_signalIN5sc_dt7sc_uintILi32EEELNS_16sc_writer_policyE0EE13register_portERNS_12sc_port_baseEPKc
6062a82c T __ZN7sc_core9sc_signalIN5sc_dt7sc_uintILi32EEELNS_16sc_writer_policyE0EE13register_portERNS_12sc_port_baseEPKc
6062a900 t .text$_ZN7sc_core9sc_signalIN5sc_dt7sc_uintILi32EEELNS_16sc_writer_policyE0EE18mti_get_channel_idEPNS_9sc_objectE
6062a900 T __ZN7sc_core9sc_signalIN5sc_dt7sc_uintILi32EEELNS_16sc_writer_policyE0EE18mti_get_channel_idEPNS_9sc_objectE
6062a914 t .text$_ZN7sc_core9sc_signalIN5sc_dt7sc_uintILi32EEELNS_16sc_writer_policyE0EE20mti_get_channel_typeEv
6062a914 T __ZN7sc_core9sc_signalIN5sc_dt7sc_uintILi32EEELNS_16sc_writer_policyE0EE20mti_get_channel_typeEv
6062a930 t .text$_ZN7sc_core9sc_signalIN5sc_dt7sc_uintILi32EEELNS_16sc_writer_policyE0EE21mti_get_channel_valueEi
6062a930 T __ZN7sc_core9sc_signalIN5sc_dt7sc_uintILi32EEELNS_16sc_writer_policyE0EE21mti_get_channel_valueEi
6062a970 t .text$_ZN7sc_core9sc_signalIN5sc_dt7sc_uintILi32EEELNS_16sc_writer_policyE0EE21mti_set_channel_valueEPvi
6062a970 T __ZN7sc_core9sc_signalIN5sc_dt7sc_uintILi32EEELNS_16sc_writer_policyE0EE21mti_set_channel_valueEPvi
6062a990 t .text$_ZN7sc_core9sc_signalIN5sc_dt7sc_uintILi32EEELNS_16sc_writer_policyE0EE27mti_get_construction_paramsEPiS6_S6_S6_S6_
6062a990 T __ZN7sc_core9sc_signalIN5sc_dt7sc_uintILi32EEELNS_16sc_writer_policyE0EE27mti_get_construction_paramsEPiS6_S6_S6_S6_
6062a9c4 t .text$_ZN7sc_core9sc_signalIN5sc_dt7sc_uintILi32EEELNS_16sc_writer_policyE0EE5writeERKS3_
6062a9c4 T __ZN7sc_core9sc_signalIN5sc_dt7sc_uintILi32EEELNS_16sc_writer_policyE0EE5writeERKS3_
6062aa30 t .text$_ZN7sc_core9sc_signalIN5sc_dt7sc_uintILi32EEELNS_16sc_writer_policyE0EE6updateEv
6062aa30 T __ZN7sc_core9sc_signalIN5sc_dt7sc_uintILi32EEELNS_16sc_writer_policyE0EE6updateEv
6062ab00 t .text$_ZN7sc_core9sc_signalIN5sc_dt7sc_uintILi32EEELNS_16sc_writer_policyE0EEC1EPKc
6062ab00 T __ZN7sc_core9sc_signalIN5sc_dt7sc_uintILi32EEELNS_16sc_writer_policyE0EEC1EPKc
6062acec t .text$_ZN7sc_core9sc_signalIN5sc_dt7sc_uintILi32EEELNS_16sc_writer_policyE0EEC1Ev
6062acec T __ZN7sc_core9sc_signalIN5sc_dt7sc_uintILi32EEELNS_16sc_writer_policyE0EEC1Ev
6062aef8 t .text$_ZN7sc_core9sc_signalIN5sc_dt7sc_uintILi32EEELNS_16sc_writer_policyE0EED0Ev
6062aef8 T __ZN7sc_core9sc_signalIN5sc_dt7sc_uintILi32EEELNS_16sc_writer_policyE0EED0Ev
6062b1a8 t .text$_ZN7sc_core9sc_signalIN5sc_dt7sc_uintILi32EEELNS_16sc_writer_policyE0EED1Ev
6062b1a8 T __ZN7sc_core9sc_signalIN5sc_dt7sc_uintILi32EEELNS_16sc_writer_policyE0EED1Ev
6062b458 t .text$_ZN7sc_core9sc_signalIN5sc_dt7sc_uintILi32EEELNS_16sc_writer_policyE0EEaSERKS3_
6062b458 T __ZN7sc_core9sc_signalIN5sc_dt7sc_uintILi32EEELNS_16sc_writer_policyE0EEaSERKS3_
6062b480 t .text$_ZN7sc_core9sc_signalIN5sc_dt8sc_logicELNS_16sc_writer_policyE0EE13register_portERNS_12sc_port_baseEPKc
6062b480 T __ZN7sc_core9sc_signalIN5sc_dt8sc_logicELNS_16sc_writer_policyE0EE13register_portERNS_12sc_port_baseEPKc
6062b578 t .text$_ZN7sc_core9sc_signalIN5sc_dt8sc_logicELNS_16sc_writer_policyE0EE18mti_get_channel_idEPNS_9sc_objectE
6062b578 T __ZN7sc_core9sc_signalIN5sc_dt8sc_logicELNS_16sc_writer_policyE0EE18mti_get_channel_idEPNS_9sc_objectE
6062b58c t .text$_ZN7sc_core9sc_signalIN5sc_dt8sc_logicELNS_16sc_writer_policyE0EE20mti_get_channel_typeEv
6062b58c T __ZN7sc_core9sc_signalIN5sc_dt8sc_logicELNS_16sc_writer_policyE0EE20mti_get_channel_typeEv
6062b5a4 t .text$_ZN7sc_core9sc_signalIN5sc_dt8sc_logicELNS_16sc_writer_policyE0EE21mti_get_channel_valueEi
6062b5a4 T __ZN7sc_core9sc_signalIN5sc_dt8sc_logicELNS_16sc_writer_policyE0EE21mti_get_channel_valueEi
6062b5e4 t .text$_ZN7sc_core9sc_signalIN5sc_dt8sc_logicELNS_16sc_writer_policyE0EE21mti_set_channel_valueEPvi
6062b5e4 T __ZN7sc_core9sc_signalIN5sc_dt8sc_logicELNS_16sc_writer_policyE0EE21mti_set_channel_valueEPvi
6062b604 t .text$_ZN7sc_core9sc_signalIN5sc_dt8sc_logicELNS_16sc_writer_policyE0EE22control_foreign_signalEPKc
6062b604 T __ZN7sc_core9sc_signalIN5sc_dt8sc_logicELNS_16sc_writer_policyE0EE22control_foreign_signalEPKc
6062b66c t .text$_ZN7sc_core9sc_signalIN5sc_dt8sc_logicELNS_16sc_writer_policyE0EE22observe_foreign_signalEPKc
6062b66c T __ZN7sc_core9sc_signalIN5sc_dt8sc_logicELNS_16sc_writer_policyE0EE22observe_foreign_signalEPKc
6062b6d4 t .text$_ZN7sc_core9sc_signalIN5sc_dt8sc_logicELNS_16sc_writer_policyE0EE27mti_get_construction_paramsEPiS5_S5_S5_S5_
6062b6d4 T __ZN7sc_core9sc_signalIN5sc_dt8sc_logicELNS_16sc_writer_policyE0EE27mti_get_construction_paramsEPiS5_S5_S5_S5_
6062b710 t .text$_ZN7sc_core9sc_signalIN5sc_dt8sc_logicELNS_16sc_writer_policyE0EE5writeERKS2_
6062b710 T __ZN7sc_core9sc_signalIN5sc_dt8sc_logicELNS_16sc_writer_policyE0EE5writeERKS2_
6062b7f0 t .text$_ZN7sc_core9sc_signalIN5sc_dt8sc_logicELNS_16sc_writer_policyE0EE6updateEv
6062b7f0 T __ZN7sc_core9sc_signalIN5sc_dt8sc_logicELNS_16sc_writer_policyE0EE6updateEv
6062b80c t .text$_ZN7sc_core9sc_signalIN5sc_dt8sc_logicELNS_16sc_writer_policyE0EE9do_updateEv
6062b80c T __ZN7sc_core9sc_signalIN5sc_dt8sc_logicELNS_16sc_writer_policyE0EE9do_updateEv
6062b984 t .text$_ZN7sc_core9sc_signalIN5sc_dt8sc_logicELNS_16sc_writer_policyE0EEC1EPKc
6062b984 T __ZN7sc_core9sc_signalIN5sc_dt8sc_logicELNS_16sc_writer_policyE0EEC1EPKc
6062baac t .text$_ZN7sc_core9sc_signalIN5sc_dt8sc_logicELNS_16sc_writer_policyE0EEC1EPKcS2_
6062baac T __ZN7sc_core9sc_signalIN5sc_dt8sc_logicELNS_16sc_writer_policyE0EEC1EPKcS2_
6062bbd8 t .text$_ZN7sc_core9sc_signalIN5sc_dt8sc_logicELNS_16sc_writer_policyE0EEC1Ev
6062bbd8 T __ZN7sc_core9sc_signalIN5sc_dt8sc_logicELNS_16sc_writer_policyE0EEC1Ev
6062bd58 t .text$_ZN7sc_core9sc_signalIN5sc_dt8sc_logicELNS_16sc_writer_policyE0EEC2EPKc
6062bd58 T __ZN7sc_core9sc_signalIN5sc_dt8sc_logicELNS_16sc_writer_policyE0EEC2EPKc
6062be68 t .text$_ZN7sc_core9sc_signalIN5sc_dt8sc_logicELNS_16sc_writer_policyE0EEC2EPKcS2_
6062be68 T __ZN7sc_core9sc_signalIN5sc_dt8sc_logicELNS_16sc_writer_policyE0EEC2EPKcS2_
6062bf7c t .text$_ZN7sc_core9sc_signalIN5sc_dt8sc_logicELNS_16sc_writer_policyE0EEC2Ev
6062bf7c T __ZN7sc_core9sc_signalIN5sc_dt8sc_logicELNS_16sc_writer_policyE0EEC2Ev
6062c09c t .text$_ZN7sc_core9sc_signalIN5sc_dt8sc_logicELNS_16sc_writer_policyE0EED0Ev
6062c09c T __ZN7sc_core9sc_signalIN5sc_dt8sc_logicELNS_16sc_writer_policyE0EED0Ev
6062c360 t .text$_ZN7sc_core9sc_signalIN5sc_dt8sc_logicELNS_16sc_writer_policyE0EED1Ev
6062c360 T __ZN7sc_core9sc_signalIN5sc_dt8sc_logicELNS_16sc_writer_policyE0EED1Ev
6062c624 t .text$_ZN7sc_core9sc_signalIN5sc_dt8sc_logicELNS_16sc_writer_policyE0EED2Ev
6062c624 T __ZN7sc_core9sc_signalIN5sc_dt8sc_logicELNS_16sc_writer_policyE0EED2Ev
6062c768 t .text$_ZN7sc_core9sc_signalIN5sc_dt8sc_logicELNS_16sc_writer_policyE0EEaSERKNS_15sc_signal_in_ifIS2_EE
6062c768 T __ZN7sc_core9sc_signalIN5sc_dt8sc_logicELNS_16sc_writer_policyE0EEaSERKNS_15sc_signal_in_ifIS2_EE
6062c794 t .text$_ZN7sc_core9sc_signalIN5sc_dt8sc_logicELNS_16sc_writer_policyE0EEaSERKS2_
6062c794 T __ZN7sc_core9sc_signalIN5sc_dt8sc_logicELNS_16sc_writer_policyE0EEaSERKS2_
6062c7bc t .text$_ZN7sc_core9sc_signalIN5sc_dt8sc_logicELNS_16sc_writer_policyE0EEaSERKS4_
6062c7bc T __ZN7sc_core9sc_signalIN5sc_dt8sc_logicELNS_16sc_writer_policyE0EEaSERKS4_
6062c7ec t .text$_ZN7sc_core9sc_signalIN5sc_dt8sc_logicELNS_16sc_writer_policyE1EE13register_portERNS_12sc_port_baseEPKc
6062c7ec T __ZN7sc_core9sc_signalIN5sc_dt8sc_logicELNS_16sc_writer_policyE1EE13register_portERNS_12sc_port_baseEPKc
6062c8c8 t .text$_ZN7sc_core9sc_signalIN5sc_dt8sc_logicELNS_16sc_writer_policyE1EE18mti_get_channel_idEPNS_9sc_objectE
6062c8c8 T __ZN7sc_core9sc_signalIN5sc_dt8sc_logicELNS_16sc_writer_policyE1EE18mti_get_channel_idEPNS_9sc_objectE
6062c8dc t .text$_ZN7sc_core9sc_signalIN5sc_dt8sc_logicELNS_16sc_writer_policyE1EE20mti_get_channel_typeEv
6062c8dc T __ZN7sc_core9sc_signalIN5sc_dt8sc_logicELNS_16sc_writer_policyE1EE20mti_get_channel_typeEv
6062c8f4 t .text$_ZN7sc_core9sc_signalIN5sc_dt8sc_logicELNS_16sc_writer_policyE1EE21mti_get_channel_valueEi
6062c8f4 T __ZN7sc_core9sc_signalIN5sc_dt8sc_logicELNS_16sc_writer_policyE1EE21mti_get_channel_valueEi
6062c934 t .text$_ZN7sc_core9sc_signalIN5sc_dt8sc_logicELNS_16sc_writer_policyE1EE21mti_set_channel_valueEPvi
6062c934 T __ZN7sc_core9sc_signalIN5sc_dt8sc_logicELNS_16sc_writer_policyE1EE21mti_set_channel_valueEPvi
6062c954 t .text$_ZN7sc_core9sc_signalIN5sc_dt8sc_logicELNS_16sc_writer_policyE1EE22control_foreign_signalEPKc
6062c954 T __ZN7sc_core9sc_signalIN5sc_dt8sc_logicELNS_16sc_writer_policyE1EE22control_foreign_signalEPKc
6062c9bc t .text$_ZN7sc_core9sc_signalIN5sc_dt8sc_logicELNS_16sc_writer_policyE1EE22observe_foreign_signalEPKc
6062c9bc T __ZN7sc_core9sc_signalIN5sc_dt8sc_logicELNS_16sc_writer_policyE1EE22observe_foreign_signalEPKc
6062ca24 t .text$_ZN7sc_core9sc_signalIN5sc_dt8sc_logicELNS_16sc_writer_policyE1EE27mti_get_construction_paramsEPiS5_S5_S5_S5_
6062ca24 T __ZN7sc_core9sc_signalIN5sc_dt8sc_logicELNS_16sc_writer_policyE1EE27mti_get_construction_paramsEPiS5_S5_S5_S5_
6062ca60 t .text$_ZN7sc_core9sc_signalIN5sc_dt8sc_logicELNS_16sc_writer_policyE1EE5writeERKS2_
6062ca60 T __ZN7sc_core9sc_signalIN5sc_dt8sc_logicELNS_16sc_writer_policyE1EE5writeERKS2_
6062cb3c t .text$_ZN7sc_core9sc_signalIN5sc_dt8sc_logicELNS_16sc_writer_policyE1EE6updateEv
6062cb3c T __ZN7sc_core9sc_signalIN5sc_dt8sc_logicELNS_16sc_writer_policyE1EE6updateEv
6062cb60 t .text$_ZN7sc_core9sc_signalIN5sc_dt8sc_logicELNS_16sc_writer_policyE1EE9do_updateEv
6062cb60 T __ZN7sc_core9sc_signalIN5sc_dt8sc_logicELNS_16sc_writer_policyE1EE9do_updateEv
6062ccd8 t .text$_ZN7sc_core9sc_signalIN5sc_dt8sc_logicELNS_16sc_writer_policyE1EEC1EPKc
6062ccd8 T __ZN7sc_core9sc_signalIN5sc_dt8sc_logicELNS_16sc_writer_policyE1EEC1EPKc
6062ce34 t .text$_ZN7sc_core9sc_signalIN5sc_dt8sc_logicELNS_16sc_writer_policyE1EEC1EPKcS2_
6062ce34 T __ZN7sc_core9sc_signalIN5sc_dt8sc_logicELNS_16sc_writer_policyE1EEC1EPKcS2_
6062cf54 t .text$_ZN7sc_core9sc_signalIN5sc_dt8sc_logicELNS_16sc_writer_policyE1EEC1Ev
6062cf54 T __ZN7sc_core9sc_signalIN5sc_dt8sc_logicELNS_16sc_writer_policyE1EEC1Ev
6062d080 t .text$_ZN7sc_core9sc_signalIN5sc_dt8sc_logicELNS_16sc_writer_policyE1EEC2EPKc
6062d080 T __ZN7sc_core9sc_signalIN5sc_dt8sc_logicELNS_16sc_writer_policyE1EEC2EPKc
6062d1b0 t .text$_ZN7sc_core9sc_signalIN5sc_dt8sc_logicELNS_16sc_writer_policyE1EEC2EPKcS2_
6062d1b0 T __ZN7sc_core9sc_signalIN5sc_dt8sc_logicELNS_16sc_writer_policyE1EEC2EPKcS2_
6062d2b8 t .text$_ZN7sc_core9sc_signalIN5sc_dt8sc_logicELNS_16sc_writer_policyE1EEC2Ev
6062d2b8 T __ZN7sc_core9sc_signalIN5sc_dt8sc_logicELNS_16sc_writer_policyE1EEC2Ev
6062d3cc t .text$_ZN7sc_core9sc_signalIN5sc_dt8sc_logicELNS_16sc_writer_policyE1EED0Ev
6062d3cc T __ZN7sc_core9sc_signalIN5sc_dt8sc_logicELNS_16sc_writer_policyE1EED0Ev
6062d688 t .text$_ZN7sc_core9sc_signalIN5sc_dt8sc_logicELNS_16sc_writer_policyE1EED1Ev
6062d688 T __ZN7sc_core9sc_signalIN5sc_dt8sc_logicELNS_16sc_writer_policyE1EED1Ev
6062d944 t .text$_ZN7sc_core9sc_signalIN5sc_dt8sc_logicELNS_16sc_writer_policyE1EED2Ev
6062d944 T __ZN7sc_core9sc_signalIN5sc_dt8sc_logicELNS_16sc_writer_policyE1EED2Ev
6062dc14 t .text$_ZN7sc_core9sc_signalIN5sc_dt8sc_logicELNS_16sc_writer_policyE1EEaSERKNS_15sc_signal_in_ifIS2_EE
6062dc14 T __ZN7sc_core9sc_signalIN5sc_dt8sc_logicELNS_16sc_writer_policyE1EEaSERKNS_15sc_signal_in_ifIS2_EE
6062dc40 t .text$_ZN7sc_core9sc_signalIN5sc_dt8sc_logicELNS_16sc_writer_policyE1EEaSERKS2_
6062dc40 T __ZN7sc_core9sc_signalIN5sc_dt8sc_logicELNS_16sc_writer_policyE1EEaSERKS2_
6062dc60 t .text$_ZN7sc_core9sc_signalIN5sc_dt8sc_logicELNS_16sc_writer_policyE1EEaSERKS4_
6062dc60 T __ZN7sc_core9sc_signalIN5sc_dt8sc_logicELNS_16sc_writer_policyE1EEaSERKS4_
6062dc90 t .text$_ZN7sc_core9sc_signalIN5sc_dt8sc_logicELNS_16sc_writer_policyE3EE13register_portERNS_12sc_port_baseEPKc
6062dc90 T __ZN7sc_core9sc_signalIN5sc_dt8sc_logicELNS_16sc_writer_policyE3EE13register_portERNS_12sc_port_baseEPKc
6062dd6c t .text$_ZN7sc_core9sc_signalIN5sc_dt8sc_logicELNS_16sc_writer_policyE3EE18mti_get_channel_idEPNS_9sc_objectE
6062dd6c T __ZN7sc_core9sc_signalIN5sc_dt8sc_logicELNS_16sc_writer_policyE3EE18mti_get_channel_idEPNS_9sc_objectE
6062dd78 t .text$_ZN7sc_core9sc_signalIN5sc_dt8sc_logicELNS_16sc_writer_policyE3EE20mti_get_channel_typeEv
6062dd78 T __ZN7sc_core9sc_signalIN5sc_dt8sc_logicELNS_16sc_writer_policyE3EE20mti_get_channel_typeEv
6062dd88 t .text$_ZN7sc_core9sc_signalIN5sc_dt8sc_logicELNS_16sc_writer_policyE3EE21mti_get_channel_valueEi
6062dd88 T __ZN7sc_core9sc_signalIN5sc_dt8sc_logicELNS_16sc_writer_policyE3EE21mti_get_channel_valueEi
6062ddb0 t .text$_ZN7sc_core9sc_signalIN5sc_dt8sc_logicELNS_16sc_writer_policyE3EE21mti_set_channel_valueEPvi
6062ddb0 T __ZN7sc_core9sc_signalIN5sc_dt8sc_logicELNS_16sc_writer_policyE3EE21mti_set_channel_valueEPvi
6062ddc4 t .text$_ZN7sc_core9sc_signalIN5sc_dt8sc_logicELNS_16sc_writer_policyE3EE22control_foreign_signalEPKc
6062ddc4 T __ZN7sc_core9sc_signalIN5sc_dt8sc_logicELNS_16sc_writer_policyE3EE22control_foreign_signalEPKc
6062de2c t .text$_ZN7sc_core9sc_signalIN5sc_dt8sc_logicELNS_16sc_writer_policyE3EE22observe_foreign_signalEPKc
6062de2c T __ZN7sc_core9sc_signalIN5sc_dt8sc_logicELNS_16sc_writer_policyE3EE22observe_foreign_signalEPKc
6062de94 t .text$_ZN7sc_core9sc_signalIN5sc_dt8sc_logicELNS_16sc_writer_policyE3EE27mti_get_construction_paramsEPiS5_S5_S5_S5_
6062de94 T __ZN7sc_core9sc_signalIN5sc_dt8sc_logicELNS_16sc_writer_policyE3EE27mti_get_construction_paramsEPiS5_S5_S5_S5_
6062dec8 t .text$_ZN7sc_core9sc_signalIN5sc_dt8sc_logicELNS_16sc_writer_policyE3EE5writeERKS2_
6062dec8 T __ZN7sc_core9sc_signalIN5sc_dt8sc_logicELNS_16sc_writer_policyE3EE5writeERKS2_
6062df18 t .text$_ZN7sc_core9sc_signalIN5sc_dt8sc_logicELNS_16sc_writer_policyE3EE6updateEv
6062df18 T __ZN7sc_core9sc_signalIN5sc_dt8sc_logicELNS_16sc_writer_policyE3EE6updateEv
6062df30 t .text$_ZN7sc_core9sc_signalIN5sc_dt8sc_logicELNS_16sc_writer_policyE3EE9do_updateEv
6062df30 T __ZN7sc_core9sc_signalIN5sc_dt8sc_logicELNS_16sc_writer_policyE3EE9do_updateEv
6062e0a4 t .text$_ZN7sc_core9sc_signalIN5sc_dt8sc_logicELNS_16sc_writer_policyE3EEC1EPKc
6062e0a4 T __ZN7sc_core9sc_signalIN5sc_dt8sc_logicELNS_16sc_writer_policyE3EEC1EPKc
6062e1b0 t .text$_ZN7sc_core9sc_signalIN5sc_dt8sc_logicELNS_16sc_writer_policyE3EEC1EPKcS2_
6062e1b0 T __ZN7sc_core9sc_signalIN5sc_dt8sc_logicELNS_16sc_writer_policyE3EEC1EPKcS2_
6062e2bc t .text$_ZN7sc_core9sc_signalIN5sc_dt8sc_logicELNS_16sc_writer_policyE3EEC1Ev
6062e2bc T __ZN7sc_core9sc_signalIN5sc_dt8sc_logicELNS_16sc_writer_policyE3EEC1Ev
6062e3d8 t .text$_ZN7sc_core9sc_signalIN5sc_dt8sc_logicELNS_16sc_writer_policyE3EEC2EPKc
6062e3d8 T __ZN7sc_core9sc_signalIN5sc_dt8sc_logicELNS_16sc_writer_policyE3EEC2EPKc
6062e4cc t .text$_ZN7sc_core9sc_signalIN5sc_dt8sc_logicELNS_16sc_writer_policyE3EEC2EPKcS2_
6062e4cc T __ZN7sc_core9sc_signalIN5sc_dt8sc_logicELNS_16sc_writer_policyE3EEC2EPKcS2_
6062e5c4 t .text$_ZN7sc_core9sc_signalIN5sc_dt8sc_logicELNS_16sc_writer_policyE3EEC2Ev
6062e5c4 T __ZN7sc_core9sc_signalIN5sc_dt8sc_logicELNS_16sc_writer_policyE3EEC2Ev
6062e6c8 t .text$_ZN7sc_core9sc_signalIN5sc_dt8sc_logicELNS_16sc_writer_policyE3EED0Ev
6062e6c8 T __ZN7sc_core9sc_signalIN5sc_dt8sc_logicELNS_16sc_writer_policyE3EED0Ev
6062e830 t .text$_ZN7sc_core9sc_signalIN5sc_dt8sc_logicELNS_16sc_writer_policyE3EED1Ev
6062e830 T __ZN7sc_core9sc_signalIN5sc_dt8sc_logicELNS_16sc_writer_policyE3EED1Ev
6062e990 t .text$_ZN7sc_core9sc_signalIN5sc_dt8sc_logicELNS_16sc_writer_policyE3EED2Ev
6062e990 T __ZN7sc_core9sc_signalIN5sc_dt8sc_logicELNS_16sc_writer_policyE3EED2Ev
6062eac8 t .text$_ZN7sc_core9sc_signalIN5sc_dt8sc_logicELNS_16sc_writer_policyE3EEaSERKNS_15sc_signal_in_ifIS2_EE
6062eac8 T __ZN7sc_core9sc_signalIN5sc_dt8sc_logicELNS_16sc_writer_policyE3EEaSERKNS_15sc_signal_in_ifIS2_EE
6062eaf4 t .text$_ZN7sc_core9sc_signalIN5sc_dt8sc_logicELNS_16sc_writer_policyE3EEaSERKS2_
6062eaf4 T __ZN7sc_core9sc_signalIN5sc_dt8sc_logicELNS_16sc_writer_policyE3EEaSERKS2_
6062eb14 t .text$_ZN7sc_core9sc_signalIN5sc_dt8sc_logicELNS_16sc_writer_policyE3EEaSERKS4_
6062eb14 T __ZN7sc_core9sc_signalIN5sc_dt8sc_logicELNS_16sc_writer_policyE3EEaSERKS4_
6062eb44 t .text$_ZN7sc_core9sc_signalIbLNS_16sc_writer_policyE0EE13register_portERNS_12sc_port_baseEPKc
6062eb44 T __ZN7sc_core9sc_signalIbLNS_16sc_writer_policyE0EE13register_portERNS_12sc_port_baseEPKc
6062ec3c t .text$_ZN7sc_core9sc_signalIbLNS_16sc_writer_policyE0EE16mti_set_is_clockEb
6062ec3c T __ZN7sc_core9sc_signalIbLNS_16sc_writer_policyE0EE16mti_set_is_clockEb
6062ec50 t .text$_ZN7sc_core9sc_signalIbLNS_16sc_writer_policyE0EE18mti_get_channel_idEPNS_9sc_objectE
6062ec50 T __ZN7sc_core9sc_signalIbLNS_16sc_writer_policyE0EE18mti_get_channel_idEPNS_9sc_objectE
6062ec64 t .text$_ZN7sc_core9sc_signalIbLNS_16sc_writer_policyE0EE20mti_get_channel_typeEv
6062ec64 T __ZN7sc_core9sc_signalIbLNS_16sc_writer_policyE0EE20mti_get_channel_typeEv
6062ec7c t .text$_ZN7sc_core9sc_signalIbLNS_16sc_writer_policyE0EE21mti_get_channel_valueEi
6062ec7c T __ZN7sc_core9sc_signalIbLNS_16sc_writer_policyE0EE21mti_get_channel_valueEi
6062ecb0 t .text$_ZN7sc_core9sc_signalIbLNS_16sc_writer_policyE0EE21mti_set_channel_valueEPvi
6062ecb0 T __ZN7sc_core9sc_signalIbLNS_16sc_writer_policyE0EE21mti_set_channel_valueEPvi
6062ecc0 t .text$_ZN7sc_core9sc_signalIbLNS_16sc_writer_policyE0EE22control_foreign_signalEPKc
6062ecc0 T __ZN7sc_core9sc_signalIbLNS_16sc_writer_policyE0EE22control_foreign_signalEPKc
6062ed28 t .text$_ZN7sc_core9sc_signalIbLNS_16sc_writer_policyE0EE22observe_foreign_signalEPKc
6062ed28 T __ZN7sc_core9sc_signalIbLNS_16sc_writer_policyE0EE22observe_foreign_signalEPKc
6062ed90 t .text$_ZN7sc_core9sc_signalIbLNS_16sc_writer_policyE0EE27mti_get_construction_paramsEPiS3_S3_S3_S3_
6062ed90 T __ZN7sc_core9sc_signalIbLNS_16sc_writer_policyE0EE27mti_get_construction_paramsEPiS3_S3_S3_S3_
6062edc4 t .text$_ZN7sc_core9sc_signalIbLNS_16sc_writer_policyE0EE5writeERKb
6062edc4 T __ZN7sc_core9sc_signalIbLNS_16sc_writer_policyE0EE5writeERKb
6062ef30 t .text$_ZN7sc_core9sc_signalIbLNS_16sc_writer_policyE0EE6updateEv
6062ef30 T __ZN7sc_core9sc_signalIbLNS_16sc_writer_policyE0EE6updateEv
6062ef48 t .text$_ZN7sc_core9sc_signalIbLNS_16sc_writer_policyE0EE9do_updateEv
6062ef48 T __ZN7sc_core9sc_signalIbLNS_16sc_writer_policyE0EE9do_updateEv
6062f0b8 t .text$_ZN7sc_core9sc_signalIbLNS_16sc_writer_policyE0EEC1EPKc
6062f0b8 T __ZN7sc_core9sc_signalIbLNS_16sc_writer_policyE0EEC1EPKc
6062f214 t .text$_ZN7sc_core9sc_signalIbLNS_16sc_writer_policyE0EEC1EPKcb
6062f214 T __ZN7sc_core9sc_signalIbLNS_16sc_writer_policyE0EEC1EPKcb
6062f318 t .text$_ZN7sc_core9sc_signalIbLNS_16sc_writer_policyE0EEC1Ev
6062f318 T __ZN7sc_core9sc_signalIbLNS_16sc_writer_policyE0EEC1Ev
6062f424 t .text$_ZN7sc_core9sc_signalIbLNS_16sc_writer_policyE0EEC2EPKc
6062f424 T __ZN7sc_core9sc_signalIbLNS_16sc_writer_policyE0EEC2EPKc
6062f50c t .text$_ZN7sc_core9sc_signalIbLNS_16sc_writer_policyE0EEC2EPKcb
6062f50c T __ZN7sc_core9sc_signalIbLNS_16sc_writer_policyE0EEC2EPKcb
6062f5f8 t .text$_ZN7sc_core9sc_signalIbLNS_16sc_writer_policyE0EEC2Ev
6062f5f8 T __ZN7sc_core9sc_signalIbLNS_16sc_writer_policyE0EEC2Ev
6062f6f0 t .text$_ZN7sc_core9sc_signalIbLNS_16sc_writer_policyE0EED0Ev
6062f6f0 T __ZN7sc_core9sc_signalIbLNS_16sc_writer_policyE0EED0Ev
6062f7ec t .text$_ZN7sc_core9sc_signalIbLNS_16sc_writer_policyE0EED1Ev
6062f7ec T __ZN7sc_core9sc_signalIbLNS_16sc_writer_policyE0EED1Ev
6062f914 t .text$_ZN7sc_core9sc_signalIbLNS_16sc_writer_policyE0EED2Ev
6062f914 T __ZN7sc_core9sc_signalIbLNS_16sc_writer_policyE0EED2Ev
6062fa48 t .text$_ZN7sc_core9sc_signalIbLNS_16sc_writer_policyE0EEaSERKNS_15sc_signal_in_ifIbEE
6062fa48 T __ZN7sc_core9sc_signalIbLNS_16sc_writer_policyE0EEaSERKNS_15sc_signal_in_ifIbEE
6062fa74 t .text$_ZN7sc_core9sc_signalIbLNS_16sc_writer_policyE0EEaSERKS2_
6062fa74 T __ZN7sc_core9sc_signalIbLNS_16sc_writer_policyE0EEaSERKS2_
6062faa4 t .text$_ZN7sc_core9sc_signalIbLNS_16sc_writer_policyE0EEaSERKb
6062faa4 T __ZN7sc_core9sc_signalIbLNS_16sc_writer_policyE0EEaSERKb
6062fac4 t .text$_ZN7sc_core9sc_signalIbLNS_16sc_writer_policyE1EE13register_portERNS_12sc_port_baseEPKc
6062fac4 T __ZN7sc_core9sc_signalIbLNS_16sc_writer_policyE1EE13register_portERNS_12sc_port_baseEPKc
6062fba0 t .text$_ZN7sc_core9sc_signalIbLNS_16sc_writer_policyE1EE16mti_set_is_clockEb
6062fba0 T __ZN7sc_core9sc_signalIbLNS_16sc_writer_policyE1EE16mti_set_is_clockEb
6062fbb4 t .text$_ZN7sc_core9sc_signalIbLNS_16sc_writer_policyE1EE18mti_get_channel_idEPNS_9sc_objectE
6062fbb4 T __ZN7sc_core9sc_signalIbLNS_16sc_writer_policyE1EE18mti_get_channel_idEPNS_9sc_objectE
6062fbc0 t .text$_ZN7sc_core9sc_signalIbLNS_16sc_writer_policyE1EE20mti_get_channel_typeEv
6062fbc0 T __ZN7sc_core9sc_signalIbLNS_16sc_writer_policyE1EE20mti_get_channel_typeEv
6062fbd0 t .text$_ZN7sc_core9sc_signalIbLNS_16sc_writer_policyE1EE21mti_get_channel_valueEi
6062fbd0 T __ZN7sc_core9sc_signalIbLNS_16sc_writer_policyE1EE21mti_get_channel_valueEi
6062fc04 t .text$_ZN7sc_core9sc_signalIbLNS_16sc_writer_policyE1EE21mti_set_channel_valueEPvi
6062fc04 T __ZN7sc_core9sc_signalIbLNS_16sc_writer_policyE1EE21mti_set_channel_valueEPvi
6062fc14 t .text$_ZN7sc_core9sc_signalIbLNS_16sc_writer_policyE1EE22control_foreign_signalEPKc
6062fc14 T __ZN7sc_core9sc_signalIbLNS_16sc_writer_policyE1EE22control_foreign_signalEPKc
6062fc7c t .text$_ZN7sc_core9sc_signalIbLNS_16sc_writer_policyE1EE22observe_foreign_signalEPKc
6062fc7c T __ZN7sc_core9sc_signalIbLNS_16sc_writer_policyE1EE22observe_foreign_signalEPKc
6062fce4 t .text$_ZN7sc_core9sc_signalIbLNS_16sc_writer_policyE1EE27mti_get_construction_paramsEPiS3_S3_S3_S3_
6062fce4 T __ZN7sc_core9sc_signalIbLNS_16sc_writer_policyE1EE27mti_get_construction_paramsEPiS3_S3_S3_S3_
6062fd18 t .text$_ZN7sc_core9sc_signalIbLNS_16sc_writer_policyE1EE5writeERKb
6062fd18 T __ZN7sc_core9sc_signalIbLNS_16sc_writer_policyE1EE5writeERKb
6062fe88 t .text$_ZN7sc_core9sc_signalIbLNS_16sc_writer_policyE1EE6updateEv
6062fe88 T __ZN7sc_core9sc_signalIbLNS_16sc_writer_policyE1EE6updateEv
6062fea8 t .text$_ZN7sc_core9sc_signalIbLNS_16sc_writer_policyE1EE9do_updateEv
6062fea8 T __ZN7sc_core9sc_signalIbLNS_16sc_writer_policyE1EE9do_updateEv
60630010 t .text$_ZN7sc_core9sc_signalIbLNS_16sc_writer_policyE1EEC1EPKc
60630010 T __ZN7sc_core9sc_signalIbLNS_16sc_writer_policyE1EEC1EPKc
60630100 t .text$_ZN7sc_core9sc_signalIbLNS_16sc_writer_policyE1EEC1EPKcb
60630100 T __ZN7sc_core9sc_signalIbLNS_16sc_writer_policyE1EEC1EPKcb
606301f8 t .text$_ZN7sc_core9sc_signalIbLNS_16sc_writer_policyE1EEC1Ev
606301f8 T __ZN7sc_core9sc_signalIbLNS_16sc_writer_policyE1EEC1Ev
606302f8 t .text$_ZN7sc_core9sc_signalIbLNS_16sc_writer_policyE1EEC2EPKc
606302f8 T __ZN7sc_core9sc_signalIbLNS_16sc_writer_policyE1EEC2EPKc
606303d0 t .text$_ZN7sc_core9sc_signalIbLNS_16sc_writer_policyE1EEC2EPKcb
606303d0 T __ZN7sc_core9sc_signalIbLNS_16sc_writer_policyE1EEC2EPKcb
606304b0 t .text$_ZN7sc_core9sc_signalIbLNS_16sc_writer_policyE1EEC2Ev
606304b0 T __ZN7sc_core9sc_signalIbLNS_16sc_writer_policyE1EEC2Ev
60630598 t .text$_ZN7sc_core9sc_signalIbLNS_16sc_writer_policyE1EED0Ev
60630598 T __ZN7sc_core9sc_signalIbLNS_16sc_writer_policyE1EED0Ev
606306f4 t .text$_ZN7sc_core9sc_signalIbLNS_16sc_writer_policyE1EED1Ev
606306f4 T __ZN7sc_core9sc_signalIbLNS_16sc_writer_policyE1EED1Ev
606307e4 t .text$_ZN7sc_core9sc_signalIbLNS_16sc_writer_policyE1EED2Ev
606307e4 T __ZN7sc_core9sc_signalIbLNS_16sc_writer_policyE1EED2Ev
606308c8 t .text$_ZN7sc_core9sc_signalIbLNS_16sc_writer_policyE1EEaSERKNS_15sc_signal_in_ifIbEE
606308c8 T __ZN7sc_core9sc_signalIbLNS_16sc_writer_policyE1EEaSERKNS_15sc_signal_in_ifIbEE
606308f4 t .text$_ZN7sc_core9sc_signalIbLNS_16sc_writer_policyE1EEaSERKS2_
606308f4 T __ZN7sc_core9sc_signalIbLNS_16sc_writer_policyE1EEaSERKS2_
60630924 t .text$_ZN7sc_core9sc_signalIbLNS_16sc_writer_policyE1EEaSERKb
60630924 T __ZN7sc_core9sc_signalIbLNS_16sc_writer_policyE1EEaSERKb
60630944 t .text$_ZN7sc_core9sc_signalIbLNS_16sc_writer_policyE3EE13register_portERNS_12sc_port_baseEPKc
60630944 T __ZN7sc_core9sc_signalIbLNS_16sc_writer_policyE3EE13register_portERNS_12sc_port_baseEPKc
60630a20 t .text$_ZN7sc_core9sc_signalIbLNS_16sc_writer_policyE3EE16mti_set_is_clockEb
60630a20 T __ZN7sc_core9sc_signalIbLNS_16sc_writer_policyE3EE16mti_set_is_clockEb
60630a34 t .text$_ZN7sc_core9sc_signalIbLNS_16sc_writer_policyE3EE18mti_get_channel_idEPNS_9sc_objectE
60630a34 T __ZN7sc_core9sc_signalIbLNS_16sc_writer_policyE3EE18mti_get_channel_idEPNS_9sc_objectE
60630a40 t .text$_ZN7sc_core9sc_signalIbLNS_16sc_writer_policyE3EE20mti_get_channel_typeEv
60630a40 T __ZN7sc_core9sc_signalIbLNS_16sc_writer_policyE3EE20mti_get_channel_typeEv
60630a50 t .text$_ZN7sc_core9sc_signalIbLNS_16sc_writer_policyE3EE21mti_get_channel_valueEi
60630a50 T __ZN7sc_core9sc_signalIbLNS_16sc_writer_policyE3EE21mti_get_channel_valueEi
60630a84 t .text$_ZN7sc_core9sc_signalIbLNS_16sc_writer_policyE3EE21mti_set_channel_valueEPvi
60630a84 T __ZN7sc_core9sc_signalIbLNS_16sc_writer_policyE3EE21mti_set_channel_valueEPvi
60630a94 t .text$_ZN7sc_core9sc_signalIbLNS_16sc_writer_policyE3EE22control_foreign_signalEPKc
60630a94 T __ZN7sc_core9sc_signalIbLNS_16sc_writer_policyE3EE22control_foreign_signalEPKc
60630afc t .text$_ZN7sc_core9sc_signalIbLNS_16sc_writer_policyE3EE22observe_foreign_signalEPKc
60630afc T __ZN7sc_core9sc_signalIbLNS_16sc_writer_policyE3EE22observe_foreign_signalEPKc
60630b64 t .text$_ZN7sc_core9sc_signalIbLNS_16sc_writer_policyE3EE27mti_get_construction_paramsEPiS3_S3_S3_S3_
60630b64 T __ZN7sc_core9sc_signalIbLNS_16sc_writer_policyE3EE27mti_get_construction_paramsEPiS3_S3_S3_S3_
60630b98 t .text$_ZN7sc_core9sc_signalIbLNS_16sc_writer_policyE3EE5writeERKb
60630b98 T __ZN7sc_core9sc_signalIbLNS_16sc_writer_policyE3EE5writeERKb
60630bec t .text$_ZN7sc_core9sc_signalIbLNS_16sc_writer_policyE3EE6updateEv
60630bec T __ZN7sc_core9sc_signalIbLNS_16sc_writer_policyE3EE6updateEv
60630c04 t .text$_ZN7sc_core9sc_signalIbLNS_16sc_writer_policyE3EE9do_updateEv
60630c04 T __ZN7sc_core9sc_signalIbLNS_16sc_writer_policyE3EE9do_updateEv
60630d68 t .text$_ZN7sc_core9sc_signalIbLNS_16sc_writer_policyE3EEC1EPKc
60630d68 T __ZN7sc_core9sc_signalIbLNS_16sc_writer_policyE3EEC1EPKc
60630e48 t .text$_ZN7sc_core9sc_signalIbLNS_16sc_writer_policyE3EEC1EPKcb
60630e48 T __ZN7sc_core9sc_signalIbLNS_16sc_writer_policyE3EEC1EPKcb
60630f2c t .text$_ZN7sc_core9sc_signalIbLNS_16sc_writer_policyE3EEC1Ev
60630f2c T __ZN7sc_core9sc_signalIbLNS_16sc_writer_policyE3EEC1Ev
6063101c t .text$_ZN7sc_core9sc_signalIbLNS_16sc_writer_policyE3EEC2EPKc
6063101c T __ZN7sc_core9sc_signalIbLNS_16sc_writer_policyE3EEC2EPKc
606310e4 t .text$_ZN7sc_core9sc_signalIbLNS_16sc_writer_policyE3EEC2EPKcb
606310e4 T __ZN7sc_core9sc_signalIbLNS_16sc_writer_policyE3EEC2EPKcb
606311b4 t .text$_ZN7sc_core9sc_signalIbLNS_16sc_writer_policyE3EEC2Ev
606311b4 T __ZN7sc_core9sc_signalIbLNS_16sc_writer_policyE3EEC2Ev
6063128c t .text$_ZN7sc_core9sc_signalIbLNS_16sc_writer_policyE3EED0Ev
6063128c T __ZN7sc_core9sc_signalIbLNS_16sc_writer_policyE3EED0Ev
606313e8 t .text$_ZN7sc_core9sc_signalIbLNS_16sc_writer_policyE3EED1Ev
606313e8 T __ZN7sc_core9sc_signalIbLNS_16sc_writer_policyE3EED1Ev
6063153c t .text$_ZN7sc_core9sc_signalIbLNS_16sc_writer_policyE3EED2Ev
6063153c T __ZN7sc_core9sc_signalIbLNS_16sc_writer_policyE3EED2Ev
60631668 t .text$_ZN7sc_core9sc_signalIbLNS_16sc_writer_policyE3EEaSERKNS_15sc_signal_in_ifIbEE
60631668 T __ZN7sc_core9sc_signalIbLNS_16sc_writer_policyE3EEaSERKNS_15sc_signal_in_ifIbEE
60631694 t .text$_ZN7sc_core9sc_signalIbLNS_16sc_writer_policyE3EEaSERKS2_
60631694 T __ZN7sc_core9sc_signalIbLNS_16sc_writer_policyE3EEaSERKS2_
606316c4 t .text$_ZN7sc_core9sc_signalIbLNS_16sc_writer_policyE3EEaSERKb
606316c4 T __ZN7sc_core9sc_signalIbLNS_16sc_writer_policyE3EEaSERKb
606316e4 t .text$_ZN8ptrarrayIPKN7sc_core8sc_eventEE15resize_physicalEi
606316e4 T __ZN8ptrarrayIPKN7sc_core8sc_eventEE15resize_physicalEi
60631778 t .text$_ZN8ptrarrayIPKN7sc_core8sc_eventEE7reserveEi
60631778 T __ZN8ptrarrayIPKN7sc_core8sc_eventEE7reserveEi
606317ac t .text$_ZN8ptrarrayIPKN7sc_core8sc_eventEE9push_backES3_
606317ac T __ZN8ptrarrayIPKN7sc_core8sc_eventEE9push_backES3_
606317f0 t .text$_ZN8ptrarrayIPKN7sc_core8sc_eventEEC1Ev
606317f0 T __ZN8ptrarrayIPKN7sc_core8sc_eventEEC1Ev
6063180c t .text$_ZN8ptrarrayIPKN7sc_core8sc_eventEED1Ev
6063180c T __ZN8ptrarrayIPKN7sc_core8sc_eventEED1Ev
60631844 t .text$_ZN8ptrarrayIPKN7sc_core8sc_eventEEixEi
60631844 T __ZN8ptrarrayIPKN7sc_core8sc_eventEEixEi
60631860 t .text$_ZN8ptrarrayIPN7sc_core12sc_interfaceEEC1Ev
60631860 T __ZN8ptrarrayIPN7sc_core12sc_interfaceEEC1Ev
6063187c t .text$_ZN8ptrarrayIPN7sc_core12sc_interfaceEED1Ev
6063187c T __ZN8ptrarrayIPN7sc_core12sc_interfaceEED1Ev
606318b4 t .text$_ZN8ptrarrayIPN7sc_core12sc_port_baseEE10removeFastES2_
606318b4 T __ZN8ptrarrayIPN7sc_core12sc_port_baseEE10removeFastES2_
60631918 t .text$_ZN8ptrarrayIPN7sc_core12sc_port_baseEE15resize_physicalEi
60631918 T __ZN8ptrarrayIPN7sc_core12sc_port_baseEE15resize_physicalEi
606319ac t .text$_ZN8ptrarrayIPN7sc_core12sc_port_baseEE9push_backES2_
606319ac T __ZN8ptrarrayIPN7sc_core12sc_port_baseEE9push_backES2_
606319f0 t .text$_ZN8ptrarrayIPN7sc_core12sc_port_baseEEC1Ev
606319f0 T __ZN8ptrarrayIPN7sc_core12sc_port_baseEEC1Ev
60631a0c t .text$_ZN8ptrarrayIPN7sc_core12sc_port_baseEED1Ev
60631a0c T __ZN8ptrarrayIPN7sc_core12sc_port_baseEED1Ev
60631a44 t .text$_ZN8ptrarrayIPN7sc_core12sc_port_baseEEixEi
60631a44 T __ZN8ptrarrayIPN7sc_core12sc_port_baseEEixEi
60631a60 t .text$_ZN8ptrarrayIPN7sc_core12sc_process_bEE15resize_physicalEi
60631a60 T __ZN8ptrarrayIPN7sc_core12sc_process_bEE15resize_physicalEi
60631af4 t .text$_ZN8ptrarrayIPN7sc_core12sc_process_bEE9push_backES2_
60631af4 T __ZN8ptrarrayIPN7sc_core12sc_process_bEE9push_backES2_
60631b38 t .text$_ZN8ptrarrayIPN7sc_core12sc_process_bEEC1Ev
60631b38 T __ZN8ptrarrayIPN7sc_core12sc_process_bEEC1Ev
60631b5c t .text$_ZN8ptrarrayIPN7sc_core12sc_process_bEED1Ev
60631b5c T __ZN8ptrarrayIPN7sc_core12sc_process_bEED1Ev
60631b9c t .text$_ZN8ptrarrayIPN7sc_core12sc_process_bEEixEi
60631b9c T __ZN8ptrarrayIPN7sc_core12sc_process_bEEixEi
60631bb8 t .text$_ZN8ptrarrayIPN7sc_core13sc_trace_fileEE15resize_physicalEi
60631bb8 T __ZN8ptrarrayIPN7sc_core13sc_trace_fileEE15resize_physicalEi
60631c4c t .text$_ZN8ptrarrayIPN7sc_core13sc_trace_fileEE6removeES2_
60631c4c T __ZN8ptrarrayIPN7sc_core13sc_trace_fileEE6removeES2_
60631ccc t .text$_ZN8ptrarrayIPN7sc_core13sc_trace_fileEE9push_backES2_
60631ccc T __ZN8ptrarrayIPN7sc_core13sc_trace_fileEE9push_backES2_
60631d10 t .text$_ZN8ptrarrayIPN7sc_core13sc_trace_fileEEC1Ev
60631d10 T __ZN8ptrarrayIPN7sc_core13sc_trace_fileEEC1Ev
60631d2c t .text$_ZN8ptrarrayIPN7sc_core13sc_trace_fileEED1Ev
60631d2c T __ZN8ptrarrayIPN7sc_core13sc_trace_fileEED1Ev
60631d64 t .text$_ZN8ptrarrayIPN7sc_core13sc_trace_fileEEixEi
60631d64 T __ZN8ptrarrayIPN7sc_core13sc_trace_fileEEixEi
60631d80 t .text$_ZN8ptrarrayIPN7sc_core14sc_export_baseEE10removeFastES2_
60631d80 T __ZN8ptrarrayIPN7sc_core14sc_export_baseEE10removeFastES2_
60631de4 t .text$_ZN8ptrarrayIPN7sc_core14sc_export_baseEE15resize_physicalEi
60631de4 T __ZN8ptrarrayIPN7sc_core14sc_export_baseEE15resize_physicalEi
60631e78 t .text$_ZN8ptrarrayIPN7sc_core14sc_export_baseEE9push_backES2_
60631e78 T __ZN8ptrarrayIPN7sc_core14sc_export_baseEE9push_backES2_
60631ebc t .text$_ZN8ptrarrayIPN7sc_core14sc_export_baseEEC1Ev
60631ebc T __ZN8ptrarrayIPN7sc_core14sc_export_baseEEC1Ev
60631ed8 t .text$_ZN8ptrarrayIPN7sc_core14sc_export_baseEED1Ev
60631ed8 T __ZN8ptrarrayIPN7sc_core14sc_export_baseEED1Ev
60631f10 t .text$_ZN8ptrarrayIPN7sc_core14sc_export_baseEEixEi
60631f10 T __ZN8ptrarrayIPN7sc_core14sc_export_baseEEixEi
60631f2c t .text$_ZN8ptrarrayIPN7sc_core15sc_event_finderEEC1Ev
60631f2c T __ZN8ptrarrayIPN7sc_core15sc_event_finderEEC1Ev
60631f48 t .text$_ZN8ptrarrayIPN7sc_core15sc_event_finderEED1Ev
60631f48 T __ZN8ptrarrayIPN7sc_core15sc_event_finderEED1Ev
60631f80 t .text$_ZN8ptrarrayIPN7sc_core15sc_prim_channelEE10removeFastES2_
60631f80 T __ZN8ptrarrayIPN7sc_core15sc_prim_channelEE10removeFastES2_
60631fe4 t .text$_ZN8ptrarrayIPN7sc_core15sc_prim_channelEE15resize_physicalEi
60631fe4 T __ZN8ptrarrayIPN7sc_core15sc_prim_channelEE15resize_physicalEi
60632078 t .text$_ZN8ptrarrayIPN7sc_core15sc_prim_channelEE9push_backES2_
60632078 T __ZN8ptrarrayIPN7sc_core15sc_prim_channelEE9push_backES2_
606320bc t .text$_ZN8ptrarrayIPN7sc_core15sc_prim_channelEEC1Ev
606320bc T __ZN8ptrarrayIPN7sc_core15sc_prim_channelEEC1Ev
606320d8 t .text$_ZN8ptrarrayIPN7sc_core15sc_prim_channelEED1Ev
606320d8 T __ZN8ptrarrayIPN7sc_core15sc_prim_channelEED1Ev
60632110 t .text$_ZN8ptrarrayIPN7sc_core15sc_prim_channelEEixEi
60632110 T __ZN8ptrarrayIPN7sc_core15sc_prim_channelEEixEi
6063212c t .text$_ZN8ptrarrayIPN7sc_core15sc_signal_in_ifIN5sc_dt7sc_uintILi2EEEEEE15resize_physicalEi
6063212c T __ZN8ptrarrayIPN7sc_core15sc_signal_in_ifIN5sc_dt7sc_uintILi2EEEEEE15resize_physicalEi
606321f4 t .text$_ZN8ptrarrayIPN7sc_core15sc_signal_in_ifIN5sc_dt7sc_uintILi2EEEEEE9push_backES6_
606321f4 T __ZN8ptrarrayIPN7sc_core15sc_signal_in_ifIN5sc_dt7sc_uintILi2EEEEEE9push_backES6_
60632268 t .text$_ZN8ptrarrayIPN7sc_core15sc_signal_in_ifIN5sc_dt7sc_uintILi2EEEEEEC1Ev
60632268 T __ZN8ptrarrayIPN7sc_core15sc_signal_in_ifIN5sc_dt7sc_uintILi2EEEEEEC1Ev
6063228c t .text$_ZN8ptrarrayIPN7sc_core15sc_signal_in_ifIN5sc_dt7sc_uintILi2EEEEEED1Ev
6063228c T __ZN8ptrarrayIPN7sc_core15sc_signal_in_ifIN5sc_dt7sc_uintILi2EEEEEED1Ev
606322cc t .text$_ZN8ptrarrayIPN7sc_core15sc_signal_in_ifIN5sc_dt7sc_uintILi2EEEEEEixEi
606322cc T __ZN8ptrarrayIPN7sc_core15sc_signal_in_ifIN5sc_dt7sc_uintILi2EEEEEEixEi
60632300 t .text$_ZN8ptrarrayIPN7sc_core15sc_signal_in_ifIN5sc_dt7sc_uintILi32EEEEEE15resize_physicalEi
60632300 T __ZN8ptrarrayIPN7sc_core15sc_signal_in_ifIN5sc_dt7sc_uintILi32EEEEEE15resize_physicalEi
606323c8 t .text$_ZN8ptrarrayIPN7sc_core15sc_signal_in_ifIN5sc_dt7sc_uintILi32EEEEEE9push_backES6_
606323c8 T __ZN8ptrarrayIPN7sc_core15sc_signal_in_ifIN5sc_dt7sc_uintILi32EEEEEE9push_backES6_
6063243c t .text$_ZN8ptrarrayIPN7sc_core15sc_signal_in_ifIN5sc_dt7sc_uintILi32EEEEEEC1Ev
6063243c T __ZN8ptrarrayIPN7sc_core15sc_signal_in_ifIN5sc_dt7sc_uintILi32EEEEEEC1Ev
60632460 t .text$_ZN8ptrarrayIPN7sc_core15sc_signal_in_ifIN5sc_dt7sc_uintILi32EEEEEED1Ev
60632460 T __ZN8ptrarrayIPN7sc_core15sc_signal_in_ifIN5sc_dt7sc_uintILi32EEEEEED1Ev
606324a0 t .text$_ZN8ptrarrayIPN7sc_core15sc_signal_in_ifIN5sc_dt7sc_uintILi32EEEEEEixEi
606324a0 T __ZN8ptrarrayIPN7sc_core15sc_signal_in_ifIN5sc_dt7sc_uintILi32EEEEEEixEi
606324d4 t .text$_ZN8ptrarrayIPN7sc_core15sc_signal_in_ifIN5sc_dt8sc_logicEEEE15resize_physicalEi
606324d4 T __ZN8ptrarrayIPN7sc_core15sc_signal_in_ifIN5sc_dt8sc_logicEEEE15resize_physicalEi
6063259c t .text$_ZN8ptrarrayIPN7sc_core15sc_signal_in_ifIN5sc_dt8sc_logicEEEE9push_backES5_
6063259c T __ZN8ptrarrayIPN7sc_core15sc_signal_in_ifIN5sc_dt8sc_logicEEEE9push_backES5_
60632610 t .text$_ZN8ptrarrayIPN7sc_core15sc_signal_in_ifIN5sc_dt8sc_logicEEEEC1Ev
60632610 T __ZN8ptrarrayIPN7sc_core15sc_signal_in_ifIN5sc_dt8sc_logicEEEEC1Ev
60632634 t .text$_ZN8ptrarrayIPN7sc_core15sc_signal_in_ifIN5sc_dt8sc_logicEEEED1Ev
60632634 T __ZN8ptrarrayIPN7sc_core15sc_signal_in_ifIN5sc_dt8sc_logicEEEED1Ev
60632674 t .text$_ZN8ptrarrayIPN7sc_core15sc_signal_in_ifIN5sc_dt8sc_logicEEEEixEi
60632674 T __ZN8ptrarrayIPN7sc_core15sc_signal_in_ifIN5sc_dt8sc_logicEEEEixEi
606326a8 t .text$_ZN8ptrarrayIPN7sc_core15sc_signal_in_ifIbEEE15resize_physicalEi
606326a8 T __ZN8ptrarrayIPN7sc_core15sc_signal_in_ifIbEEE15resize_physicalEi
60632770 t .text$_ZN8ptrarrayIPN7sc_core15sc_signal_in_ifIbEEE9push_backES3_
60632770 T __ZN8ptrarrayIPN7sc_core15sc_signal_in_ifIbEEE9push_backES3_
606327e4 t .text$_ZN8ptrarrayIPN7sc_core15sc_signal_in_ifIbEEEC1Ev
606327e4 T __ZN8ptrarrayIPN7sc_core15sc_signal_in_ifIbEEEC1Ev
60632808 t .text$_ZN8ptrarrayIPN7sc_core15sc_signal_in_ifIbEEED1Ev
60632808 T __ZN8ptrarrayIPN7sc_core15sc_signal_in_ifIbEEED1Ev
60632848 t .text$_ZN8ptrarrayIPN7sc_core15sc_signal_in_ifIbEEEixEi
60632848 T __ZN8ptrarrayIPN7sc_core15sc_signal_in_ifIbEEEixEi
6063287c t .text$_ZN8ptrarrayIPN7sc_core15sc_trace_paramsEE15resize_physicalEi
6063287c T __ZN8ptrarrayIPN7sc_core15sc_trace_paramsEE15resize_physicalEi
60632910 t .text$_ZN8ptrarrayIPN7sc_core15sc_trace_paramsEE9push_backES2_
60632910 T __ZN8ptrarrayIPN7sc_core15sc_trace_paramsEE9push_backES2_
60632954 t .text$_ZN8ptrarrayIPN7sc_core15sc_trace_paramsEEC1Ev
60632954 T __ZN8ptrarrayIPN7sc_core15sc_trace_paramsEEC1Ev
60632970 t .text$_ZN8ptrarrayIPN7sc_core15sc_trace_paramsEED1Ev
60632970 T __ZN8ptrarrayIPN7sc_core15sc_trace_paramsEED1Ev
606329b0 t .text$_ZN8ptrarrayIPN7sc_core15sc_trace_paramsEEixEi
606329b0 T __ZN8ptrarrayIPN7sc_core15sc_trace_paramsEEixEi
606329e4 t .text$_ZN8ptrarrayIPN7sc_core17sc_method_processEE10removeFastES2_
606329e4 T __ZN8ptrarrayIPN7sc_core17sc_method_processEE10removeFastES2_
60632a48 t .text$_ZN8ptrarrayIPN7sc_core17sc_method_processEE15resize_physicalEi
60632a48 T __ZN8ptrarrayIPN7sc_core17sc_method_processEE15resize_physicalEi
60632adc t .text$_ZN8ptrarrayIPN7sc_core17sc_method_processEE9push_backES2_
60632adc T __ZN8ptrarrayIPN7sc_core17sc_method_processEE9push_backES2_
60632b1c t .text$_ZN8ptrarrayIPN7sc_core17sc_method_processEEC1Ev
60632b1c T __ZN8ptrarrayIPN7sc_core17sc_method_processEEC1Ev
60632b38 t .text$_ZN8ptrarrayIPN7sc_core17sc_method_processEED1Ev
60632b38 T __ZN8ptrarrayIPN7sc_core17sc_method_processEED1Ev
60632b70 t .text$_ZN8ptrarrayIPN7sc_core17sc_thread_processEE10removeFastES2_
60632b70 T __ZN8ptrarrayIPN7sc_core17sc_thread_processEE10removeFastES2_
60632bd4 t .text$_ZN8ptrarrayIPN7sc_core17sc_thread_processEE15resize_physicalEi
60632bd4 T __ZN8ptrarrayIPN7sc_core17sc_thread_processEE15resize_physicalEi
60632c68 t .text$_ZN8ptrarrayIPN7sc_core17sc_thread_processEE9push_backES2_
60632c68 T __ZN8ptrarrayIPN7sc_core17sc_thread_processEE9push_backES2_
60632ca8 t .text$_ZN8ptrarrayIPN7sc_core17sc_thread_processEEC1Ev
60632ca8 T __ZN8ptrarrayIPN7sc_core17sc_thread_processEEC1Ev
60632cc4 t .text$_ZN8ptrarrayIPN7sc_core17sc_thread_processEED1Ev
60632cc4 T __ZN8ptrarrayIPN7sc_core17sc_thread_processEED1Ev
60632cfc t .text$_ZN8ptrarrayIPN7sc_core18sc_process_monitorEEC1Ev
60632cfc T __ZN8ptrarrayIPN7sc_core18sc_process_monitorEEC1Ev
60632d18 t .text$_ZN8ptrarrayIPN7sc_core18sc_process_monitorEED1Ev
60632d18 T __ZN8ptrarrayIPN7sc_core18sc_process_monitorEED1Ev
60632d50 t .text$_ZN8ptrarrayIPN7sc_core18sc_process_monitorEEixEi
60632d50 T __ZN8ptrarrayIPN7sc_core18sc_process_monitorEEixEi
60632d6c t .text$_ZN8ptrarrayIPN7sc_core18sc_signal_inout_ifIN5sc_dt7sc_uintILi32EEEEEE15resize_physicalEi
60632d6c T __ZN8ptrarrayIPN7sc_core18sc_signal_inout_ifIN5sc_dt7sc_uintILi32EEEEEE15resize_physicalEi
60632e34 t .text$_ZN8ptrarrayIPN7sc_core18sc_signal_inout_ifIN5sc_dt7sc_uintILi32EEEEEE9push_backES6_
60632e34 T __ZN8ptrarrayIPN7sc_core18sc_signal_inout_ifIN5sc_dt7sc_uintILi32EEEEEE9push_backES6_
60632ea8 t .text$_ZN8ptrarrayIPN7sc_core18sc_signal_inout_ifIN5sc_dt7sc_uintILi32EEEEEEC1Ev
60632ea8 T __ZN8ptrarrayIPN7sc_core18sc_signal_inout_ifIN5sc_dt7sc_uintILi32EEEEEEC1Ev
60632ecc t .text$_ZN8ptrarrayIPN7sc_core18sc_signal_inout_ifIN5sc_dt7sc_uintILi32EEEEEED1Ev
60632ecc T __ZN8ptrarrayIPN7sc_core18sc_signal_inout_ifIN5sc_dt7sc_uintILi32EEEEEED1Ev
60632f0c t .text$_ZN8ptrarrayIPN7sc_core18sc_signal_inout_ifIN5sc_dt7sc_uintILi32EEEEEEixEi
60632f0c T __ZN8ptrarrayIPN7sc_core18sc_signal_inout_ifIN5sc_dt7sc_uintILi32EEEEEEixEi
60632f40 t .text$_ZN8ptrarrayIPN7sc_core18sc_signal_inout_ifIN5sc_dt8sc_logicEEEE15resize_physicalEi
60632f40 T __ZN8ptrarrayIPN7sc_core18sc_signal_inout_ifIN5sc_dt8sc_logicEEEE15resize_physicalEi
60632fd4 t .text$_ZN8ptrarrayIPN7sc_core18sc_signal_inout_ifIN5sc_dt8sc_logicEEEE9push_backES5_
60632fd4 T __ZN8ptrarrayIPN7sc_core18sc_signal_inout_ifIN5sc_dt8sc_logicEEEE9push_backES5_
60633018 t .text$_ZN8ptrarrayIPN7sc_core18sc_signal_inout_ifIN5sc_dt8sc_logicEEEED1Ev
60633018 T __ZN8ptrarrayIPN7sc_core18sc_signal_inout_ifIN5sc_dt8sc_logicEEEED1Ev
60633050 t .text$_ZN8ptrarrayIPN7sc_core18sc_signal_inout_ifIN5sc_dt8sc_logicEEEEixEi
60633050 T __ZN8ptrarrayIPN7sc_core18sc_signal_inout_ifIN5sc_dt8sc_logicEEEEixEi
6063306c t .text$_ZN8ptrarrayIPN7sc_core18sc_signal_inout_ifIbEEE15resize_physicalEi
6063306c T __ZN8ptrarrayIPN7sc_core18sc_signal_inout_ifIbEEE15resize_physicalEi
60633100 t .text$_ZN8ptrarrayIPN7sc_core18sc_signal_inout_ifIbEEE9push_backES3_
60633100 T __ZN8ptrarrayIPN7sc_core18sc_signal_inout_ifIbEEE9push_backES3_
60633144 t .text$_ZN8ptrarrayIPN7sc_core18sc_signal_inout_ifIbEEED1Ev
60633144 T __ZN8ptrarrayIPN7sc_core18sc_signal_inout_ifIbEEED1Ev
6063317c t .text$_ZN8ptrarrayIPN7sc_core18sc_signal_inout_ifIbEEEixEi
6063317c T __ZN8ptrarrayIPN7sc_core18sc_signal_inout_ifIbEEEixEi
60633198 t .text$_ZN8ptrarrayIPN7sc_core19sc_spawn_reset_baseEE15resize_physicalEi
60633198 T __ZN8ptrarrayIPN7sc_core19sc_spawn_reset_baseEE15resize_physicalEi
6063322c t .text$_ZN8ptrarrayIPN7sc_core19sc_spawn_reset_baseEE9push_backES2_
6063322c T __ZN8ptrarrayIPN7sc_core19sc_spawn_reset_baseEE9push_backES2_
60633270 t .text$_ZN8ptrarrayIPN7sc_core19sc_spawn_reset_baseEEC1Ev
60633270 T __ZN8ptrarrayIPN7sc_core19sc_spawn_reset_baseEEC1Ev
6063328c t .text$_ZN8ptrarrayIPN7sc_core19sc_spawn_reset_baseEED1Ev
6063328c T __ZN8ptrarrayIPN7sc_core19sc_spawn_reset_baseEED1Ev
606332c4 t .text$_ZN8ptrarrayIPN7sc_core19sc_spawn_reset_baseEEixEi
606332c4 T __ZN8ptrarrayIPN7sc_core19sc_spawn_reset_baseEEixEi
606332e0 t .text$_ZN8ptrarrayIPN7sc_core8sc_eventEEC1Ev
606332e0 T __ZN8ptrarrayIPN7sc_core8sc_eventEEC1Ev
606332fc t .text$_ZN8ptrarrayIPN7sc_core8sc_eventEED1Ev
606332fc T __ZN8ptrarrayIPN7sc_core8sc_eventEED1Ev
60633334 t .text$_ZN8ptrarrayIPN7sc_core9sc_moduleEE10removeFastES2_
60633334 T __ZN8ptrarrayIPN7sc_core9sc_moduleEE10removeFastES2_
60633398 t .text$_ZN8ptrarrayIPN7sc_core9sc_moduleEE15resize_physicalEi
60633398 T __ZN8ptrarrayIPN7sc_core9sc_moduleEE15resize_physicalEi
6063342c t .text$_ZN8ptrarrayIPN7sc_core9sc_moduleEE9push_backES2_
6063342c T __ZN8ptrarrayIPN7sc_core9sc_moduleEE9push_backES2_
6063346c t .text$_ZN8ptrarrayIPN7sc_core9sc_moduleEEC1Ev
6063346c T __ZN8ptrarrayIPN7sc_core9sc_moduleEEC1Ev
60633488 t .text$_ZN8ptrarrayIPN7sc_core9sc_moduleEED1Ev
60633488 T __ZN8ptrarrayIPN7sc_core9sc_moduleEED1Ev
606334c0 t .text$_ZN8ptrarrayIPN7sc_core9sc_moduleEEixEi
606334c0 T __ZN8ptrarrayIPN7sc_core9sc_moduleEEixEi
606334dc t .text$_ZN8sc_boost4bindIiPFiiPPcES4_EENS_3_bi6bind_tIT_PFS7_T0_ENS5_9list_av_1IT1_E4typeEEESA_SC_
606334dc T __ZN8sc_boost4bindIiPFiiPPcES4_EENS_3_bi6bind_tIT_PFS7_T0_ENS5_9list_av_1IT1_E4typeEEESA_SC_
606334e8 t .text$_ZN8sc_boost4bindIvN7sc_core16sc_invoke_methodEPS2_EENS_3_bi6bind_tIT_NS_4_mfi3mf0IS6_T0_EENS4_9list_av_1IT1_E4typeEEEMS9_FS6_vESC_
606334e8 T __ZN8sc_boost4bindIvN7sc_core16sc_invoke_methodEPS2_EENS_3_bi6bind_tIT_NS_4_mfi3mf0IS6_T0_EENS4_9list_av_1IT1_E4typeEEEMS9_FS6_vESC_
60633504 t .text$_ZN9__gnu_cxx13new_allocatorIN5sc_dt8sc_logicEEC2ERKS3_
60633504 T __ZN9__gnu_cxx13new_allocatorIN5sc_dt8sc_logicEEC2ERKS3_
6063350c t .text$_ZN9__gnu_cxx13new_allocatorIN5sc_dt8sc_logicEEC2Ev
6063350c T __ZN9__gnu_cxx13new_allocatorIN5sc_dt8sc_logicEEC2Ev
60633514 t .text$_ZN9__gnu_cxx13new_allocatorIN5sc_dt8sc_logicEED2Ev
60633514 T __ZN9__gnu_cxx13new_allocatorIN5sc_dt8sc_logicEED2Ev
6063351c t .text$_ZN9__gnu_cxx13stdio_filebufIcSt11char_traitsIcEE2fdEv
6063351c T __ZN9__gnu_cxx13stdio_filebufIcSt11char_traitsIcEE2fdEv
6063352c t .text$_ZN9__gnu_cxx13stdio_filebufIcSt11char_traitsIcEE4fileEv
6063352c T __ZN9__gnu_cxx13stdio_filebufIcSt11char_traitsIcEE4fileEv
6063353c t .text$_ZN9__gnu_cxx13stdio_filebufIcSt11char_traitsIcEEC1EP6_iobufSt13_Ios_Openmodej
6063353c T __ZN9__gnu_cxx13stdio_filebufIcSt11char_traitsIcEEC1EP6_iobufSt13_Ios_Openmodej
60633628 t .text$_ZN9__gnu_cxx13stdio_filebufIcSt11char_traitsIcEEC1EiSt13_Ios_Openmodej
60633628 T __ZN9__gnu_cxx13stdio_filebufIcSt11char_traitsIcEEC1EiSt13_Ios_Openmodej
60633714 t .text$_ZN9__gnu_cxx13stdio_filebufIcSt11char_traitsIcEEC1Ev
60633714 T __ZN9__gnu_cxx13stdio_filebufIcSt11char_traitsIcEEC1Ev
60633734 t .text$_ZN9__gnu_cxx13stdio_filebufIcSt11char_traitsIcEEC2EP6_iobufSt13_Ios_Openmodej
60633734 T __ZN9__gnu_cxx13stdio_filebufIcSt11char_traitsIcEEC2EP6_iobufSt13_Ios_Openmodej
60633820 t .text$_ZN9__gnu_cxx13stdio_filebufIcSt11char_traitsIcEEC2EiSt13_Ios_Openmodej
60633820 T __ZN9__gnu_cxx13stdio_filebufIcSt11char_traitsIcEEC2EiSt13_Ios_Openmodej
6063390c t .text$_ZN9__gnu_cxx13stdio_filebufIcSt11char_traitsIcEEC2Ev
6063390c T __ZN9__gnu_cxx13stdio_filebufIcSt11char_traitsIcEEC2Ev
6063392c t .text$_ZN9__gnu_cxx13stdio_filebufIcSt11char_traitsIcEED0Ev
6063392c T __ZN9__gnu_cxx13stdio_filebufIcSt11char_traitsIcEED0Ev
6063398c t .text$_ZN9__gnu_cxx13stdio_filebufIcSt11char_traitsIcEED1Ev
6063398c T __ZN9__gnu_cxx13stdio_filebufIcSt11char_traitsIcEED1Ev
606339e4 t .text$_ZN9__gnu_cxx13stdio_filebufIcSt11char_traitsIcEED2Ev
606339e4 T __ZN9__gnu_cxx13stdio_filebufIcSt11char_traitsIcEED2Ev
60633a3c t .text$_ZN9__gnu_cxx13stdio_filebufIwSt11char_traitsIwEE2fdEv
60633a3c T __ZN9__gnu_cxx13stdio_filebufIwSt11char_traitsIwEE2fdEv
60633a4c t .text$_ZN9__gnu_cxx13stdio_filebufIwSt11char_traitsIwEE4fileEv
60633a4c T __ZN9__gnu_cxx13stdio_filebufIwSt11char_traitsIwEE4fileEv
60633a5c t .text$_ZN9__gnu_cxx13stdio_filebufIwSt11char_traitsIwEEC1EP6_iobufSt13_Ios_Openmodej
60633a5c T __ZN9__gnu_cxx13stdio_filebufIwSt11char_traitsIwEEC1EP6_iobufSt13_Ios_Openmodej
60633b48 t .text$_ZN9__gnu_cxx13stdio_filebufIwSt11char_traitsIwEEC1EiSt13_Ios_Openmodej
60633b48 T __ZN9__gnu_cxx13stdio_filebufIwSt11char_traitsIwEEC1EiSt13_Ios_Openmodej
60633c34 t .text$_ZN9__gnu_cxx13stdio_filebufIwSt11char_traitsIwEEC1Ev
60633c34 T __ZN9__gnu_cxx13stdio_filebufIwSt11char_traitsIwEEC1Ev
60633c54 t .text$_ZN9__gnu_cxx13stdio_filebufIwSt11char_traitsIwEEC2EP6_iobufSt13_Ios_Openmodej
60633c54 T __ZN9__gnu_cxx13stdio_filebufIwSt11char_traitsIwEEC2EP6_iobufSt13_Ios_Openmodej
60633d40 t .text$_ZN9__gnu_cxx13stdio_filebufIwSt11char_traitsIwEEC2EiSt13_Ios_Openmodej
60633d40 T __ZN9__gnu_cxx13stdio_filebufIwSt11char_traitsIwEEC2EiSt13_Ios_Openmodej
60633e2c t .text$_ZN9__gnu_cxx13stdio_filebufIwSt11char_traitsIwEEC2Ev
60633e2c T __ZN9__gnu_cxx13stdio_filebufIwSt11char_traitsIwEEC2Ev
60633e4c t .text$_ZN9__gnu_cxx13stdio_filebufIwSt11char_traitsIwEED0Ev
60633e4c T __ZN9__gnu_cxx13stdio_filebufIwSt11char_traitsIwEED0Ev
60633eac t .text$_ZN9__gnu_cxx13stdio_filebufIwSt11char_traitsIwEED1Ev
60633eac T __ZN9__gnu_cxx13stdio_filebufIwSt11char_traitsIwEED1Ev
60633f04 t .text$_ZN9__gnu_cxx13stdio_filebufIwSt11char_traitsIwEED2Ev
60633f04 T __ZN9__gnu_cxx13stdio_filebufIwSt11char_traitsIwEED2Ev
60633f5c t .text$_ZN9__gnu_cxx18stdio_sync_filebufIcSt11char_traitsIcEE4fileEv
60633f5c T __ZN9__gnu_cxx18stdio_sync_filebufIcSt11char_traitsIcEE4fileEv
60633f68 t .text$_ZN9__gnu_cxx18stdio_sync_filebufIcSt11char_traitsIcEE4syncEv
60633f68 T __ZN9__gnu_cxx18stdio_sync_filebufIcSt11char_traitsIcEE4syncEv
60633f7c t .text$_ZN9__gnu_cxx18stdio_sync_filebufIcSt11char_traitsIcEE5uflowEv
60633f7c T __ZN9__gnu_cxx18stdio_sync_filebufIcSt11char_traitsIcEE5uflowEv
60633fc0 t .text$_ZN9__gnu_cxx18stdio_sync_filebufIcSt11char_traitsIcEE6xsgetnEPci
60633fc0 T __ZN9__gnu_cxx18stdio_sync_filebufIcSt11char_traitsIcEE6xsgetnEPci
60634004 t .text$_ZN9__gnu_cxx18stdio_sync_filebufIcSt11char_traitsIcEE6xsputnEPKci
60634004 T __ZN9__gnu_cxx18stdio_sync_filebufIcSt11char_traitsIcEE6xsputnEPKci
60634020 t .text$_ZN9__gnu_cxx18stdio_sync_filebufIcSt11char_traitsIcEE7seekoffExSt12_Ios_SeekdirSt13_Ios_Openmode
60634020 T __ZN9__gnu_cxx18stdio_sync_filebufIcSt11char_traitsIcEE7seekoffExSt12_Ios_SeekdirSt13_Ios_Openmode
606340d0 t .text$_ZN9__gnu_cxx18stdio_sync_filebufIcSt11char_traitsIcEE7seekposESt4fposIiESt13_Ios_Openmode
606340d0 T __ZN9__gnu_cxx18stdio_sync_filebufIcSt11char_traitsIcEE7seekposESt4fposIiESt13_Ios_Openmode
60634108 t .text$_ZN9__gnu_cxx18stdio_sync_filebufIcSt11char_traitsIcEE8overflowEi
60634108 T __ZN9__gnu_cxx18stdio_sync_filebufIcSt11char_traitsIcEE8overflowEi
6063415c t .text$_ZN9__gnu_cxx18stdio_sync_filebufIcSt11char_traitsIcEE9pbackfailEi
6063415c T __ZN9__gnu_cxx18stdio_sync_filebufIcSt11char_traitsIcEE9pbackfailEi
60634194 t .text$_ZN9__gnu_cxx18stdio_sync_filebufIcSt11char_traitsIcEE9underflowEv
60634194 T __ZN9__gnu_cxx18stdio_sync_filebufIcSt11char_traitsIcEE9underflowEv
606341d8 t .text$_ZN9__gnu_cxx18stdio_sync_filebufIcSt11char_traitsIcEEC1EP6_iobuf
606341d8 T __ZN9__gnu_cxx18stdio_sync_filebufIcSt11char_traitsIcEEC1EP6_iobuf
60634238 t .text$_ZN9__gnu_cxx18stdio_sync_filebufIcSt11char_traitsIcEEC2EP6_iobuf
60634238 T __ZN9__gnu_cxx18stdio_sync_filebufIcSt11char_traitsIcEEC2EP6_iobuf
60634298 t .text$_ZN9__gnu_cxx18stdio_sync_filebufIcSt11char_traitsIcEED0Ev
60634298 T __ZN9__gnu_cxx18stdio_sync_filebufIcSt11char_traitsIcEED0Ev
606342c0 t .text$_ZN9__gnu_cxx18stdio_sync_filebufIcSt11char_traitsIcEED1Ev
606342c0 T __ZN9__gnu_cxx18stdio_sync_filebufIcSt11char_traitsIcEED1Ev
606342d8 t .text$_ZN9__gnu_cxx18stdio_sync_filebufIwSt11char_traitsIwEE4fileEv
606342d8 T __ZN9__gnu_cxx18stdio_sync_filebufIwSt11char_traitsIwEE4fileEv
606342e4 t .text$_ZN9__gnu_cxx18stdio_sync_filebufIwSt11char_traitsIwEE4syncEv
606342e4 T __ZN9__gnu_cxx18stdio_sync_filebufIwSt11char_traitsIwEE4syncEv
606342f8 t .text$_ZN9__gnu_cxx18stdio_sync_filebufIwSt11char_traitsIwEE5uflowEv
606342f8 T __ZN9__gnu_cxx18stdio_sync_filebufIwSt11char_traitsIwEE5uflowEv
60634318 t .text$_ZN9__gnu_cxx18stdio_sync_filebufIwSt11char_traitsIwEE6xsgetnEPwi
60634318 T __ZN9__gnu_cxx18stdio_sync_filebufIwSt11char_traitsIwEE6xsgetnEPwi
6063437c t .text$_ZN9__gnu_cxx18stdio_sync_filebufIwSt11char_traitsIwEE6xsputnEPKwi
6063437c T __ZN9__gnu_cxx18stdio_sync_filebufIwSt11char_traitsIwEE6xsputnEPKwi
606343c4 t .text$_ZN9__gnu_cxx18stdio_sync_filebufIwSt11char_traitsIwEE7seekoffExSt12_Ios_SeekdirSt13_Ios_Openmode
606343c4 T __ZN9__gnu_cxx18stdio_sync_filebufIwSt11char_traitsIwEE7seekoffExSt12_Ios_SeekdirSt13_Ios_Openmode
60634474 t .text$_ZN9__gnu_cxx18stdio_sync_filebufIwSt11char_traitsIwEE7seekposESt4fposIiESt13_Ios_Openmode
60634474 T __ZN9__gnu_cxx18stdio_sync_filebufIwSt11char_traitsIwEE7seekposESt4fposIiESt13_Ios_Openmode
606344ac t .text$_ZN9__gnu_cxx18stdio_sync_filebufIwSt11char_traitsIwEE8overflowEt
606344ac T __ZN9__gnu_cxx18stdio_sync_filebufIwSt11char_traitsIwEE8overflowEt
606344f4 t .text$_ZN9__gnu_cxx18stdio_sync_filebufIwSt11char_traitsIwEE9pbackfailEt
606344f4 T __ZN9__gnu_cxx18stdio_sync_filebufIwSt11char_traitsIwEE9pbackfailEt
60634540 t .text$_ZN9__gnu_cxx18stdio_sync_filebufIwSt11char_traitsIwEE9underflowEv
60634540 T __ZN9__gnu_cxx18stdio_sync_filebufIwSt11char_traitsIwEE9underflowEv
60634568 t .text$_ZN9__gnu_cxx18stdio_sync_filebufIwSt11char_traitsIwEEC1EP6_iobuf
60634568 T __ZN9__gnu_cxx18stdio_sync_filebufIwSt11char_traitsIwEEC1EP6_iobuf
606345c8 t .text$_ZN9__gnu_cxx18stdio_sync_filebufIwSt11char_traitsIwEEC2EP6_iobuf
606345c8 T __ZN9__gnu_cxx18stdio_sync_filebufIwSt11char_traitsIwEEC2EP6_iobuf
60634628 t .text$_ZN9__gnu_cxx18stdio_sync_filebufIwSt11char_traitsIwEED0Ev
60634628 T __ZN9__gnu_cxx18stdio_sync_filebufIwSt11char_traitsIwEED0Ev
60634650 t .text$_ZN9__gnu_cxx18stdio_sync_filebufIwSt11char_traitsIwEED1Ev
60634650 T __ZN9__gnu_cxx18stdio_sync_filebufIwSt11char_traitsIwEED1Ev
60634668 t .text$_ZN9__gnu_cxx24__concurrence_lock_errorD0Ev
60634668 T __ZN9__gnu_cxx24__concurrence_lock_errorD0Ev
60634690 t .text$_ZN9__gnu_cxx24__concurrence_lock_errorD1Ev
60634690 T __ZN9__gnu_cxx24__concurrence_lock_errorD1Ev
606346a4 t .text$_ZN9__gnu_cxx26__concurrence_unlock_errorD0Ev
606346a4 T __ZN9__gnu_cxx26__concurrence_unlock_errorD0Ev
606346cc t .text$_ZN9__gnu_cxx26__concurrence_unlock_errorD1Ev
606346cc T __ZN9__gnu_cxx26__concurrence_unlock_errorD1Ev
606346e0 t .text$_ZN9__gnu_cxx4ropeIcSaIcEE8_S_fetchEPNS_13_Rope_RopeRepIcS1_EEj
606346e0 T __ZN9__gnu_cxx4ropeIcSaIcEE8_S_fetchEPNS_13_Rope_RopeRepIcS1_EEj
60634744 t .text$_ZN9__gnu_cxx4ropeIwSaIwEE8_S_fetchEPNS_13_Rope_RopeRepIwS1_EEj
60634744 T __ZN9__gnu_cxx4ropeIwSaIwEE8_S_fetchEPNS_13_Rope_RopeRepIwS1_EEj
606347a8 t .text$_ZN9__gnu_cxxeqIPKcSsEEbRKNS_17__normal_iteratorIT_T0_EES8_
606347a8 T __ZN9__gnu_cxxeqIPKcSsEEbRKNS_17__normal_iteratorIT_T0_EES8_
606347c0 t .text$_ZN9__gnu_cxxeqIPKwSbIwSt11char_traitsIwESaIwEEEEbRKNS_17__normal_iteratorIT_T0_EESC_
606347c0 T __ZN9__gnu_cxxeqIPKwSbIwSt11char_traitsIwESaIwEEEEbRKNS_17__normal_iteratorIT_T0_EESC_
606347d8 t .text$_ZN9__gnu_cxxeqIPcSsEEbRKNS_17__normal_iteratorIT_T0_EES7_
606347d8 T __ZN9__gnu_cxxeqIPcSsEEbRKNS_17__normal_iteratorIT_T0_EES7_
606347f0 t .text$_ZN9__gnu_cxxeqIPwSbIwSt11char_traitsIwESaIwEEEEbRKNS_17__normal_iteratorIT_T0_EESB_
606347f0 T __ZN9__gnu_cxxeqIPwSbIwSt11char_traitsIwESaIwEEEEbRKNS_17__normal_iteratorIT_T0_EESB_
60634808 t .text$_ZNK10__cxxabiv117__pbase_type_info15__pointer_catchEPKS0_PPvj
60634808 T __ZNK10__cxxabiv117__pbase_type_info15__pointer_catchEPKS0_PPvj
60634830 t .text$_ZNK13sc_mti_access17mti_get_dpi_valueEPv
60634830 T __ZNK13sc_mti_access17mti_get_dpi_valueEPv
60634838 t .text$_ZNK5sc_dt11sc_unsigned13concat_lengthEPb
60634838 T __ZNK5sc_dt11sc_unsigned13concat_lengthEPb
60634850 t .text$_ZNK5sc_dt12sc_uint_base12check_lengthEv
60634850 T __ZNK5sc_dt12sc_uint_base12check_lengthEv
6063487c t .text$_ZNK5sc_dt12sc_uint_base13concat_lengthEPb
6063487c T __ZNK5sc_dt12sc_uint_base13concat_lengthEPb
60634898 t .text$_ZNK5sc_dt12sc_uint_base17concat_get_uint64Ev
60634898 T __ZNK5sc_dt12sc_uint_base17concat_get_uint64Ev
606348a8 t .text$_ZNK5sc_dt12sc_uint_base5printERSo
606348a8 T __ZNK5sc_dt12sc_uint_base5printERSo
60634928 t .text$_ZNK5sc_dt12sc_uint_base6lengthEv
60634928 T __ZNK5sc_dt12sc_uint_base6lengthEv
60634934 t .text$_ZNK5sc_dt12sc_uint_basecvyEv
60634934 T __ZNK5sc_dt12sc_uint_basecvyEv
60634944 t .text$_ZNK5sc_dt16sc_uint_bitref_r13concat_lengthEPb
60634944 T __ZNK5sc_dt16sc_uint_bitref_r13concat_lengthEPb
60634958 t .text$_ZNK5sc_dt16sc_uint_bitref_r15concat_get_ctrlEPji
60634958 T __ZNK5sc_dt16sc_uint_bitref_r15concat_get_ctrlEPji
60634994 t .text$_ZNK5sc_dt16sc_uint_bitref_r15concat_get_dataEPji
60634994 T __ZNK5sc_dt16sc_uint_bitref_r15concat_get_dataEPji
60634a1c t .text$_ZNK5sc_dt16sc_uint_bitref_r17concat_get_uint64Ev
60634a1c T __ZNK5sc_dt16sc_uint_bitref_r17concat_get_uint64Ev
60634a58 t .text$_ZNK5sc_dt16sc_uint_subref_r13concat_lengthEPb
60634a58 T __ZNK5sc_dt16sc_uint_subref_r13concat_lengthEPb
60634a74 t .text$_ZNK5sc_dt16sc_uint_subref_r17concat_get_uint64Ev
60634a74 T __ZNK5sc_dt16sc_uint_subref_r17concat_get_uint64Ev
60634ac4 t .text$_ZNK5sc_dt18sc_signed_bitref_r13concat_lengthEPb
60634ac4 T __ZNK5sc_dt18sc_signed_bitref_r13concat_lengthEPb
60634ad8 t .text$_ZNK5sc_dt18sc_signed_bitref_r15concat_get_ctrlEPji
60634ad8 T __ZNK5sc_dt18sc_signed_bitref_r15concat_get_ctrlEPji
60634b14 t .text$_ZNK5sc_dt18sc_signed_bitref_r15concat_get_dataEPji
60634b14 T __ZNK5sc_dt18sc_signed_bitref_r15concat_get_dataEPji
60634b80 t .text$_ZNK5sc_dt18sc_signed_bitref_r17concat_get_uint64Ev
60634b80 T __ZNK5sc_dt18sc_signed_bitref_r17concat_get_uint64Ev
60634b8c t .text$_ZNK5sc_dt18sc_signed_subref_r13concat_lengthEPb
60634b8c T __ZNK5sc_dt18sc_signed_subref_r13concat_lengthEPb
60634ba8 t .text$_ZNK5sc_dt20sc_unsigned_bitref_r13concat_lengthEPb
60634ba8 T __ZNK5sc_dt20sc_unsigned_bitref_r13concat_lengthEPb
60634bbc t .text$_ZNK5sc_dt20sc_unsigned_bitref_r15concat_get_ctrlEPji
60634bbc T __ZNK5sc_dt20sc_unsigned_bitref_r15concat_get_ctrlEPji
60634bf8 t .text$_ZNK5sc_dt20sc_unsigned_bitref_r15concat_get_dataEPji
60634bf8 T __ZNK5sc_dt20sc_unsigned_bitref_r15concat_get_dataEPji
60634c64 t .text$_ZNK5sc_dt20sc_unsigned_bitref_r17concat_get_uint64Ev
60634c64 T __ZNK5sc_dt20sc_unsigned_bitref_r17concat_get_uint64Ev
60634c70 t .text$_ZNK5sc_dt20sc_unsigned_subref_r13concat_lengthEPb
60634c70 T __ZNK5sc_dt20sc_unsigned_subref_r13concat_lengthEPb
60634c8c t .text$_ZNK5sc_dt8sc_proxyINS_10sc_bv_baseEE5printERSo
60634c8c T __ZNK5sc_dt8sc_proxyINS_10sc_bv_baseEE5printERSo
60635170 t .text$_ZNK5sc_dt9sc_signed13concat_lengthEPb
60635170 T __ZNK5sc_dt9sc_signed13concat_lengthEPb
60635188 t .text$_ZNK7sc_core12sc_port_base4kindEv
60635188 T __ZNK7sc_core12sc_port_base4kindEv
60635194 t .text$_ZNK7sc_core12sc_process_b10terminatedEv
60635194 T __ZNK7sc_core12sc_process_b10terminatedEv
606351a8 t .text$_ZNK7sc_core12sc_process_b17get_child_objectsEv
606351a8 T __ZNK7sc_core12sc_process_b17get_child_objectsEv
606351b4 t .text$_ZNK7sc_core13sc_simcontext10time_stampEv
606351b4 T __ZNK7sc_core13sc_simcontext10time_stampEv
60635230 t .text$_ZNK7sc_core13sc_simcontext12change_stampEv
60635230 T __ZNK7sc_core13sc_simcontext12change_stampEv
60635244 t .text$_ZNK7sc_core13sc_simcontext14event_occurredEyy
60635244 T __ZNK7sc_core13sc_simcontext14event_occurredEyy
60635284 t .text$_ZNK7sc_core13sc_simcontext18get_current_writerEv
60635284 T __ZNK7sc_core13sc_simcontext18get_current_writerEv
60635290 t .text$_ZNK7sc_core13sc_simcontext7mti_nowEv
60635290 T __ZNK7sc_core13sc_simcontext7mti_nowEv
606352a4 t .text$_ZNK7sc_core14sc_in_resolved4kindEv
606352a4 T __ZNK7sc_core14sc_in_resolved4kindEv
606352b0 t .text$_ZNK7sc_core15sc_event_finder4portEv
606352b0 T __ZNK7sc_core15sc_event_finder4portEv
606352bc t .text$_ZNK7sc_core15sc_prim_channel4kindEv
606352bc T __ZNK7sc_core15sc_prim_channel4kindEv
606352c8 t .text$_ZNK7sc_core15sc_signal_in_ifIbE8is_resetEv
606352c8 T __ZNK7sc_core15sc_signal_in_ifIbE8is_resetEv
606352d4 t .text$_ZNK7sc_core17sc_event_finder_tINS_15sc_signal_in_ifIN5sc_dt8sc_logicEEEE10find_eventEPNS_12sc_interfaceE
606352d4 T __ZNK7sc_core17sc_event_finder_tINS_15sc_signal_in_ifIN5sc_dt8sc_logicEEEE10find_eventEPNS_12sc_interfaceE
606353d4 t .text$_ZNK7sc_core17sc_event_finder_tINS_15sc_signal_in_ifIbEEE10find_eventEPNS_12sc_interfaceE
606353d4 T __ZNK7sc_core17sc_event_finder_tINS_15sc_signal_in_ifIbEEE10find_eventEPNS_12sc_interfaceE
606354d4 t .text$_ZNK7sc_core17sc_inout_resolved4kindEv
606354d4 T __ZNK7sc_core17sc_inout_resolved4kindEv
606354e0 t .text$_ZNK7sc_core17sc_method_process4kindEv
606354e0 T __ZNK7sc_core17sc_method_process4kindEv
606354ec t .text$_ZNK7sc_core17sc_thread_process4kindEv
606354ec T __ZNK7sc_core17sc_thread_process4kindEv
606354f8 t .text$_ZNK7sc_core18sc_cthread_process4kindEv
606354f8 T __ZNK7sc_core18sc_cthread_process4kindEv
60635504 t .text$_ZNK7sc_core18sc_signal_resolved4kindEv
60635504 T __ZNK7sc_core18sc_signal_resolved4kindEv
60635510 t .text$_ZNK7sc_core18sc_signal_write_ifIN5sc_dt7sc_uintILi2EEEE17get_writer_policyEv
60635510 T __ZNK7sc_core18sc_signal_write_ifIN5sc_dt7sc_uintILi2EEEE17get_writer_policyEv
6063551c t .text$_ZNK7sc_core18sc_signal_write_ifIN5sc_dt7sc_uintILi32EEEE17get_writer_policyEv
6063551c T __ZNK7sc_core18sc_signal_write_ifIN5sc_dt7sc_uintILi32EEEE17get_writer_policyEv
60635528 t .text$_ZNK7sc_core18sc_signal_write_ifIN5sc_dt8sc_logicEE17get_writer_policyEv
60635528 T __ZNK7sc_core18sc_signal_write_ifIN5sc_dt8sc_logicEE17get_writer_policyEv
60635534 t .text$_ZNK7sc_core18sc_signal_write_ifIbE17get_writer_policyEv
60635534 T __ZNK7sc_core18sc_signal_write_ifIbE17get_writer_policyEv
60635540 t .text$_ZNK7sc_core19sc_unwind_exception8is_resetEv
60635540 T __ZNK7sc_core19sc_unwind_exception8is_resetEv
6063554c t .text$_ZNK7sc_core23sc_method_debug_process4kindEv
6063554c T __ZNK7sc_core23sc_method_debug_process4kindEv
60635558 t .text$_ZNK7sc_core5sc_inIN5sc_dt7sc_uintILi2EEEE13remove_tracesEv
60635558 T __ZNK7sc_core5sc_inIN5sc_dt7sc_uintILi2EEEE13remove_tracesEv
606355f8 t .text$_ZNK7sc_core5sc_inIN5sc_dt7sc_uintILi2EEEE4kindEv
606355f8 T __ZNK7sc_core5sc_inIN5sc_dt7sc_uintILi2EEEE4kindEv
60635604 t .text$_ZNK7sc_core5sc_inIN5sc_dt7sc_uintILi2EEEE4readEv
60635604 T __ZNK7sc_core5sc_inIN5sc_dt7sc_uintILi2EEEE4readEv
60635630 t .text$_ZNK7sc_core5sc_inIN5sc_dt7sc_uintILi32EEEE13remove_tracesEv
60635630 T __ZNK7sc_core5sc_inIN5sc_dt7sc_uintILi32EEEE13remove_tracesEv
606356d0 t .text$_ZNK7sc_core5sc_inIN5sc_dt7sc_uintILi32EEEE4kindEv
606356d0 T __ZNK7sc_core5sc_inIN5sc_dt7sc_uintILi32EEEE4kindEv
606356dc t .text$_ZNK7sc_core5sc_inIN5sc_dt7sc_uintILi32EEEE4readEv
606356dc T __ZNK7sc_core5sc_inIN5sc_dt7sc_uintILi32EEEE4readEv
60635708 t .text$_ZNK7sc_core5sc_inIN5sc_dt8sc_logicEE3negEv
60635708 T __ZNK7sc_core5sc_inIN5sc_dt8sc_logicEE3negEv
60635784 t .text$_ZNK7sc_core5sc_inIN5sc_dt8sc_logicEE4kindEv
60635784 T __ZNK7sc_core5sc_inIN5sc_dt8sc_logicEE4kindEv
60635790 t .text$_ZNK7sc_core5sc_inIN5sc_dt8sc_logicEE4readEv
60635790 T __ZNK7sc_core5sc_inIN5sc_dt8sc_logicEE4readEv
606357bc t .text$_ZNK7sc_core5sc_inIbE3posEv
606357bc T __ZNK7sc_core5sc_inIbE3posEv
60635838 t .text$_ZNK7sc_core5sc_inIbE4kindEv
60635838 T __ZNK7sc_core5sc_inIbE4kindEv
60635844 t .text$_ZNK7sc_core6sc_outIN5sc_dt7sc_uintILi32EEEE4kindEv
60635844 T __ZNK7sc_core6sc_outIN5sc_dt7sc_uintILi32EEEE4kindEv
60635850 t .text$_ZNK7sc_core7sc_portINS_15sc_signal_in_ifIN5sc_dt7sc_uintILi2EEEEELi1ELNS_14sc_port_policyE0EE4kindEv
60635850 T __ZNK7sc_core7sc_portINS_15sc_signal_in_ifIN5sc_dt7sc_uintILi2EEEEELi1ELNS_14sc_port_policyE0EE4kindEv
6063585c t .text$_ZNK7sc_core7sc_portINS_15sc_signal_in_ifIN5sc_dt7sc_uintILi32EEEEELi1ELNS_14sc_port_policyE0EE4kindEv
6063585c T __ZNK7sc_core7sc_portINS_15sc_signal_in_ifIN5sc_dt7sc_uintILi32EEEEELi1ELNS_14sc_port_policyE0EE4kindEv
60635868 t .text$_ZNK7sc_core7sc_portINS_15sc_signal_in_ifIN5sc_dt8sc_logicEEELi1ELNS_14sc_port_policyE0EE4kindEv
60635868 T __ZNK7sc_core7sc_portINS_15sc_signal_in_ifIN5sc_dt8sc_logicEEELi1ELNS_14sc_port_policyE0EE4kindEv
60635874 t .text$_ZNK7sc_core7sc_portINS_15sc_signal_in_ifIbEELi1ELNS_14sc_port_policyE0EE4kindEv
60635874 T __ZNK7sc_core7sc_portINS_15sc_signal_in_ifIbEELi1ELNS_14sc_port_policyE0EE4kindEv
60635880 t .text$_ZNK7sc_core7sc_portINS_18sc_signal_inout_ifIN5sc_dt7sc_uintILi32EEEEELi1ELNS_14sc_port_policyE0EE4kindEv
60635880 T __ZNK7sc_core7sc_portINS_18sc_signal_inout_ifIN5sc_dt7sc_uintILi32EEEEELi1ELNS_14sc_port_policyE0EE4kindEv
6063588c t .text$_ZNK7sc_core7sc_portINS_18sc_signal_inout_ifIN5sc_dt8sc_logicEEELi1ELNS_14sc_port_policyE0EE4kindEv
6063588c T __ZNK7sc_core7sc_portINS_18sc_signal_inout_ifIN5sc_dt8sc_logicEEELi1ELNS_14sc_port_policyE0EE4kindEv
60635898 t .text$_ZNK7sc_core7sc_portINS_18sc_signal_inout_ifIbEELi1ELNS_14sc_port_policyE0EE4kindEv
60635898 T __ZNK7sc_core7sc_portINS_18sc_signal_inout_ifIbEELi1ELNS_14sc_port_policyE0EE4kindEv
606358a4 t .text$_ZNK7sc_core8sc_clock4kindEv
606358a4 T __ZNK7sc_core8sc_clock4kindEv
606358b0 t .text$_ZNK7sc_core8sc_clock5eventEv
606358b0 T __ZNK7sc_core8sc_clock5eventEv
606358ec t .text$_ZNK7sc_core8sc_clock5traceEPNS_13sc_trace_fileE
606358ec T __ZNK7sc_core8sc_clock5traceEPNS_13sc_trace_fileE
606358f4 t .text$_ZNK7sc_core8sc_inoutIN5sc_dt7sc_uintILi32EEEE13remove_tracesEv
606358f4 T __ZNK7sc_core8sc_inoutIN5sc_dt7sc_uintILi32EEEE13remove_tracesEv
60635994 t .text$_ZNK7sc_core8sc_inoutIN5sc_dt7sc_uintILi32EEEE4kindEv
60635994 T __ZNK7sc_core8sc_inoutIN5sc_dt7sc_uintILi32EEEE4kindEv
606359a0 t .text$_ZNK7sc_core8sc_inoutIN5sc_dt8sc_logicEE4kindEv
606359a0 T __ZNK7sc_core8sc_inoutIN5sc_dt8sc_logicEE4kindEv
606359ac t .text$_ZNK7sc_core8sc_inoutIbE4kindEv
606359ac T __ZNK7sc_core8sc_inoutIbE4kindEv
606359b8 t .text$_ZNK7sc_core9sc_module4kindEv
606359b8 T __ZNK7sc_core9sc_module4kindEv
606359c4 t .text$_ZNK7sc_core9sc_object10simcontextEv
606359c4 T __ZNK7sc_core9sc_object10simcontextEv
606359d0 t .text$_ZNK7sc_core9sc_object16get_child_eventsEv
606359d0 T __ZNK7sc_core9sc_object16get_child_eventsEv
606359dc t .text$_ZNK7sc_core9sc_object17get_child_objectsEv
606359dc T __ZNK7sc_core9sc_object17get_child_objectsEv
606359e8 t .text$_ZNK7sc_core9sc_object4kindEv
606359e8 T __ZNK7sc_core9sc_object4kindEv
606359f4 t .text$_ZNK7sc_core9sc_object8mti_nameEv
606359f4 T __ZNK7sc_core9sc_object8mti_nameEv
60635a00 t .text$_ZNK7sc_core9sc_port_bINS_15sc_signal_in_ifIN5sc_dt7sc_uintILi2EEEEEE11if_typenameEv
60635a00 T __ZNK7sc_core9sc_port_bINS_15sc_signal_in_ifIN5sc_dt7sc_uintILi2EEEEEE11if_typenameEv
60635a14 t .text$_ZNK7sc_core9sc_port_bINS_15sc_signal_in_ifIN5sc_dt7sc_uintILi2EEEEEE13get_interfaceEv
60635a14 T __ZNK7sc_core9sc_port_bINS_15sc_signal_in_ifIN5sc_dt7sc_uintILi2EEEEEE13get_interfaceEv
60635a4c t .text$_ZNK7sc_core9sc_port_bINS_15sc_signal_in_ifIN5sc_dt7sc_uintILi2EEEEEE14make_sensitiveEPNS_17sc_method_processEPNS_15sc_event_finderE
60635a4c T __ZNK7sc_core9sc_port_bINS_15sc_signal_in_ifIN5sc_dt7sc_uintILi2EEEEEE14make_sensitiveEPNS_17sc_method_processEPNS_15sc_event_finderE
60635b14 t .text$_ZNK7sc_core9sc_port_bINS_15sc_signal_in_ifIN5sc_dt7sc_uintILi2EEEEEE14make_sensitiveEPNS_17sc_thread_processEPNS_15sc_event_finderE
60635b14 T __ZNK7sc_core9sc_port_bINS_15sc_signal_in_ifIN5sc_dt7sc_uintILi2EEEEEE14make_sensitiveEPNS_17sc_thread_processEPNS_15sc_event_finderE
60635bdc t .text$_ZNK7sc_core9sc_port_bINS_15sc_signal_in_ifIN5sc_dt7sc_uintILi2EEEEEEptEv
60635bdc T __ZNK7sc_core9sc_port_bINS_15sc_signal_in_ifIN5sc_dt7sc_uintILi2EEEEEEptEv
60635c10 t .text$_ZNK7sc_core9sc_port_bINS_15sc_signal_in_ifIN5sc_dt7sc_uintILi32EEEEEE11if_typenameEv
60635c10 T __ZNK7sc_core9sc_port_bINS_15sc_signal_in_ifIN5sc_dt7sc_uintILi32EEEEEE11if_typenameEv
60635c24 t .text$_ZNK7sc_core9sc_port_bINS_15sc_signal_in_ifIN5sc_dt7sc_uintILi32EEEEEE13get_interfaceEv
60635c24 T __ZNK7sc_core9sc_port_bINS_15sc_signal_in_ifIN5sc_dt7sc_uintILi32EEEEEE13get_interfaceEv
60635c5c t .text$_ZNK7sc_core9sc_port_bINS_15sc_signal_in_ifIN5sc_dt7sc_uintILi32EEEEEE14make_sensitiveEPNS_17sc_method_processEPNS_15sc_event_finderE
60635c5c T __ZNK7sc_core9sc_port_bINS_15sc_signal_in_ifIN5sc_dt7sc_uintILi32EEEEEE14make_sensitiveEPNS_17sc_method_processEPNS_15sc_event_finderE
60635d24 t .text$_ZNK7sc_core9sc_port_bINS_15sc_signal_in_ifIN5sc_dt7sc_uintILi32EEEEEE14make_sensitiveEPNS_17sc_thread_processEPNS_15sc_event_finderE
60635d24 T __ZNK7sc_core9sc_port_bINS_15sc_signal_in_ifIN5sc_dt7sc_uintILi32EEEEEE14make_sensitiveEPNS_17sc_thread_processEPNS_15sc_event_finderE
60635dec t .text$_ZNK7sc_core9sc_port_bINS_15sc_signal_in_ifIN5sc_dt7sc_uintILi32EEEEEEptEv
60635dec T __ZNK7sc_core9sc_port_bINS_15sc_signal_in_ifIN5sc_dt7sc_uintILi32EEEEEEptEv
60635e20 t .text$_ZNK7sc_core9sc_port_bINS_15sc_signal_in_ifIN5sc_dt8sc_logicEEEE11if_typenameEv
60635e20 T __ZNK7sc_core9sc_port_bINS_15sc_signal_in_ifIN5sc_dt8sc_logicEEEE11if_typenameEv
60635e34 t .text$_ZNK7sc_core9sc_port_bINS_15sc_signal_in_ifIN5sc_dt8sc_logicEEEE13get_interfaceEv
60635e34 T __ZNK7sc_core9sc_port_bINS_15sc_signal_in_ifIN5sc_dt8sc_logicEEEE13get_interfaceEv
60635e6c t .text$_ZNK7sc_core9sc_port_bINS_15sc_signal_in_ifIN5sc_dt8sc_logicEEEE14make_sensitiveEPNS_17sc_method_processEPNS_15sc_event_finderE
60635e6c T __ZNK7sc_core9sc_port_bINS_15sc_signal_in_ifIN5sc_dt8sc_logicEEEE14make_sensitiveEPNS_17sc_method_processEPNS_15sc_event_finderE
60635f34 t .text$_ZNK7sc_core9sc_port_bINS_15sc_signal_in_ifIN5sc_dt8sc_logicEEEE14make_sensitiveEPNS_17sc_thread_processEPNS_15sc_event_finderE
60635f34 T __ZNK7sc_core9sc_port_bINS_15sc_signal_in_ifIN5sc_dt8sc_logicEEEE14make_sensitiveEPNS_17sc_thread_processEPNS_15sc_event_finderE
60635ffc t .text$_ZNK7sc_core9sc_port_bINS_15sc_signal_in_ifIN5sc_dt8sc_logicEEEEptEv
60635ffc T __ZNK7sc_core9sc_port_bINS_15sc_signal_in_ifIN5sc_dt8sc_logicEEEEptEv
60636030 t .text$_ZNK7sc_core9sc_port_bINS_15sc_signal_in_ifIbEEE11if_typenameEv
60636030 T __ZNK7sc_core9sc_port_bINS_15sc_signal_in_ifIbEEE11if_typenameEv
60636044 t .text$_ZNK7sc_core9sc_port_bINS_15sc_signal_in_ifIbEEE13get_interfaceEv
60636044 T __ZNK7sc_core9sc_port_bINS_15sc_signal_in_ifIbEEE13get_interfaceEv
6063607c t .text$_ZNK7sc_core9sc_port_bINS_15sc_signal_in_ifIbEEE14make_sensitiveEPNS_17sc_method_processEPNS_15sc_event_finderE
6063607c T __ZNK7sc_core9sc_port_bINS_15sc_signal_in_ifIbEEE14make_sensitiveEPNS_17sc_method_processEPNS_15sc_event_finderE
60636144 t .text$_ZNK7sc_core9sc_port_bINS_15sc_signal_in_ifIbEEE14make_sensitiveEPNS_17sc_thread_processEPNS_15sc_event_finderE
60636144 T __ZNK7sc_core9sc_port_bINS_15sc_signal_in_ifIbEEE14make_sensitiveEPNS_17sc_thread_processEPNS_15sc_event_finderE
6063620c t .text$_ZNK7sc_core9sc_port_bINS_18sc_signal_inout_ifIN5sc_dt7sc_uintILi32EEEEEE11if_typenameEv
6063620c T __ZNK7sc_core9sc_port_bINS_18sc_signal_inout_ifIN5sc_dt7sc_uintILi32EEEEEE11if_typenameEv
60636220 t .text$_ZNK7sc_core9sc_port_bINS_18sc_signal_inout_ifIN5sc_dt7sc_uintILi32EEEEEE13get_interfaceEv
60636220 T __ZNK7sc_core9sc_port_bINS_18sc_signal_inout_ifIN5sc_dt7sc_uintILi32EEEEEE13get_interfaceEv
60636258 t .text$_ZNK7sc_core9sc_port_bINS_18sc_signal_inout_ifIN5sc_dt7sc_uintILi32EEEEEE14make_sensitiveEPNS_17sc_method_processEPNS_15sc_event_finderE
60636258 T __ZNK7sc_core9sc_port_bINS_18sc_signal_inout_ifIN5sc_dt7sc_uintILi32EEEEEE14make_sensitiveEPNS_17sc_method_processEPNS_15sc_event_finderE
60636320 t .text$_ZNK7sc_core9sc_port_bINS_18sc_signal_inout_ifIN5sc_dt7sc_uintILi32EEEEEE14make_sensitiveEPNS_17sc_thread_processEPNS_15sc_event_finderE
60636320 T __ZNK7sc_core9sc_port_bINS_18sc_signal_inout_ifIN5sc_dt7sc_uintILi32EEEEEE14make_sensitiveEPNS_17sc_thread_processEPNS_15sc_event_finderE
606363e8 t .text$_ZNK7sc_core9sc_port_bINS_18sc_signal_inout_ifIN5sc_dt8sc_logicEEEE11if_typenameEv
606363e8 T __ZNK7sc_core9sc_port_bINS_18sc_signal_inout_ifIN5sc_dt8sc_logicEEEE11if_typenameEv
606363f4 t .text$_ZNK7sc_core9sc_port_bINS_18sc_signal_inout_ifIN5sc_dt8sc_logicEEEE13get_interfaceEv
606363f4 T __ZNK7sc_core9sc_port_bINS_18sc_signal_inout_ifIN5sc_dt8sc_logicEEEE13get_interfaceEv
60636410 t .text$_ZNK7sc_core9sc_port_bINS_18sc_signal_inout_ifIN5sc_dt8sc_logicEEEE14make_sensitiveEPNS_17sc_method_processEPNS_15sc_event_finderE
60636410 T __ZNK7sc_core9sc_port_bINS_18sc_signal_inout_ifIN5sc_dt8sc_logicEEEE14make_sensitiveEPNS_17sc_method_processEPNS_15sc_event_finderE
606364a8 t .text$_ZNK7sc_core9sc_port_bINS_18sc_signal_inout_ifIN5sc_dt8sc_logicEEEE14make_sensitiveEPNS_17sc_thread_processEPNS_15sc_event_finderE
606364a8 T __ZNK7sc_core9sc_port_bINS_18sc_signal_inout_ifIN5sc_dt8sc_logicEEEE14make_sensitiveEPNS_17sc_thread_processEPNS_15sc_event_finderE
60636540 t .text$_ZNK7sc_core9sc_port_bINS_18sc_signal_inout_ifIbEEE11if_typenameEv
60636540 T __ZNK7sc_core9sc_port_bINS_18sc_signal_inout_ifIbEEE11if_typenameEv
6063654c t .text$_ZNK7sc_core9sc_port_bINS_18sc_signal_inout_ifIbEEE13get_interfaceEv
6063654c T __ZNK7sc_core9sc_port_bINS_18sc_signal_inout_ifIbEEE13get_interfaceEv
60636568 t .text$_ZNK7sc_core9sc_port_bINS_18sc_signal_inout_ifIbEEE14make_sensitiveEPNS_17sc_method_processEPNS_15sc_event_finderE
60636568 T __ZNK7sc_core9sc_port_bINS_18sc_signal_inout_ifIbEEE14make_sensitiveEPNS_17sc_method_processEPNS_15sc_event_finderE
60636600 t .text$_ZNK7sc_core9sc_port_bINS_18sc_signal_inout_ifIbEEE14make_sensitiveEPNS_17sc_thread_processEPNS_15sc_event_finderE
60636600 T __ZNK7sc_core9sc_port_bINS_18sc_signal_inout_ifIbEEE14make_sensitiveEPNS_17sc_thread_processEPNS_15sc_event_finderE
60636698 t .text$_ZNK7sc_core9sc_report4kindEv
60636698 T __ZNK7sc_core9sc_report4kindEv
606366a4 t .text$_ZNK7sc_core9sc_report4whatEv
606366a4 T __ZNK7sc_core9sc_report4whatEv
606366b0 t .text$_ZNK7sc_core9sc_signalIN5sc_dt7sc_uintILi2EEELNS_16sc_writer_policyE0EE12get_data_refEv
606366b0 T __ZNK7sc_core9sc_signalIN5sc_dt7sc_uintILi2EEELNS_16sc_writer_policyE0EE12get_data_refEv
606366c4 t .text$_ZNK7sc_core9sc_signalIN5sc_dt7sc_uintILi2EEELNS_16sc_writer_policyE0EE13default_eventEv
606366c4 T __ZNK7sc_core9sc_signalIN5sc_dt7sc_uintILi2EEELNS_16sc_writer_policyE0EE13default_eventEv
60636818 t .text$_ZNK7sc_core9sc_signalIN5sc_dt7sc_uintILi2EEELNS_16sc_writer_policyE0EE13negedge_eventEv
60636818 T __ZNK7sc_core9sc_signalIN5sc_dt7sc_uintILi2EEELNS_16sc_writer_policyE0EE13negedge_eventEv
60636978 t .text$_ZNK7sc_core9sc_signalIN5sc_dt7sc_uintILi2EEELNS_16sc_writer_policyE0EE13posedge_eventEv
60636978 T __ZNK7sc_core9sc_signalIN5sc_dt7sc_uintILi2EEELNS_16sc_writer_policyE0EE13posedge_eventEv
60636ad8 t .text$_ZNK7sc_core9sc_signalIN5sc_dt7sc_uintILi2EEELNS_16sc_writer_policyE0EE17get_writer_policyEv
60636ad8 T __ZNK7sc_core9sc_signalIN5sc_dt7sc_uintILi2EEELNS_16sc_writer_policyE0EE17get_writer_policyEv
60636ae4 t .text$_ZNK7sc_core9sc_signalIN5sc_dt7sc_uintILi2EEELNS_16sc_writer_policyE0EE19value_changed_eventEv
60636ae4 T __ZNK7sc_core9sc_signalIN5sc_dt7sc_uintILi2EEELNS_16sc_writer_policyE0EE19value_changed_eventEv
60636c38 t .text$_ZNK7sc_core9sc_signalIN5sc_dt7sc_uintILi2EEELNS_16sc_writer_policyE0EE4dumpERSo
60636c38 T __ZNK7sc_core9sc_signalIN5sc_dt7sc_uintILi2EEELNS_16sc_writer_policyE0EE4dumpERSo
60636cf8 t .text$_ZNK7sc_core9sc_signalIN5sc_dt7sc_uintILi2EEELNS_16sc_writer_policyE0EE4kindEv
60636cf8 T __ZNK7sc_core9sc_signalIN5sc_dt7sc_uintILi2EEELNS_16sc_writer_policyE0EE4kindEv
60636d04 t .text$_ZNK7sc_core9sc_signalIN5sc_dt7sc_uintILi2EEELNS_16sc_writer_policyE0EE4readEv
60636d04 T __ZNK7sc_core9sc_signalIN5sc_dt7sc_uintILi2EEELNS_16sc_writer_policyE0EE4readEv
60636d10 t .text$_ZNK7sc_core9sc_signalIN5sc_dt7sc_uintILi2EEELNS_16sc_writer_policyE0EE5eventEv
60636d10 T __ZNK7sc_core9sc_signalIN5sc_dt7sc_uintILi2EEELNS_16sc_writer_policyE0EE5eventEv
60636d70 t .text$_ZNK7sc_core9sc_signalIN5sc_dt7sc_uintILi2EEELNS_16sc_writer_policyE0EE5printERSo
60636d70 T __ZNK7sc_core9sc_signalIN5sc_dt7sc_uintILi2EEELNS_16sc_writer_policyE0EE5printERSo
60636d90 t .text$_ZNK7sc_core9sc_signalIN5sc_dt7sc_uintILi2EEELNS_16sc_writer_policyE0EE5traceEPNS_13sc_trace_fileE
60636d90 T __ZNK7sc_core9sc_signalIN5sc_dt7sc_uintILi2EEELNS_16sc_writer_policyE0EE5traceEPNS_13sc_trace_fileE
60636da0 t .text$_ZNK7sc_core9sc_signalIN5sc_dt7sc_uintILi32EEELNS_16sc_writer_policyE0EE12get_data_refEv
60636da0 T __ZNK7sc_core9sc_signalIN5sc_dt7sc_uintILi32EEELNS_16sc_writer_policyE0EE12get_data_refEv
60636db4 t .text$_ZNK7sc_core9sc_signalIN5sc_dt7sc_uintILi32EEELNS_16sc_writer_policyE0EE13default_eventEv
60636db4 T __ZNK7sc_core9sc_signalIN5sc_dt7sc_uintILi32EEELNS_16sc_writer_policyE0EE13default_eventEv
60636f08 t .text$_ZNK7sc_core9sc_signalIN5sc_dt7sc_uintILi32EEELNS_16sc_writer_policyE0EE13negedge_eventEv
60636f08 T __ZNK7sc_core9sc_signalIN5sc_dt7sc_uintILi32EEELNS_16sc_writer_policyE0EE13negedge_eventEv
60637068 t .text$_ZNK7sc_core9sc_signalIN5sc_dt7sc_uintILi32EEELNS_16sc_writer_policyE0EE13posedge_eventEv
60637068 T __ZNK7sc_core9sc_signalIN5sc_dt7sc_uintILi32EEELNS_16sc_writer_policyE0EE13posedge_eventEv
606371c8 t .text$_ZNK7sc_core9sc_signalIN5sc_dt7sc_uintILi32EEELNS_16sc_writer_policyE0EE17get_writer_policyEv
606371c8 T __ZNK7sc_core9sc_signalIN5sc_dt7sc_uintILi32EEELNS_16sc_writer_policyE0EE17get_writer_policyEv
606371d4 t .text$_ZNK7sc_core9sc_signalIN5sc_dt7sc_uintILi32EEELNS_16sc_writer_policyE0EE19value_changed_eventEv
606371d4 T __ZNK7sc_core9sc_signalIN5sc_dt7sc_uintILi32EEELNS_16sc_writer_policyE0EE19value_changed_eventEv
60637328 t .text$_ZNK7sc_core9sc_signalIN5sc_dt7sc_uintILi32EEELNS_16sc_writer_policyE0EE4dumpERSo
60637328 T __ZNK7sc_core9sc_signalIN5sc_dt7sc_uintILi32EEELNS_16sc_writer_policyE0EE4dumpERSo
606373e8 t .text$_ZNK7sc_core9sc_signalIN5sc_dt7sc_uintILi32EEELNS_16sc_writer_policyE0EE4kindEv
606373e8 T __ZNK7sc_core9sc_signalIN5sc_dt7sc_uintILi32EEELNS_16sc_writer_policyE0EE4kindEv
606373f4 t .text$_ZNK7sc_core9sc_signalIN5sc_dt7sc_uintILi32EEELNS_16sc_writer_policyE0EE4readEv
606373f4 T __ZNK7sc_core9sc_signalIN5sc_dt7sc_uintILi32EEELNS_16sc_writer_policyE0EE4readEv
60637400 t .text$_ZNK7sc_core9sc_signalIN5sc_dt7sc_uintILi32EEELNS_16sc_writer_policyE0EE5eventEv
60637400 T __ZNK7sc_core9sc_signalIN5sc_dt7sc_uintILi32EEELNS_16sc_writer_policyE0EE5eventEv
60637460 t .text$_ZNK7sc_core9sc_signalIN5sc_dt7sc_uintILi32EEELNS_16sc_writer_policyE0EE5printERSo
60637460 T __ZNK7sc_core9sc_signalIN5sc_dt7sc_uintILi32EEELNS_16sc_writer_policyE0EE5printERSo
60637480 t .text$_ZNK7sc_core9sc_signalIN5sc_dt7sc_uintILi32EEELNS_16sc_writer_policyE0EE5traceEPNS_13sc_trace_fileE
60637480 T __ZNK7sc_core9sc_signalIN5sc_dt7sc_uintILi32EEELNS_16sc_writer_policyE0EE5traceEPNS_13sc_trace_fileE
60637490 t .text$_ZNK7sc_core9sc_signalIN5sc_dt8sc_logicELNS_16sc_writer_policyE0EE12get_data_refEv
60637490 T __ZNK7sc_core9sc_signalIN5sc_dt8sc_logicELNS_16sc_writer_policyE0EE12get_data_refEv
606374a4 t .text$_ZNK7sc_core9sc_signalIN5sc_dt8sc_logicELNS_16sc_writer_policyE0EE13default_eventEv
606374a4 T __ZNK7sc_core9sc_signalIN5sc_dt8sc_logicELNS_16sc_writer_policyE0EE13default_eventEv
606374c4 t .text$_ZNK7sc_core9sc_signalIN5sc_dt8sc_logicELNS_16sc_writer_policyE0EE13get_new_valueEv
606374c4 T __ZNK7sc_core9sc_signalIN5sc_dt8sc_logicELNS_16sc_writer_policyE0EE13get_new_valueEv
606374dc t .text$_ZNK7sc_core9sc_signalIN5sc_dt8sc_logicELNS_16sc_writer_policyE0EE13negedge_eventEv
606374dc T __ZNK7sc_core9sc_signalIN5sc_dt8sc_logicELNS_16sc_writer_policyE0EE13negedge_eventEv
606374f8 t .text$_ZNK7sc_core9sc_signalIN5sc_dt8sc_logicELNS_16sc_writer_policyE0EE13posedge_eventEv
606374f8 T __ZNK7sc_core9sc_signalIN5sc_dt8sc_logicELNS_16sc_writer_policyE0EE13posedge_eventEv
60637514 t .text$_ZNK7sc_core9sc_signalIN5sc_dt8sc_logicELNS_16sc_writer_policyE0EE17get_writer_policyEv
60637514 T __ZNK7sc_core9sc_signalIN5sc_dt8sc_logicELNS_16sc_writer_policyE0EE17get_writer_policyEv
60637520 t .text$_ZNK7sc_core9sc_signalIN5sc_dt8sc_logicELNS_16sc_writer_policyE0EE19value_changed_eventEv
60637520 T __ZNK7sc_core9sc_signalIN5sc_dt8sc_logicELNS_16sc_writer_policyE0EE19value_changed_eventEv
6063753c t .text$_ZNK7sc_core9sc_signalIN5sc_dt8sc_logicELNS_16sc_writer_policyE0EE4dumpERSo
6063753c T __ZNK7sc_core9sc_signalIN5sc_dt8sc_logicELNS_16sc_writer_policyE0EE4dumpERSo
6063762c t .text$_ZNK7sc_core9sc_signalIN5sc_dt8sc_logicELNS_16sc_writer_policyE0EE4kindEv
6063762c T __ZNK7sc_core9sc_signalIN5sc_dt8sc_logicELNS_16sc_writer_policyE0EE4kindEv
60637638 t .text$_ZNK7sc_core9sc_signalIN5sc_dt8sc_logicELNS_16sc_writer_policyE0EE4readEv
60637638 T __ZNK7sc_core9sc_signalIN5sc_dt8sc_logicELNS_16sc_writer_policyE0EE4readEv
60637644 t .text$_ZNK7sc_core9sc_signalIN5sc_dt8sc_logicELNS_16sc_writer_policyE0EE5eventEv
60637644 T __ZNK7sc_core9sc_signalIN5sc_dt8sc_logicELNS_16sc_writer_policyE0EE5eventEv
606376a4 t .text$_ZNK7sc_core9sc_signalIN5sc_dt8sc_logicELNS_16sc_writer_policyE0EE5printERSo
606376a4 T __ZNK7sc_core9sc_signalIN5sc_dt8sc_logicELNS_16sc_writer_policyE0EE5printERSo
606376d0 t .text$_ZNK7sc_core9sc_signalIN5sc_dt8sc_logicELNS_16sc_writer_policyE0EE5traceEPNS_13sc_trace_fileE
606376d0 T __ZNK7sc_core9sc_signalIN5sc_dt8sc_logicELNS_16sc_writer_policyE0EE5traceEPNS_13sc_trace_fileE
606376e0 t .text$_ZNK7sc_core9sc_signalIN5sc_dt8sc_logicELNS_16sc_writer_policyE0EE7negedgeEv
606376e0 T __ZNK7sc_core9sc_signalIN5sc_dt8sc_logicELNS_16sc_writer_policyE0EE7negedgeEv
60637730 t .text$_ZNK7sc_core9sc_signalIN5sc_dt8sc_logicELNS_16sc_writer_policyE0EE7posedgeEv
60637730 T __ZNK7sc_core9sc_signalIN5sc_dt8sc_logicELNS_16sc_writer_policyE0EE7posedgeEv
60637780 t .text$_ZNK7sc_core9sc_signalIN5sc_dt8sc_logicELNS_16sc_writer_policyE0EEcvRKS2_Ev
60637780 T __ZNK7sc_core9sc_signalIN5sc_dt8sc_logicELNS_16sc_writer_policyE0EEcvRKS2_Ev
60637794 t .text$_ZNK7sc_core9sc_signalIN5sc_dt8sc_logicELNS_16sc_writer_policyE1EE12get_data_refEv
60637794 T __ZNK7sc_core9sc_signalIN5sc_dt8sc_logicELNS_16sc_writer_policyE1EE12get_data_refEv
606377a8 t .text$_ZNK7sc_core9sc_signalIN5sc_dt8sc_logicELNS_16sc_writer_policyE1EE13default_eventEv
606377a8 T __ZNK7sc_core9sc_signalIN5sc_dt8sc_logicELNS_16sc_writer_policyE1EE13default_eventEv
606377c8 t .text$_ZNK7sc_core9sc_signalIN5sc_dt8sc_logicELNS_16sc_writer_policyE1EE13get_new_valueEv
606377c8 T __ZNK7sc_core9sc_signalIN5sc_dt8sc_logicELNS_16sc_writer_policyE1EE13get_new_valueEv
606377dc t .text$_ZNK7sc_core9sc_signalIN5sc_dt8sc_logicELNS_16sc_writer_policyE1EE13negedge_eventEv
606377dc T __ZNK7sc_core9sc_signalIN5sc_dt8sc_logicELNS_16sc_writer_policyE1EE13negedge_eventEv
606377f8 t .text$_ZNK7sc_core9sc_signalIN5sc_dt8sc_logicELNS_16sc_writer_policyE1EE13posedge_eventEv
606377f8 T __ZNK7sc_core9sc_signalIN5sc_dt8sc_logicELNS_16sc_writer_policyE1EE13posedge_eventEv
60637814 t .text$_ZNK7sc_core9sc_signalIN5sc_dt8sc_logicELNS_16sc_writer_policyE1EE17get_writer_policyEv
60637814 T __ZNK7sc_core9sc_signalIN5sc_dt8sc_logicELNS_16sc_writer_policyE1EE17get_writer_policyEv
60637820 t .text$_ZNK7sc_core9sc_signalIN5sc_dt8sc_logicELNS_16sc_writer_policyE1EE19value_changed_eventEv
60637820 T __ZNK7sc_core9sc_signalIN5sc_dt8sc_logicELNS_16sc_writer_policyE1EE19value_changed_eventEv
6063783c t .text$_ZNK7sc_core9sc_signalIN5sc_dt8sc_logicELNS_16sc_writer_policyE1EE4dumpERSo
6063783c T __ZNK7sc_core9sc_signalIN5sc_dt8sc_logicELNS_16sc_writer_policyE1EE4dumpERSo
6063792c t .text$_ZNK7sc_core9sc_signalIN5sc_dt8sc_logicELNS_16sc_writer_policyE1EE4kindEv
6063792c T __ZNK7sc_core9sc_signalIN5sc_dt8sc_logicELNS_16sc_writer_policyE1EE4kindEv
60637938 t .text$_ZNK7sc_core9sc_signalIN5sc_dt8sc_logicELNS_16sc_writer_policyE1EE4readEv
60637938 T __ZNK7sc_core9sc_signalIN5sc_dt8sc_logicELNS_16sc_writer_policyE1EE4readEv
60637944 t .text$_ZNK7sc_core9sc_signalIN5sc_dt8sc_logicELNS_16sc_writer_policyE1EE5eventEv
60637944 T __ZNK7sc_core9sc_signalIN5sc_dt8sc_logicELNS_16sc_writer_policyE1EE5eventEv
606379a4 t .text$_ZNK7sc_core9sc_signalIN5sc_dt8sc_logicELNS_16sc_writer_policyE1EE5printERSo
606379a4 T __ZNK7sc_core9sc_signalIN5sc_dt8sc_logicELNS_16sc_writer_policyE1EE5printERSo
606379d0 t .text$_ZNK7sc_core9sc_signalIN5sc_dt8sc_logicELNS_16sc_writer_policyE1EE5traceEPNS_13sc_trace_fileE
606379d0 T __ZNK7sc_core9sc_signalIN5sc_dt8sc_logicELNS_16sc_writer_policyE1EE5traceEPNS_13sc_trace_fileE
606379e0 t .text$_ZNK7sc_core9sc_signalIN5sc_dt8sc_logicELNS_16sc_writer_policyE1EE7negedgeEv
606379e0 T __ZNK7sc_core9sc_signalIN5sc_dt8sc_logicELNS_16sc_writer_policyE1EE7negedgeEv
60637a30 t .text$_ZNK7sc_core9sc_signalIN5sc_dt8sc_logicELNS_16sc_writer_policyE1EE7posedgeEv
60637a30 T __ZNK7sc_core9sc_signalIN5sc_dt8sc_logicELNS_16sc_writer_policyE1EE7posedgeEv
60637a80 t .text$_ZNK7sc_core9sc_signalIN5sc_dt8sc_logicELNS_16sc_writer_policyE1EEcvRKS2_Ev
60637a80 T __ZNK7sc_core9sc_signalIN5sc_dt8sc_logicELNS_16sc_writer_policyE1EEcvRKS2_Ev
60637a94 t .text$_ZNK7sc_core9sc_signalIN5sc_dt8sc_logicELNS_16sc_writer_policyE3EE12get_data_refEv
60637a94 T __ZNK7sc_core9sc_signalIN5sc_dt8sc_logicELNS_16sc_writer_policyE3EE12get_data_refEv
60637aa8 t .text$_ZNK7sc_core9sc_signalIN5sc_dt8sc_logicELNS_16sc_writer_policyE3EE13default_eventEv
60637aa8 T __ZNK7sc_core9sc_signalIN5sc_dt8sc_logicELNS_16sc_writer_policyE3EE13default_eventEv
60637ab8 t .text$_ZNK7sc_core9sc_signalIN5sc_dt8sc_logicELNS_16sc_writer_policyE3EE13get_new_valueEv
60637ab8 T __ZNK7sc_core9sc_signalIN5sc_dt8sc_logicELNS_16sc_writer_policyE3EE13get_new_valueEv
60637acc t .text$_ZNK7sc_core9sc_signalIN5sc_dt8sc_logicELNS_16sc_writer_policyE3EE13negedge_eventEv
60637acc T __ZNK7sc_core9sc_signalIN5sc_dt8sc_logicELNS_16sc_writer_policyE3EE13negedge_eventEv
60637ae8 t .text$_ZNK7sc_core9sc_signalIN5sc_dt8sc_logicELNS_16sc_writer_policyE3EE13posedge_eventEv
60637ae8 T __ZNK7sc_core9sc_signalIN5sc_dt8sc_logicELNS_16sc_writer_policyE3EE13posedge_eventEv
60637b04 t .text$_ZNK7sc_core9sc_signalIN5sc_dt8sc_logicELNS_16sc_writer_policyE3EE17get_writer_policyEv
60637b04 T __ZNK7sc_core9sc_signalIN5sc_dt8sc_logicELNS_16sc_writer_policyE3EE17get_writer_policyEv
60637b10 t .text$_ZNK7sc_core9sc_signalIN5sc_dt8sc_logicELNS_16sc_writer_policyE3EE19value_changed_eventEv
60637b10 T __ZNK7sc_core9sc_signalIN5sc_dt8sc_logicELNS_16sc_writer_policyE3EE19value_changed_eventEv
60637b2c t .text$_ZNK7sc_core9sc_signalIN5sc_dt8sc_logicELNS_16sc_writer_policyE3EE4dumpERSo
60637b2c T __ZNK7sc_core9sc_signalIN5sc_dt8sc_logicELNS_16sc_writer_policyE3EE4dumpERSo
60637c18 t .text$_ZNK7sc_core9sc_signalIN5sc_dt8sc_logicELNS_16sc_writer_policyE3EE4kindEv
60637c18 T __ZNK7sc_core9sc_signalIN5sc_dt8sc_logicELNS_16sc_writer_policyE3EE4kindEv
60637c24 t .text$_ZNK7sc_core9sc_signalIN5sc_dt8sc_logicELNS_16sc_writer_policyE3EE4readEv
60637c24 T __ZNK7sc_core9sc_signalIN5sc_dt8sc_logicELNS_16sc_writer_policyE3EE4readEv
60637c30 t .text$_ZNK7sc_core9sc_signalIN5sc_dt8sc_logicELNS_16sc_writer_policyE3EE5eventEv
60637c30 T __ZNK7sc_core9sc_signalIN5sc_dt8sc_logicELNS_16sc_writer_policyE3EE5eventEv
60637c68 t .text$_ZNK7sc_core9sc_signalIN5sc_dt8sc_logicELNS_16sc_writer_policyE3EE5printERSo
60637c68 T __ZNK7sc_core9sc_signalIN5sc_dt8sc_logicELNS_16sc_writer_policyE3EE5printERSo
60637c94 t .text$_ZNK7sc_core9sc_signalIN5sc_dt8sc_logicELNS_16sc_writer_policyE3EE5traceEPNS_13sc_trace_fileE
60637c94 T __ZNK7sc_core9sc_signalIN5sc_dt8sc_logicELNS_16sc_writer_policyE3EE5traceEPNS_13sc_trace_fileE
60637ca0 t .text$_ZNK7sc_core9sc_signalIN5sc_dt8sc_logicELNS_16sc_writer_policyE3EE7negedgeEv
60637ca0 T __ZNK7sc_core9sc_signalIN5sc_dt8sc_logicELNS_16sc_writer_policyE3EE7negedgeEv
60637cd8 t .text$_ZNK7sc_core9sc_signalIN5sc_dt8sc_logicELNS_16sc_writer_policyE3EE7posedgeEv
60637cd8 T __ZNK7sc_core9sc_signalIN5sc_dt8sc_logicELNS_16sc_writer_policyE3EE7posedgeEv
60637d10 t .text$_ZNK7sc_core9sc_signalIN5sc_dt8sc_logicELNS_16sc_writer_policyE3EEcvRKS2_Ev
60637d10 T __ZNK7sc_core9sc_signalIN5sc_dt8sc_logicELNS_16sc_writer_policyE3EEcvRKS2_Ev
60637d24 t .text$_ZNK7sc_core9sc_signalIbLNS_16sc_writer_policyE0EE12get_data_refEv
60637d24 T __ZNK7sc_core9sc_signalIbLNS_16sc_writer_policyE0EE12get_data_refEv
60637d38 t .text$_ZNK7sc_core9sc_signalIbLNS_16sc_writer_policyE0EE13default_eventEv
60637d38 T __ZNK7sc_core9sc_signalIbLNS_16sc_writer_policyE0EE13default_eventEv
60637d58 t .text$_ZNK7sc_core9sc_signalIbLNS_16sc_writer_policyE0EE13get_new_valueEv
60637d58 T __ZNK7sc_core9sc_signalIbLNS_16sc_writer_policyE0EE13get_new_valueEv
60637d6c t .text$_ZNK7sc_core9sc_signalIbLNS_16sc_writer_policyE0EE13negedge_eventEv
60637d6c T __ZNK7sc_core9sc_signalIbLNS_16sc_writer_policyE0EE13negedge_eventEv
60637d88 t .text$_ZNK7sc_core9sc_signalIbLNS_16sc_writer_policyE0EE13posedge_eventEv
60637d88 T __ZNK7sc_core9sc_signalIbLNS_16sc_writer_policyE0EE13posedge_eventEv
60637da4 t .text$_ZNK7sc_core9sc_signalIbLNS_16sc_writer_policyE0EE17get_writer_policyEv
60637da4 T __ZNK7sc_core9sc_signalIbLNS_16sc_writer_policyE0EE17get_writer_policyEv
60637db0 t .text$_ZNK7sc_core9sc_signalIbLNS_16sc_writer_policyE0EE19value_changed_eventEv
60637db0 T __ZNK7sc_core9sc_signalIbLNS_16sc_writer_policyE0EE19value_changed_eventEv
60637dcc t .text$_ZNK7sc_core9sc_signalIbLNS_16sc_writer_policyE0EE4dumpERSo
60637dcc T __ZNK7sc_core9sc_signalIbLNS_16sc_writer_policyE0EE4dumpERSo
60637e98 t .text$_ZNK7sc_core9sc_signalIbLNS_16sc_writer_policyE0EE4kindEv
60637e98 T __ZNK7sc_core9sc_signalIbLNS_16sc_writer_policyE0EE4kindEv
60637ea4 t .text$_ZNK7sc_core9sc_signalIbLNS_16sc_writer_policyE0EE4readEv
60637ea4 T __ZNK7sc_core9sc_signalIbLNS_16sc_writer_policyE0EE4readEv
60637eb0 t .text$_ZNK7sc_core9sc_signalIbLNS_16sc_writer_policyE0EE5eventEv
60637eb0 T __ZNK7sc_core9sc_signalIbLNS_16sc_writer_policyE0EE5eventEv
60637f10 t .text$_ZNK7sc_core9sc_signalIbLNS_16sc_writer_policyE0EE5printERSo
60637f10 T __ZNK7sc_core9sc_signalIbLNS_16sc_writer_policyE0EE5printERSo
60637f2c t .text$_ZNK7sc_core9sc_signalIbLNS_16sc_writer_policyE0EE5traceEPNS_13sc_trace_fileE
60637f2c T __ZNK7sc_core9sc_signalIbLNS_16sc_writer_policyE0EE5traceEPNS_13sc_trace_fileE
60637f3c t .text$_ZNK7sc_core9sc_signalIbLNS_16sc_writer_policyE0EE7negedgeEv
60637f3c T __ZNK7sc_core9sc_signalIbLNS_16sc_writer_policyE0EE7negedgeEv
60637f80 t .text$_ZNK7sc_core9sc_signalIbLNS_16sc_writer_policyE0EE7posedgeEv
60637f80 T __ZNK7sc_core9sc_signalIbLNS_16sc_writer_policyE0EE7posedgeEv
60637fc4 t .text$_ZNK7sc_core9sc_signalIbLNS_16sc_writer_policyE0EE8is_clockEv
60637fc4 T __ZNK7sc_core9sc_signalIbLNS_16sc_writer_policyE0EE8is_clockEv
60637fd4 t .text$_ZNK7sc_core9sc_signalIbLNS_16sc_writer_policyE0EE8is_resetEv
60637fd4 T __ZNK7sc_core9sc_signalIbLNS_16sc_writer_policyE0EE8is_resetEv
60638028 t .text$_ZNK7sc_core9sc_signalIbLNS_16sc_writer_policyE0EEcvRKbEv
60638028 T __ZNK7sc_core9sc_signalIbLNS_16sc_writer_policyE0EEcvRKbEv
6063803c t .text$_ZNK7sc_core9sc_signalIbLNS_16sc_writer_policyE1EE12get_data_refEv
6063803c T __ZNK7sc_core9sc_signalIbLNS_16sc_writer_policyE1EE12get_data_refEv
60638050 t .text$_ZNK7sc_core9sc_signalIbLNS_16sc_writer_policyE1EE13default_eventEv
60638050 T __ZNK7sc_core9sc_signalIbLNS_16sc_writer_policyE1EE13default_eventEv
60638060 t .text$_ZNK7sc_core9sc_signalIbLNS_16sc_writer_policyE1EE13get_new_valueEv
60638060 T __ZNK7sc_core9sc_signalIbLNS_16sc_writer_policyE1EE13get_new_valueEv
60638074 t .text$_ZNK7sc_core9sc_signalIbLNS_16sc_writer_policyE1EE13negedge_eventEv
60638074 T __ZNK7sc_core9sc_signalIbLNS_16sc_writer_policyE1EE13negedge_eventEv
60638090 t .text$_ZNK7sc_core9sc_signalIbLNS_16sc_writer_policyE1EE13posedge_eventEv
60638090 T __ZNK7sc_core9sc_signalIbLNS_16sc_writer_policyE1EE13posedge_eventEv
606380ac t .text$_ZNK7sc_core9sc_signalIbLNS_16sc_writer_policyE1EE17get_writer_policyEv
606380ac T __ZNK7sc_core9sc_signalIbLNS_16sc_writer_policyE1EE17get_writer_policyEv
606380b8 t .text$_ZNK7sc_core9sc_signalIbLNS_16sc_writer_policyE1EE19value_changed_eventEv
606380b8 T __ZNK7sc_core9sc_signalIbLNS_16sc_writer_policyE1EE19value_changed_eventEv
606380d4 t .text$_ZNK7sc_core9sc_signalIbLNS_16sc_writer_policyE1EE4dumpERSo
606380d4 T __ZNK7sc_core9sc_signalIbLNS_16sc_writer_policyE1EE4dumpERSo
606381a0 t .text$_ZNK7sc_core9sc_signalIbLNS_16sc_writer_policyE1EE4kindEv
606381a0 T __ZNK7sc_core9sc_signalIbLNS_16sc_writer_policyE1EE4kindEv
606381ac t .text$_ZNK7sc_core9sc_signalIbLNS_16sc_writer_policyE1EE4readEv
606381ac T __ZNK7sc_core9sc_signalIbLNS_16sc_writer_policyE1EE4readEv
606381b8 t .text$_ZNK7sc_core9sc_signalIbLNS_16sc_writer_policyE1EE5eventEv
606381b8 T __ZNK7sc_core9sc_signalIbLNS_16sc_writer_policyE1EE5eventEv
606381f0 t .text$_ZNK7sc_core9sc_signalIbLNS_16sc_writer_policyE1EE5printERSo
606381f0 T __ZNK7sc_core9sc_signalIbLNS_16sc_writer_policyE1EE5printERSo
6063820c t .text$_ZNK7sc_core9sc_signalIbLNS_16sc_writer_policyE1EE5traceEPNS_13sc_trace_fileE
6063820c T __ZNK7sc_core9sc_signalIbLNS_16sc_writer_policyE1EE5traceEPNS_13sc_trace_fileE
60638218 t .text$_ZNK7sc_core9sc_signalIbLNS_16sc_writer_policyE1EE7negedgeEv
60638218 T __ZNK7sc_core9sc_signalIbLNS_16sc_writer_policyE1EE7negedgeEv
60638248 t .text$_ZNK7sc_core9sc_signalIbLNS_16sc_writer_policyE1EE7posedgeEv
60638248 T __ZNK7sc_core9sc_signalIbLNS_16sc_writer_policyE1EE7posedgeEv
60638278 t .text$_ZNK7sc_core9sc_signalIbLNS_16sc_writer_policyE1EE8is_clockEv
60638278 T __ZNK7sc_core9sc_signalIbLNS_16sc_writer_policyE1EE8is_clockEv
60638288 t .text$_ZNK7sc_core9sc_signalIbLNS_16sc_writer_policyE1EE8is_resetEv
60638288 T __ZNK7sc_core9sc_signalIbLNS_16sc_writer_policyE1EE8is_resetEv
606382d4 t .text$_ZNK7sc_core9sc_signalIbLNS_16sc_writer_policyE1EEcvRKbEv
606382d4 T __ZNK7sc_core9sc_signalIbLNS_16sc_writer_policyE1EEcvRKbEv
606382e8 t .text$_ZNK7sc_core9sc_signalIbLNS_16sc_writer_policyE3EE12get_data_refEv
606382e8 T __ZNK7sc_core9sc_signalIbLNS_16sc_writer_policyE3EE12get_data_refEv
606382fc t .text$_ZNK7sc_core9sc_signalIbLNS_16sc_writer_policyE3EE13default_eventEv
606382fc T __ZNK7sc_core9sc_signalIbLNS_16sc_writer_policyE3EE13default_eventEv
6063830c t .text$_ZNK7sc_core9sc_signalIbLNS_16sc_writer_policyE3EE13get_new_valueEv
6063830c T __ZNK7sc_core9sc_signalIbLNS_16sc_writer_policyE3EE13get_new_valueEv
60638320 t .text$_ZNK7sc_core9sc_signalIbLNS_16sc_writer_policyE3EE13negedge_eventEv
60638320 T __ZNK7sc_core9sc_signalIbLNS_16sc_writer_policyE3EE13negedge_eventEv
6063833c t .text$_ZNK7sc_core9sc_signalIbLNS_16sc_writer_policyE3EE13posedge_eventEv
6063833c T __ZNK7sc_core9sc_signalIbLNS_16sc_writer_policyE3EE13posedge_eventEv
60638358 t .text$_ZNK7sc_core9sc_signalIbLNS_16sc_writer_policyE3EE17get_writer_policyEv
60638358 T __ZNK7sc_core9sc_signalIbLNS_16sc_writer_policyE3EE17get_writer_policyEv
60638364 t .text$_ZNK7sc_core9sc_signalIbLNS_16sc_writer_policyE3EE19value_changed_eventEv
60638364 T __ZNK7sc_core9sc_signalIbLNS_16sc_writer_policyE3EE19value_changed_eventEv
60638380 t .text$_ZNK7sc_core9sc_signalIbLNS_16sc_writer_policyE3EE4dumpERSo
60638380 T __ZNK7sc_core9sc_signalIbLNS_16sc_writer_policyE3EE4dumpERSo
6063844c t .text$_ZNK7sc_core9sc_signalIbLNS_16sc_writer_policyE3EE4kindEv
6063844c T __ZNK7sc_core9sc_signalIbLNS_16sc_writer_policyE3EE4kindEv
60638458 t .text$_ZNK7sc_core9sc_signalIbLNS_16sc_writer_policyE3EE4readEv
60638458 T __ZNK7sc_core9sc_signalIbLNS_16sc_writer_policyE3EE4readEv
60638464 t .text$_ZNK7sc_core9sc_signalIbLNS_16sc_writer_policyE3EE5eventEv
60638464 T __ZNK7sc_core9sc_signalIbLNS_16sc_writer_policyE3EE5eventEv
60638494 t .text$_ZNK7sc_core9sc_signalIbLNS_16sc_writer_policyE3EE5printERSo
60638494 T __ZNK7sc_core9sc_signalIbLNS_16sc_writer_policyE3EE5printERSo
606384b0 t .text$_ZNK7sc_core9sc_signalIbLNS_16sc_writer_policyE3EE5traceEPNS_13sc_trace_fileE
606384b0 T __ZNK7sc_core9sc_signalIbLNS_16sc_writer_policyE3EE5traceEPNS_13sc_trace_fileE
606384bc t .text$_ZNK7sc_core9sc_signalIbLNS_16sc_writer_policyE3EE7negedgeEv
606384bc T __ZNK7sc_core9sc_signalIbLNS_16sc_writer_policyE3EE7negedgeEv
606384ec t .text$_ZNK7sc_core9sc_signalIbLNS_16sc_writer_policyE3EE7posedgeEv
606384ec T __ZNK7sc_core9sc_signalIbLNS_16sc_writer_policyE3EE7posedgeEv
6063851c t .text$_ZNK7sc_core9sc_signalIbLNS_16sc_writer_policyE3EE8is_clockEv
6063851c T __ZNK7sc_core9sc_signalIbLNS_16sc_writer_policyE3EE8is_clockEv
6063852c t .text$_ZNK7sc_core9sc_signalIbLNS_16sc_writer_policyE3EE8is_resetEv
6063852c T __ZNK7sc_core9sc_signalIbLNS_16sc_writer_policyE3EE8is_resetEv
60638578 t .text$_ZNK7sc_core9sc_signalIbLNS_16sc_writer_policyE3EEcvRKbEv
60638578 T __ZNK7sc_core9sc_signalIbLNS_16sc_writer_policyE3EEcvRKbEv
6063858c t .text$_ZNK8ptrarrayIPKN7sc_core8sc_eventEEixEi
6063858c T __ZNK8ptrarrayIPKN7sc_core8sc_eventEEixEi
606385a8 t .text$_ZNK8ptrarrayIPN7sc_core12sc_interfaceEEixEi
606385a8 T __ZNK8ptrarrayIPN7sc_core12sc_interfaceEEixEi
606385c4 t .text$_ZNK8ptrarrayIPN7sc_core12sc_port_baseEEixEi
606385c4 T __ZNK8ptrarrayIPN7sc_core12sc_port_baseEEixEi
606385e0 t .text$_ZNK8ptrarrayIPN7sc_core14sc_export_baseEEixEi
606385e0 T __ZNK8ptrarrayIPN7sc_core14sc_export_baseEEixEi
606385fc t .text$_ZNK8ptrarrayIPN7sc_core15sc_event_finderEEixEi
606385fc T __ZNK8ptrarrayIPN7sc_core15sc_event_finderEEixEi
60638618 t .text$_ZNK8ptrarrayIPN7sc_core15sc_prim_channelEEixEi
60638618 T __ZNK8ptrarrayIPN7sc_core15sc_prim_channelEEixEi
60638634 t .text$_ZNK8ptrarrayIPN7sc_core15sc_signal_in_ifIN5sc_dt7sc_uintILi2EEEEEE4sizeEv
60638634 T __ZNK8ptrarrayIPN7sc_core15sc_signal_in_ifIN5sc_dt7sc_uintILi2EEEEEE4sizeEv
60638640 t .text$_ZNK8ptrarrayIPN7sc_core15sc_signal_in_ifIN5sc_dt7sc_uintILi2EEEEEEixEi
60638640 T __ZNK8ptrarrayIPN7sc_core15sc_signal_in_ifIN5sc_dt7sc_uintILi2EEEEEEixEi
60638674 t .text$_ZNK8ptrarrayIPN7sc_core15sc_signal_in_ifIN5sc_dt7sc_uintILi32EEEEEE4sizeEv
60638674 T __ZNK8ptrarrayIPN7sc_core15sc_signal_in_ifIN5sc_dt7sc_uintILi32EEEEEE4sizeEv
60638680 t .text$_ZNK8ptrarrayIPN7sc_core15sc_signal_in_ifIN5sc_dt7sc_uintILi32EEEEEEixEi
60638680 T __ZNK8ptrarrayIPN7sc_core15sc_signal_in_ifIN5sc_dt7sc_uintILi32EEEEEEixEi
606386b4 t .text$_ZNK8ptrarrayIPN7sc_core15sc_signal_in_ifIN5sc_dt8sc_logicEEEE4sizeEv
606386b4 T __ZNK8ptrarrayIPN7sc_core15sc_signal_in_ifIN5sc_dt8sc_logicEEEE4sizeEv
606386c0 t .text$_ZNK8ptrarrayIPN7sc_core15sc_signal_in_ifIN5sc_dt8sc_logicEEEEixEi
606386c0 T __ZNK8ptrarrayIPN7sc_core15sc_signal_in_ifIN5sc_dt8sc_logicEEEEixEi
606386f4 t .text$_ZNK8ptrarrayIPN7sc_core15sc_signal_in_ifIbEEE4sizeEv
606386f4 T __ZNK8ptrarrayIPN7sc_core15sc_signal_in_ifIbEEE4sizeEv
60638700 t .text$_ZNK8ptrarrayIPN7sc_core15sc_signal_in_ifIbEEEixEi
60638700 T __ZNK8ptrarrayIPN7sc_core15sc_signal_in_ifIbEEEixEi
60638734 t .text$_ZNK8ptrarrayIPN7sc_core15sc_trace_paramsEE4sizeEv
60638734 T __ZNK8ptrarrayIPN7sc_core15sc_trace_paramsEE4sizeEv
60638740 t .text$_ZNK8ptrarrayIPN7sc_core17sc_method_processEE10get_rawptrEv
60638740 T __ZNK8ptrarrayIPN7sc_core17sc_method_processEE10get_rawptrEv
6063874c t .text$_ZNK8ptrarrayIPN7sc_core17sc_thread_processEE10get_rawptrEv
6063874c T __ZNK8ptrarrayIPN7sc_core17sc_thread_processEE10get_rawptrEv
60638758 t .text$_ZNK8ptrarrayIPN7sc_core18sc_signal_inout_ifIN5sc_dt7sc_uintILi32EEEEEE4sizeEv
60638758 T __ZNK8ptrarrayIPN7sc_core18sc_signal_inout_ifIN5sc_dt7sc_uintILi32EEEEEE4sizeEv
60638764 t .text$_ZNK8ptrarrayIPN7sc_core18sc_signal_inout_ifIN5sc_dt7sc_uintILi32EEEEEEixEi
60638764 T __ZNK8ptrarrayIPN7sc_core18sc_signal_inout_ifIN5sc_dt7sc_uintILi32EEEEEEixEi
60638798 t .text$_ZNK8ptrarrayIPN7sc_core18sc_signal_inout_ifIN5sc_dt8sc_logicEEEEixEi
60638798 T __ZNK8ptrarrayIPN7sc_core18sc_signal_inout_ifIN5sc_dt8sc_logicEEEEixEi
606387b4 t .text$_ZNK8ptrarrayIPN7sc_core18sc_signal_inout_ifIbEEEixEi
606387b4 T __ZNK8ptrarrayIPN7sc_core18sc_signal_inout_ifIbEEEixEi
606387d0 t .text$_ZNK8ptrarrayIPN7sc_core19sc_spawn_reset_baseEEixEi
606387d0 T __ZNK8ptrarrayIPN7sc_core19sc_spawn_reset_baseEEixEi
606387ec t .text$_ZNK8ptrarrayIPN7sc_core8sc_eventEE10get_rawptrEv
606387ec T __ZNK8ptrarrayIPN7sc_core8sc_eventEE10get_rawptrEv
606387f8 t .text$_ZNK8ptrarrayIPN7sc_core9sc_moduleEEixEi
606387f8 T __ZNK8ptrarrayIPN7sc_core9sc_moduleEEixEi
60638814 t .text$_ZNK9__gnu_cxx24__concurrence_lock_error4whatEv
60638814 T __ZNK9__gnu_cxx24__concurrence_lock_error4whatEv
60638820 t .text$_ZNK9__gnu_cxx26__concurrence_unlock_error4whatEv
60638820 T __ZNK9__gnu_cxx26__concurrence_unlock_error4whatEv
6063882c t .text$_ZNKSbIwSt11char_traitsIwESaIwEE11_M_disjunctEPKw
6063882c T __ZNKSbIwSt11char_traitsIwESaIwEE11_M_disjunctEPKw
60638854 t .text$_ZNKSbIwSt11char_traitsIwESaIwEE12find_last_ofEPKwj
60638854 T __ZNKSbIwSt11char_traitsIwESaIwEE12find_last_ofEPKwj
60638878 t .text$_ZNKSbIwSt11char_traitsIwESaIwEE12find_last_ofEPKwjj
60638878 T __ZNKSbIwSt11char_traitsIwESaIwEE12find_last_ofEPKwjj
606388e8 t .text$_ZNKSbIwSt11char_traitsIwESaIwEE12find_last_ofERKS2_j
606388e8 T __ZNKSbIwSt11char_traitsIwESaIwEE12find_last_ofERKS2_j
60638904 t .text$_ZNKSbIwSt11char_traitsIwESaIwEE12find_last_ofEwj
60638904 T __ZNKSbIwSt11char_traitsIwESaIwEE12find_last_ofEwj
60638914 t .text$_ZNKSbIwSt11char_traitsIwESaIwEE13find_first_ofEPKwj
60638914 T __ZNKSbIwSt11char_traitsIwESaIwEE13find_first_ofEPKwj
60638938 t .text$_ZNKSbIwSt11char_traitsIwESaIwEE13find_first_ofEPKwjj
60638938 T __ZNKSbIwSt11char_traitsIwESaIwEE13find_first_ofEPKwjj
6063899c t .text$_ZNKSbIwSt11char_traitsIwESaIwEE13find_first_ofERKS2_j
6063899c T __ZNKSbIwSt11char_traitsIwESaIwEE13find_first_ofERKS2_j
606389b8 t .text$_ZNKSbIwSt11char_traitsIwESaIwEE13find_first_ofEwj
606389b8 T __ZNKSbIwSt11char_traitsIwESaIwEE13find_first_ofEwj
606389c8 t .text$_ZNKSbIwSt11char_traitsIwESaIwEE13get_allocatorEv
606389c8 T __ZNKSbIwSt11char_traitsIwESaIwEE13get_allocatorEv
606389d4 t .text$_ZNKSbIwSt11char_traitsIwESaIwEE15_M_check_lengthEjjPKc
606389d4 T __ZNKSbIwSt11char_traitsIwESaIwEE15_M_check_lengthEjjPKc
60638a00 t .text$_ZNKSbIwSt11char_traitsIwESaIwEE16find_last_not_ofEPKwj
60638a00 T __ZNKSbIwSt11char_traitsIwESaIwEE16find_last_not_ofEPKwj
60638a24 t .text$_ZNKSbIwSt11char_traitsIwESaIwEE16find_last_not_ofEPKwjj
60638a24 T __ZNKSbIwSt11char_traitsIwESaIwEE16find_last_not_ofEPKwjj
60638a90 t .text$_ZNKSbIwSt11char_traitsIwESaIwEE16find_last_not_ofERKS2_j
60638a90 T __ZNKSbIwSt11char_traitsIwESaIwEE16find_last_not_ofERKS2_j
60638aac t .text$_ZNKSbIwSt11char_traitsIwESaIwEE16find_last_not_ofEwj
60638aac T __ZNKSbIwSt11char_traitsIwESaIwEE16find_last_not_ofEwj
60638af0 t .text$_ZNKSbIwSt11char_traitsIwESaIwEE17find_first_not_ofEPKwj
60638af0 T __ZNKSbIwSt11char_traitsIwESaIwEE17find_first_not_ofEPKwj
60638b14 t .text$_ZNKSbIwSt11char_traitsIwESaIwEE17find_first_not_ofEPKwjj
60638b14 T __ZNKSbIwSt11char_traitsIwESaIwEE17find_first_not_ofEPKwjj
60638b74 t .text$_ZNKSbIwSt11char_traitsIwESaIwEE17find_first_not_ofERKS2_j
60638b74 T __ZNKSbIwSt11char_traitsIwESaIwEE17find_first_not_ofERKS2_j
60638b90 t .text$_ZNKSbIwSt11char_traitsIwESaIwEE17find_first_not_ofEwj
60638b90 T __ZNKSbIwSt11char_traitsIwESaIwEE17find_first_not_ofEwj
60638bd8 t .text$_ZNKSbIwSt11char_traitsIwESaIwEE2atEj
60638bd8 T __ZNKSbIwSt11char_traitsIwESaIwEE2atEj
60638c00 t .text$_ZNKSbIwSt11char_traitsIwESaIwEE3endEv
60638c00 T __ZNKSbIwSt11char_traitsIwESaIwEE3endEv
60638c10 t .text$_ZNKSbIwSt11char_traitsIwESaIwEE4_Rep12_M_is_leakedEv
60638c10 T __ZNKSbIwSt11char_traitsIwESaIwEE4_Rep12_M_is_leakedEv
60638c20 t .text$_ZNKSbIwSt11char_traitsIwESaIwEE4_Rep12_M_is_sharedEv
60638c20 T __ZNKSbIwSt11char_traitsIwESaIwEE4_Rep12_M_is_sharedEv
60638c34 t .text$_ZNKSbIwSt11char_traitsIwESaIwEE4copyEPwjj
60638c34 T __ZNKSbIwSt11char_traitsIwESaIwEE4copyEPwjj
60638c9c t .text$_ZNKSbIwSt11char_traitsIwESaIwEE4dataEv
60638c9c T __ZNKSbIwSt11char_traitsIwESaIwEE4dataEv
60638ca8 t .text$_ZNKSbIwSt11char_traitsIwESaIwEE4findEPKwj
60638ca8 T __ZNKSbIwSt11char_traitsIwESaIwEE4findEPKwj
60638ccc t .text$_ZNKSbIwSt11char_traitsIwESaIwEE4findEPKwjj
60638ccc T __ZNKSbIwSt11char_traitsIwESaIwEE4findEPKwjj
60638d50 t .text$_ZNKSbIwSt11char_traitsIwESaIwEE4findERKS2_j
60638d50 T __ZNKSbIwSt11char_traitsIwESaIwEE4findERKS2_j
60638d6c t .text$_ZNKSbIwSt11char_traitsIwESaIwEE4findEwj
60638d6c T __ZNKSbIwSt11char_traitsIwESaIwEE4findEwj
60638db4 t .text$_ZNKSbIwSt11char_traitsIwESaIwEE4rendEv
60638db4 T __ZNKSbIwSt11char_traitsIwESaIwEE4rendEv
60638dc8 t .text$_ZNKSbIwSt11char_traitsIwESaIwEE4sizeEv
60638dc8 T __ZNKSbIwSt11char_traitsIwESaIwEE4sizeEv
60638dd8 t .text$_ZNKSbIwSt11char_traitsIwESaIwEE5beginEv
60638dd8 T __ZNKSbIwSt11char_traitsIwESaIwEE5beginEv
60638de4 t .text$_ZNKSbIwSt11char_traitsIwESaIwEE5c_strEv
60638de4 T __ZNKSbIwSt11char_traitsIwESaIwEE5c_strEv
60638df0 t .text$_ZNKSbIwSt11char_traitsIwESaIwEE5emptyEv
60638df0 T __ZNKSbIwSt11char_traitsIwESaIwEE5emptyEv
60638e08 t .text$_ZNKSbIwSt11char_traitsIwESaIwEE5rfindEPKwj
60638e08 T __ZNKSbIwSt11char_traitsIwESaIwEE5rfindEPKwj
60638e2c t .text$_ZNKSbIwSt11char_traitsIwESaIwEE5rfindEPKwjj
60638e2c T __ZNKSbIwSt11char_traitsIwESaIwEE5rfindEPKwjj
60638e98 t .text$_ZNKSbIwSt11char_traitsIwESaIwEE5rfindERKS2_j
60638e98 T __ZNKSbIwSt11char_traitsIwESaIwEE5rfindERKS2_j
60638eb4 t .text$_ZNKSbIwSt11char_traitsIwESaIwEE5rfindEwj
60638eb4 T __ZNKSbIwSt11char_traitsIwESaIwEE5rfindEwj
60638f10 t .text$_ZNKSbIwSt11char_traitsIwESaIwEE6_M_repEv
60638f10 T __ZNKSbIwSt11char_traitsIwESaIwEE6_M_repEv
60638f20 t .text$_ZNKSbIwSt11char_traitsIwESaIwEE6lengthEv
60638f20 T __ZNKSbIwSt11char_traitsIwESaIwEE6lengthEv
60638f30 t .text$_ZNKSbIwSt11char_traitsIwESaIwEE6rbeginEv
60638f30 T __ZNKSbIwSt11char_traitsIwESaIwEE6rbeginEv
60638f48 t .text$_ZNKSbIwSt11char_traitsIwESaIwEE6substrEjj
60638f48 T __ZNKSbIwSt11char_traitsIwESaIwEE6substrEjj
60638f80 t .text$_ZNKSbIwSt11char_traitsIwESaIwEE7_M_dataEv
60638f80 T __ZNKSbIwSt11char_traitsIwESaIwEE7_M_dataEv
60638f8c t .text$_ZNKSbIwSt11char_traitsIwESaIwEE7_M_iendEv
60638f8c T __ZNKSbIwSt11char_traitsIwESaIwEE7_M_iendEv
60638f9c t .text$_ZNKSbIwSt11char_traitsIwESaIwEE7compareEPKw
60638f9c T __ZNKSbIwSt11char_traitsIwESaIwEE7compareEPKw
60638ff0 t .text$_ZNKSbIwSt11char_traitsIwESaIwEE7compareERKS2_
60638ff0 T __ZNKSbIwSt11char_traitsIwESaIwEE7compareERKS2_
60639038 t .text$_ZNKSbIwSt11char_traitsIwESaIwEE7compareEjjPKw
60639038 T __ZNKSbIwSt11char_traitsIwESaIwEE7compareEjjPKw
606390bc t .text$_ZNKSbIwSt11char_traitsIwESaIwEE7compareEjjPKwj
606390bc T __ZNKSbIwSt11char_traitsIwESaIwEE7compareEjjPKwj
6063912c t .text$_ZNKSbIwSt11char_traitsIwESaIwEE7compareEjjRKS2_
6063912c T __ZNKSbIwSt11char_traitsIwESaIwEE7compareEjjRKS2_
606391a0 t .text$_ZNKSbIwSt11char_traitsIwESaIwEE7compareEjjRKS2_jj
606391a0 T __ZNKSbIwSt11char_traitsIwESaIwEE7compareEjjRKS2_jj
60639250 t .text$_ZNKSbIwSt11char_traitsIwESaIwEE8_M_checkEjPKc
60639250 T __ZNKSbIwSt11char_traitsIwESaIwEE8_M_checkEjPKc
60639274 t .text$_ZNKSbIwSt11char_traitsIwESaIwEE8_M_limitEjj
60639274 T __ZNKSbIwSt11char_traitsIwESaIwEE8_M_limitEjj
60639290 t .text$_ZNKSbIwSt11char_traitsIwESaIwEE8capacityEv
60639290 T __ZNKSbIwSt11char_traitsIwESaIwEE8capacityEv
606392a0 t .text$_ZNKSbIwSt11char_traitsIwESaIwEE8max_sizeEv
606392a0 T __ZNKSbIwSt11char_traitsIwESaIwEE8max_sizeEv
606392ac t .text$_ZNKSbIwSt11char_traitsIwESaIwEE9_M_ibeginEv
606392ac T __ZNKSbIwSt11char_traitsIwESaIwEE9_M_ibeginEv
606392b8 t .text$_ZNKSbIwSt11char_traitsIwESaIwEEixEj
606392b8 T __ZNKSbIwSt11char_traitsIwESaIwEEixEj
606392cc t .text$_ZNKSi6gcountEv
606392cc T __ZNKSi6gcountEv
606392d8 t .text$_ZNKSi6sentrycvbEv
606392d8 T __ZNKSi6sentrycvbEv
606392e4 t .text$_ZNKSo6sentrycvbEv
606392e4 T __ZNKSo6sentrycvbEv
606392f0 t .text$_ZNKSs11_M_disjunctEPKc
606392f0 T __ZNKSs11_M_disjunctEPKc
60639314 t .text$_ZNKSs12find_last_ofEPKcj
60639314 T __ZNKSs12find_last_ofEPKcj
60639340 t .text$_ZNKSs12find_last_ofEPKcjj
60639340 T __ZNKSs12find_last_ofEPKcjj
606393a8 t .text$_ZNKSs12find_last_ofERKSsj
606393a8 T __ZNKSs12find_last_ofERKSsj
606393c4 t .text$_ZNKSs12find_last_ofEcj
606393c4 T __ZNKSs12find_last_ofEcj
606393d4 t .text$_ZNKSs13find_first_ofEPKcj
606393d4 T __ZNKSs13find_first_ofEPKcj
60639400 t .text$_ZNKSs13find_first_ofEPKcjj
60639400 T __ZNKSs13find_first_ofEPKcjj
6063945c t .text$_ZNKSs13find_first_ofERKSsj
6063945c T __ZNKSs13find_first_ofERKSsj
60639478 t .text$_ZNKSs13find_first_ofEcj
60639478 T __ZNKSs13find_first_ofEcj
60639488 t .text$_ZNKSs13get_allocatorEv
60639488 T __ZNKSs13get_allocatorEv
60639494 t .text$_ZNKSs15_M_check_lengthEjjPKc
60639494 T __ZNKSs15_M_check_lengthEjjPKc
606394c0 t .text$_ZNKSs16find_last_not_ofEPKcj
606394c0 T __ZNKSs16find_last_not_ofEPKcj
606394ec t .text$_ZNKSs16find_last_not_ofEPKcjj
606394ec T __ZNKSs16find_last_not_ofEPKcjj
60639550 t .text$_ZNKSs16find_last_not_ofERKSsj
60639550 T __ZNKSs16find_last_not_ofERKSsj
6063956c t .text$_ZNKSs16find_last_not_ofEcj
6063956c T __ZNKSs16find_last_not_ofEcj
606395ac t .text$_ZNKSs17find_first_not_ofEPKcj
606395ac T __ZNKSs17find_first_not_ofEPKcj
606395d8 t .text$_ZNKSs17find_first_not_ofEPKcjj
606395d8 T __ZNKSs17find_first_not_ofEPKcjj
60639630 t .text$_ZNKSs17find_first_not_ofERKSsj
60639630 T __ZNKSs17find_first_not_ofERKSsj
6063964c t .text$_ZNKSs17find_first_not_ofEcj
6063964c T __ZNKSs17find_first_not_ofEcj
60639688 t .text$_ZNKSs2atEj
60639688 T __ZNKSs2atEj
606396ac t .text$_ZNKSs3endEv
606396ac T __ZNKSs3endEv
606396bc t .text$_ZNKSs4_Rep12_M_is_leakedEv
606396bc T __ZNKSs4_Rep12_M_is_leakedEv
606396cc t .text$_ZNKSs4_Rep12_M_is_sharedEv
606396cc T __ZNKSs4_Rep12_M_is_sharedEv
606396e0 t .text$_ZNKSs4copyEPcjj
606396e0 T __ZNKSs4copyEPcjj
60639744 t .text$_ZNKSs4dataEv
60639744 T __ZNKSs4dataEv
60639750 t .text$_ZNKSs4findEPKcj
60639750 T __ZNKSs4findEPKcj
60639778 t .text$_ZNKSs4findEPKcjj
60639778 T __ZNKSs4findEPKcjj
60639800 t .text$_ZNKSs4findERKSsj
60639800 T __ZNKSs4findERKSsj
6063981c t .text$_ZNKSs4findEcj
6063981c T __ZNKSs4findEcj
60639864 t .text$_ZNKSs4rendEv
60639864 T __ZNKSs4rendEv
60639878 t .text$_ZNKSs4sizeEv
60639878 T __ZNKSs4sizeEv
60639888 t .text$_ZNKSs5beginEv
60639888 T __ZNKSs5beginEv
60639894 t .text$_ZNKSs5c_strEv
60639894 T __ZNKSs5c_strEv
606398a0 t .text$_ZNKSs5emptyEv
606398a0 T __ZNKSs5emptyEv
606398b8 t .text$_ZNKSs5rfindEPKcj
606398b8 T __ZNKSs5rfindEPKcj
606398e0 t .text$_ZNKSs5rfindEPKcjj
606398e0 T __ZNKSs5rfindEPKcjj
60639944 t .text$_ZNKSs5rfindERKSsj
60639944 T __ZNKSs5rfindERKSsj
60639960 t .text$_ZNKSs5rfindEcj
60639960 T __ZNKSs5rfindEcj
606399b8 t .text$_ZNKSs6_M_repEv
606399b8 T __ZNKSs6_M_repEv
606399c8 t .text$_ZNKSs6lengthEv
606399c8 T __ZNKSs6lengthEv
606399d8 t .text$_ZNKSs6rbeginEv
606399d8 T __ZNKSs6rbeginEv
606399ec t .text$_ZNKSs6substrEjj
606399ec T __ZNKSs6substrEjj
60639a24 t .text$_ZNKSs7_M_dataEv
60639a24 T __ZNKSs7_M_dataEv
60639a30 t .text$_ZNKSs7_M_iendEv
60639a30 T __ZNKSs7_M_iendEv
60639a40 t .text$_ZNKSs7compareEPKc
60639a40 T __ZNKSs7compareEPKc
60639aa4 t .text$_ZNKSs7compareERKSs
60639aa4 T __ZNKSs7compareERKSs
60639b04 t .text$_ZNKSs7compareEjjPKc
60639b04 T __ZNKSs7compareEjjPKc
60639b94 t .text$_ZNKSs7compareEjjPKcj
60639b94 T __ZNKSs7compareEjjPKcj
60639c18 t .text$_ZNKSs7compareEjjRKSs
60639c18 T __ZNKSs7compareEjjRKSs
60639c98 t .text$_ZNKSs7compareEjjRKSsjj
60639c98 T __ZNKSs7compareEjjRKSsjj
60639d58 t .text$_ZNKSs8_M_checkEjPKc
60639d58 T __ZNKSs8_M_checkEjPKc
60639d7c t .text$_ZNKSs8_M_limitEjj
60639d7c T __ZNKSs8_M_limitEjj
60639d98 t .text$_ZNKSs8capacityEv
60639d98 T __ZNKSs8capacityEv
60639da8 t .text$_ZNKSs8max_sizeEv
60639da8 T __ZNKSs8max_sizeEv
60639db4 t .text$_ZNKSs9_M_ibeginEv
60639db4 T __ZNKSs9_M_ibeginEv
60639dc0 t .text$_ZNKSsixEj
60639dc0 T __ZNKSsixEj
60639dd0 t .text$_ZNKSt10moneypunctIcLb0EE10neg_formatEv
60639dd0 T __ZNKSt10moneypunctIcLb0EE10neg_formatEv
60639de4 t .text$_ZNKSt10moneypunctIcLb0EE10pos_formatEv
60639de4 T __ZNKSt10moneypunctIcLb0EE10pos_formatEv
60639df8 t .text$_ZNKSt10moneypunctIcLb0EE11curr_symbolEv
60639df8 T __ZNKSt10moneypunctIcLb0EE11curr_symbolEv
60639e18 t .text$_ZNKSt10moneypunctIcLb0EE11do_groupingEv
60639e18 T __ZNKSt10moneypunctIcLb0EE11do_groupingEv
60639e4c t .text$_ZNKSt10moneypunctIcLb0EE11frac_digitsEv
60639e4c T __ZNKSt10moneypunctIcLb0EE11frac_digitsEv
60639e5c t .text$_ZNKSt10moneypunctIcLb0EE13decimal_pointEv
60639e5c T __ZNKSt10moneypunctIcLb0EE13decimal_pointEv
60639e70 t .text$_ZNKSt10moneypunctIcLb0EE13do_neg_formatEv
60639e70 T __ZNKSt10moneypunctIcLb0EE13do_neg_formatEv
60639e80 t .text$_ZNKSt10moneypunctIcLb0EE13do_pos_formatEv
60639e80 T __ZNKSt10moneypunctIcLb0EE13do_pos_formatEv
60639e90 t .text$_ZNKSt10moneypunctIcLb0EE13negative_signEv
60639e90 T __ZNKSt10moneypunctIcLb0EE13negative_signEv
60639eb0 t .text$_ZNKSt10moneypunctIcLb0EE13positive_signEv
60639eb0 T __ZNKSt10moneypunctIcLb0EE13positive_signEv
60639ed0 t .text$_ZNKSt10moneypunctIcLb0EE13thousands_sepEv
60639ed0 T __ZNKSt10moneypunctIcLb0EE13thousands_sepEv
60639ee4 t .text$_ZNKSt10moneypunctIcLb0EE14do_curr_symbolEv
60639ee4 T __ZNKSt10moneypunctIcLb0EE14do_curr_symbolEv
60639f18 t .text$_ZNKSt10moneypunctIcLb0EE14do_frac_digitsEv
60639f18 T __ZNKSt10moneypunctIcLb0EE14do_frac_digitsEv
60639f28 t .text$_ZNKSt10moneypunctIcLb0EE16do_decimal_pointEv
60639f28 T __ZNKSt10moneypunctIcLb0EE16do_decimal_pointEv
60639f38 t .text$_ZNKSt10moneypunctIcLb0EE16do_negative_signEv
60639f38 T __ZNKSt10moneypunctIcLb0EE16do_negative_signEv
60639f6c t .text$_ZNKSt10moneypunctIcLb0EE16do_positive_signEv
60639f6c T __ZNKSt10moneypunctIcLb0EE16do_positive_signEv
60639fa0 t .text$_ZNKSt10moneypunctIcLb0EE16do_thousands_sepEv
60639fa0 T __ZNKSt10moneypunctIcLb0EE16do_thousands_sepEv
60639fb0 t .text$_ZNKSt10moneypunctIcLb0EE8groupingEv
60639fb0 T __ZNKSt10moneypunctIcLb0EE8groupingEv
60639fd0 t .text$_ZNKSt10moneypunctIcLb1EE10neg_formatEv
60639fd0 T __ZNKSt10moneypunctIcLb1EE10neg_formatEv
60639fe4 t .text$_ZNKSt10moneypunctIcLb1EE10pos_formatEv
60639fe4 T __ZNKSt10moneypunctIcLb1EE10pos_formatEv
60639ff8 t .text$_ZNKSt10moneypunctIcLb1EE11curr_symbolEv
60639ff8 T __ZNKSt10moneypunctIcLb1EE11curr_symbolEv
6063a018 t .text$_ZNKSt10moneypunctIcLb1EE11do_groupingEv
6063a018 T __ZNKSt10moneypunctIcLb1EE11do_groupingEv
6063a04c t .text$_ZNKSt10moneypunctIcLb1EE11frac_digitsEv
6063a04c T __ZNKSt10moneypunctIcLb1EE11frac_digitsEv
6063a05c t .text$_ZNKSt10moneypunctIcLb1EE13decimal_pointEv
6063a05c T __ZNKSt10moneypunctIcLb1EE13decimal_pointEv
6063a070 t .text$_ZNKSt10moneypunctIcLb1EE13do_neg_formatEv
6063a070 T __ZNKSt10moneypunctIcLb1EE13do_neg_formatEv
6063a080 t .text$_ZNKSt10moneypunctIcLb1EE13do_pos_formatEv
6063a080 T __ZNKSt10moneypunctIcLb1EE13do_pos_formatEv
6063a090 t .text$_ZNKSt10moneypunctIcLb1EE13negative_signEv
6063a090 T __ZNKSt10moneypunctIcLb1EE13negative_signEv
6063a0b0 t .text$_ZNKSt10moneypunctIcLb1EE13positive_signEv
6063a0b0 T __ZNKSt10moneypunctIcLb1EE13positive_signEv
6063a0d0 t .text$_ZNKSt10moneypunctIcLb1EE13thousands_sepEv
6063a0d0 T __ZNKSt10moneypunctIcLb1EE13thousands_sepEv
6063a0e4 t .text$_ZNKSt10moneypunctIcLb1EE14do_curr_symbolEv
6063a0e4 T __ZNKSt10moneypunctIcLb1EE14do_curr_symbolEv
6063a118 t .text$_ZNKSt10moneypunctIcLb1EE14do_frac_digitsEv
6063a118 T __ZNKSt10moneypunctIcLb1EE14do_frac_digitsEv
6063a128 t .text$_ZNKSt10moneypunctIcLb1EE16do_decimal_pointEv
6063a128 T __ZNKSt10moneypunctIcLb1EE16do_decimal_pointEv
6063a138 t .text$_ZNKSt10moneypunctIcLb1EE16do_negative_signEv
6063a138 T __ZNKSt10moneypunctIcLb1EE16do_negative_signEv
6063a16c t .text$_ZNKSt10moneypunctIcLb1EE16do_positive_signEv
6063a16c T __ZNKSt10moneypunctIcLb1EE16do_positive_signEv
6063a1a0 t .text$_ZNKSt10moneypunctIcLb1EE16do_thousands_sepEv
6063a1a0 T __ZNKSt10moneypunctIcLb1EE16do_thousands_sepEv
6063a1b0 t .text$_ZNKSt10moneypunctIcLb1EE8groupingEv
6063a1b0 T __ZNKSt10moneypunctIcLb1EE8groupingEv
6063a1d0 t .text$_ZNKSt10moneypunctIwLb0EE10neg_formatEv
6063a1d0 T __ZNKSt10moneypunctIwLb0EE10neg_formatEv
6063a1e4 t .text$_ZNKSt10moneypunctIwLb0EE10pos_formatEv
6063a1e4 T __ZNKSt10moneypunctIwLb0EE10pos_formatEv
6063a1f8 t .text$_ZNKSt10moneypunctIwLb0EE11curr_symbolEv
6063a1f8 T __ZNKSt10moneypunctIwLb0EE11curr_symbolEv
6063a218 t .text$_ZNKSt10moneypunctIwLb0EE11do_groupingEv
6063a218 T __ZNKSt10moneypunctIwLb0EE11do_groupingEv
6063a24c t .text$_ZNKSt10moneypunctIwLb0EE11frac_digitsEv
6063a24c T __ZNKSt10moneypunctIwLb0EE11frac_digitsEv
6063a25c t .text$_ZNKSt10moneypunctIwLb0EE13decimal_pointEv
6063a25c T __ZNKSt10moneypunctIwLb0EE13decimal_pointEv
6063a270 t .text$_ZNKSt10moneypunctIwLb0EE13do_neg_formatEv
6063a270 T __ZNKSt10moneypunctIwLb0EE13do_neg_formatEv
6063a280 t .text$_ZNKSt10moneypunctIwLb0EE13do_pos_formatEv
6063a280 T __ZNKSt10moneypunctIwLb0EE13do_pos_formatEv
6063a290 t .text$_ZNKSt10moneypunctIwLb0EE13negative_signEv
6063a290 T __ZNKSt10moneypunctIwLb0EE13negative_signEv
6063a2b0 t .text$_ZNKSt10moneypunctIwLb0EE13positive_signEv
6063a2b0 T __ZNKSt10moneypunctIwLb0EE13positive_signEv
6063a2d0 t .text$_ZNKSt10moneypunctIwLb0EE13thousands_sepEv
6063a2d0 T __ZNKSt10moneypunctIwLb0EE13thousands_sepEv
6063a2e4 t .text$_ZNKSt10moneypunctIwLb0EE14do_curr_symbolEv
6063a2e4 T __ZNKSt10moneypunctIwLb0EE14do_curr_symbolEv
6063a318 t .text$_ZNKSt10moneypunctIwLb0EE14do_frac_digitsEv
6063a318 T __ZNKSt10moneypunctIwLb0EE14do_frac_digitsEv
6063a328 t .text$_ZNKSt10moneypunctIwLb0EE16do_decimal_pointEv
6063a328 T __ZNKSt10moneypunctIwLb0EE16do_decimal_pointEv
6063a338 t .text$_ZNKSt10moneypunctIwLb0EE16do_negative_signEv
6063a338 T __ZNKSt10moneypunctIwLb0EE16do_negative_signEv
6063a36c t .text$_ZNKSt10moneypunctIwLb0EE16do_positive_signEv
6063a36c T __ZNKSt10moneypunctIwLb0EE16do_positive_signEv
6063a3a0 t .text$_ZNKSt10moneypunctIwLb0EE16do_thousands_sepEv
6063a3a0 T __ZNKSt10moneypunctIwLb0EE16do_thousands_sepEv
6063a3b0 t .text$_ZNKSt10moneypunctIwLb0EE8groupingEv
6063a3b0 T __ZNKSt10moneypunctIwLb0EE8groupingEv
6063a3d0 t .text$_ZNKSt10moneypunctIwLb1EE10neg_formatEv
6063a3d0 T __ZNKSt10moneypunctIwLb1EE10neg_formatEv
6063a3e4 t .text$_ZNKSt10moneypunctIwLb1EE10pos_formatEv
6063a3e4 T __ZNKSt10moneypunctIwLb1EE10pos_formatEv
6063a3f8 t .text$_ZNKSt10moneypunctIwLb1EE11curr_symbolEv
6063a3f8 T __ZNKSt10moneypunctIwLb1EE11curr_symbolEv
6063a418 t .text$_ZNKSt10moneypunctIwLb1EE11do_groupingEv
6063a418 T __ZNKSt10moneypunctIwLb1EE11do_groupingEv
6063a44c t .text$_ZNKSt10moneypunctIwLb1EE11frac_digitsEv
6063a44c T __ZNKSt10moneypunctIwLb1EE11frac_digitsEv
6063a45c t .text$_ZNKSt10moneypunctIwLb1EE13decimal_pointEv
6063a45c T __ZNKSt10moneypunctIwLb1EE13decimal_pointEv
6063a470 t .text$_ZNKSt10moneypunctIwLb1EE13do_neg_formatEv
6063a470 T __ZNKSt10moneypunctIwLb1EE13do_neg_formatEv
6063a480 t .text$_ZNKSt10moneypunctIwLb1EE13do_pos_formatEv
6063a480 T __ZNKSt10moneypunctIwLb1EE13do_pos_formatEv
6063a490 t .text$_ZNKSt10moneypunctIwLb1EE13negative_signEv
6063a490 T __ZNKSt10moneypunctIwLb1EE13negative_signEv
6063a4b0 t .text$_ZNKSt10moneypunctIwLb1EE13positive_signEv
6063a4b0 T __ZNKSt10moneypunctIwLb1EE13positive_signEv
6063a4d0 t .text$_ZNKSt10moneypunctIwLb1EE13thousands_sepEv
6063a4d0 T __ZNKSt10moneypunctIwLb1EE13thousands_sepEv
6063a4e4 t .text$_ZNKSt10moneypunctIwLb1EE14do_curr_symbolEv
6063a4e4 T __ZNKSt10moneypunctIwLb1EE14do_curr_symbolEv
6063a518 t .text$_ZNKSt10moneypunctIwLb1EE14do_frac_digitsEv
6063a518 T __ZNKSt10moneypunctIwLb1EE14do_frac_digitsEv
6063a528 t .text$_ZNKSt10moneypunctIwLb1EE16do_decimal_pointEv
6063a528 T __ZNKSt10moneypunctIwLb1EE16do_decimal_pointEv
6063a538 t .text$_ZNKSt10moneypunctIwLb1EE16do_negative_signEv
6063a538 T __ZNKSt10moneypunctIwLb1EE16do_negative_signEv
6063a56c t .text$_ZNKSt10moneypunctIwLb1EE16do_positive_signEv
6063a56c T __ZNKSt10moneypunctIwLb1EE16do_positive_signEv
6063a5a0 t .text$_ZNKSt10moneypunctIwLb1EE16do_thousands_sepEv
6063a5a0 T __ZNKSt10moneypunctIwLb1EE16do_thousands_sepEv
6063a5b0 t .text$_ZNKSt10moneypunctIwLb1EE8groupingEv
6063a5b0 T __ZNKSt10moneypunctIwLb1EE8groupingEv
6063a5d0 t .text$_ZNKSt11__timepunctIcE15_M_am_pm_formatEPKc
6063a5d0 T __ZNKSt11__timepunctIcE15_M_am_pm_formatEPKc
6063a5d8 t .text$_ZNKSt11__timepunctIcE15_M_date_formatsEPPKc
6063a5d8 T __ZNKSt11__timepunctIcE15_M_date_formatsEPPKc
6063a5f4 t .text$_ZNKSt11__timepunctIcE15_M_time_formatsEPPKc
6063a5f4 T __ZNKSt11__timepunctIcE15_M_time_formatsEPPKc
6063a610 t .text$_ZNKSt11__timepunctIcE19_M_days_abbreviatedEPPKc
6063a610 T __ZNKSt11__timepunctIcE19_M_days_abbreviatedEPPKc
6063a648 t .text$_ZNKSt11__timepunctIcE20_M_date_time_formatsEPPKc
6063a648 T __ZNKSt11__timepunctIcE20_M_date_time_formatsEPPKc
6063a664 t .text$_ZNKSt11__timepunctIcE21_M_months_abbreviatedEPPKc
6063a664 T __ZNKSt11__timepunctIcE21_M_months_abbreviatedEPPKc
6063a6e0 t .text$_ZNKSt11__timepunctIcE7_M_daysEPPKc
6063a6e0 T __ZNKSt11__timepunctIcE7_M_daysEPPKc
6063a718 t .text$_ZNKSt11__timepunctIcE8_M_am_pmEPPKc
6063a718 T __ZNKSt11__timepunctIcE8_M_am_pmEPPKc
6063a734 t .text$_ZNKSt11__timepunctIcE9_M_monthsEPPKc
6063a734 T __ZNKSt11__timepunctIcE9_M_monthsEPPKc
6063a798 t .text$_ZNKSt11__timepunctIwE15_M_am_pm_formatEPKw
6063a798 T __ZNKSt11__timepunctIwE15_M_am_pm_formatEPKw
6063a7a0 t .text$_ZNKSt11__timepunctIwE15_M_date_formatsEPPKw
6063a7a0 T __ZNKSt11__timepunctIwE15_M_date_formatsEPPKw
6063a7bc t .text$_ZNKSt11__timepunctIwE15_M_time_formatsEPPKw
6063a7bc T __ZNKSt11__timepunctIwE15_M_time_formatsEPPKw
6063a7d8 t .text$_ZNKSt11__timepunctIwE19_M_days_abbreviatedEPPKw
6063a7d8 T __ZNKSt11__timepunctIwE19_M_days_abbreviatedEPPKw
6063a810 t .text$_ZNKSt11__timepunctIwE20_M_date_time_formatsEPPKw
6063a810 T __ZNKSt11__timepunctIwE20_M_date_time_formatsEPPKw
6063a82c t .text$_ZNKSt11__timepunctIwE21_M_months_abbreviatedEPPKw
6063a82c T __ZNKSt11__timepunctIwE21_M_months_abbreviatedEPPKw
6063a8a8 t .text$_ZNKSt11__timepunctIwE7_M_daysEPPKw
6063a8a8 T __ZNKSt11__timepunctIwE7_M_daysEPPKw
6063a8e0 t .text$_ZNKSt11__timepunctIwE8_M_am_pmEPPKw
6063a8e0 T __ZNKSt11__timepunctIwE8_M_am_pmEPPKw
6063a8fc t .text$_ZNKSt11__timepunctIwE9_M_monthsEPPKw
6063a8fc T __ZNKSt11__timepunctIwE9_M_monthsEPPKw
6063a960 t .text$_ZNKSt13basic_filebufIcSt11char_traitsIcEE7is_openEv
6063a960 T __ZNKSt13basic_filebufIcSt11char_traitsIcEE7is_openEv
6063a990 t .text$_ZNKSt13basic_filebufIwSt11char_traitsIwEE7is_openEv
6063a990 T __ZNKSt13basic_filebufIwSt11char_traitsIwEE7is_openEv
6063a9c0 t .text$_ZNKSt13basic_fstreamIcSt11char_traitsIcEE5rdbufEv
6063a9c0 T __ZNKSt13basic_fstreamIcSt11char_traitsIcEE5rdbufEv
6063a9cc t .text$_ZNKSt13basic_fstreamIcSt11char_traitsIcEE7is_openEv
6063a9cc T __ZNKSt13basic_fstreamIcSt11char_traitsIcEE7is_openEv
6063a9fc t .text$_ZNKSt13basic_fstreamIwSt11char_traitsIwEE5rdbufEv
6063a9fc T __ZNKSt13basic_fstreamIwSt11char_traitsIwEE5rdbufEv
6063aa08 t .text$_ZNKSt13basic_fstreamIwSt11char_traitsIwEE7is_openEv
6063aa08 T __ZNKSt13basic_fstreamIwSt11char_traitsIwEE7is_openEv
6063aa38 t .text$_ZNKSt13basic_istreamIwSt11char_traitsIwEE6gcountEv
6063aa38 T __ZNKSt13basic_istreamIwSt11char_traitsIwEE6gcountEv
6063aa44 t .text$_ZNKSt13basic_istreamIwSt11char_traitsIwEE6sentrycvbEv
6063aa44 T __ZNKSt13basic_istreamIwSt11char_traitsIwEE6sentrycvbEv
6063aa50 t .text$_ZNKSt13basic_ostreamIwSt11char_traitsIwEE6sentrycvbEv
6063aa50 T __ZNKSt13basic_ostreamIwSt11char_traitsIwEE6sentrycvbEv
6063aa5c t .text$_ZNKSt14basic_ifstreamIcSt11char_traitsIcEE5rdbufEv
6063aa5c T __ZNKSt14basic_ifstreamIcSt11char_traitsIcEE5rdbufEv
6063aa68 t .text$_ZNKSt14basic_ifstreamIcSt11char_traitsIcEE7is_openEv
6063aa68 T __ZNKSt14basic_ifstreamIcSt11char_traitsIcEE7is_openEv
6063aa98 t .text$_ZNKSt14basic_ifstreamIwSt11char_traitsIwEE5rdbufEv
6063aa98 T __ZNKSt14basic_ifstreamIwSt11char_traitsIwEE5rdbufEv
6063aaa4 t .text$_ZNKSt14basic_ifstreamIwSt11char_traitsIwEE7is_openEv
6063aaa4 T __ZNKSt14basic_ifstreamIwSt11char_traitsIwEE7is_openEv
6063aad4 t .text$_ZNKSt14basic_ofstreamIcSt11char_traitsIcEE5rdbufEv
6063aad4 T __ZNKSt14basic_ofstreamIcSt11char_traitsIcEE5rdbufEv
6063aae0 t .text$_ZNKSt14basic_ofstreamIcSt11char_traitsIcEE7is_openEv
6063aae0 T __ZNKSt14basic_ofstreamIcSt11char_traitsIcEE7is_openEv
6063ab10 t .text$_ZNKSt14basic_ofstreamIwSt11char_traitsIwEE5rdbufEv
6063ab10 T __ZNKSt14basic_ofstreamIwSt11char_traitsIwEE5rdbufEv
6063ab1c t .text$_ZNKSt14basic_ofstreamIwSt11char_traitsIwEE7is_openEv
6063ab1c T __ZNKSt14basic_ofstreamIwSt11char_traitsIwEE7is_openEv
6063ab4c t .text$_ZNKSt15basic_streambufIcSt11char_traitsIcEE4gptrEv
6063ab4c T __ZNKSt15basic_streambufIcSt11char_traitsIcEE4gptrEv
6063ab58 t .text$_ZNKSt15basic_streambufIcSt11char_traitsIcEE4pptrEv
6063ab58 T __ZNKSt15basic_streambufIcSt11char_traitsIcEE4pptrEv
6063ab64 t .text$_ZNKSt15basic_streambufIcSt11char_traitsIcEE5ebackEv
6063ab64 T __ZNKSt15basic_streambufIcSt11char_traitsIcEE5ebackEv
6063ab70 t .text$_ZNKSt15basic_streambufIcSt11char_traitsIcEE5egptrEv
6063ab70 T __ZNKSt15basic_streambufIcSt11char_traitsIcEE5egptrEv
6063ab7c t .text$_ZNKSt15basic_streambufIcSt11char_traitsIcEE5epptrEv
6063ab7c T __ZNKSt15basic_streambufIcSt11char_traitsIcEE5epptrEv
6063ab88 t .text$_ZNKSt15basic_streambufIcSt11char_traitsIcEE5pbaseEv
6063ab88 T __ZNKSt15basic_streambufIcSt11char_traitsIcEE5pbaseEv
6063ab94 t .text$_ZNKSt15basic_streambufIcSt11char_traitsIcEE6getlocEv
6063ab94 T __ZNKSt15basic_streambufIcSt11char_traitsIcEE6getlocEv
6063abb4 t .text$_ZNKSt15basic_streambufIwSt11char_traitsIwEE4gptrEv
6063abb4 T __ZNKSt15basic_streambufIwSt11char_traitsIwEE4gptrEv
6063abc0 t .text$_ZNKSt15basic_streambufIwSt11char_traitsIwEE4pptrEv
6063abc0 T __ZNKSt15basic_streambufIwSt11char_traitsIwEE4pptrEv
6063abcc t .text$_ZNKSt15basic_streambufIwSt11char_traitsIwEE5ebackEv
6063abcc T __ZNKSt15basic_streambufIwSt11char_traitsIwEE5ebackEv
6063abd8 t .text$_ZNKSt15basic_streambufIwSt11char_traitsIwEE5egptrEv
6063abd8 T __ZNKSt15basic_streambufIwSt11char_traitsIwEE5egptrEv
6063abe4 t .text$_ZNKSt15basic_streambufIwSt11char_traitsIwEE5epptrEv
6063abe4 T __ZNKSt15basic_streambufIwSt11char_traitsIwEE5epptrEv
6063abf0 t .text$_ZNKSt15basic_streambufIwSt11char_traitsIwEE5pbaseEv
6063abf0 T __ZNKSt15basic_streambufIwSt11char_traitsIwEE5pbaseEv
6063abfc t .text$_ZNKSt15basic_streambufIwSt11char_traitsIwEE6getlocEv
6063abfc T __ZNKSt15basic_streambufIwSt11char_traitsIwEE6getlocEv
6063ac1c t .text$_ZNKSt15basic_stringbufIcSt11char_traitsIcESaIcEE3strEv
6063ac1c T __ZNKSt15basic_stringbufIcSt11char_traitsIcESaIcEE3strEv
6063ae58 t .text$_ZNKSt15basic_stringbufIwSt11char_traitsIwESaIwEE3strEv
6063ae58 T __ZNKSt15basic_stringbufIwSt11char_traitsIwESaIwEE3strEv
6063b094 t .text$_ZNKSt18basic_stringstreamIcSt11char_traitsIcESaIcEE3strEv
6063b094 T __ZNKSt18basic_stringstreamIcSt11char_traitsIcESaIcEE3strEv
6063b2d0 t .text$_ZNKSt18basic_stringstreamIcSt11char_traitsIcESaIcEE5rdbufEv
6063b2d0 T __ZNKSt18basic_stringstreamIcSt11char_traitsIcESaIcEE5rdbufEv
6063b2dc t .text$_ZNKSt18basic_stringstreamIwSt11char_traitsIwESaIwEE3strEv
6063b2dc T __ZNKSt18basic_stringstreamIwSt11char_traitsIwESaIwEE3strEv
6063b518 t .text$_ZNKSt18basic_stringstreamIwSt11char_traitsIwESaIwEE5rdbufEv
6063b518 T __ZNKSt18basic_stringstreamIwSt11char_traitsIwESaIwEE5rdbufEv
6063b524 t .text$_ZNKSt19basic_istringstreamIcSt11char_traitsIcESaIcEE3strEv
6063b524 T __ZNKSt19basic_istringstreamIcSt11char_traitsIcESaIcEE3strEv
6063b760 t .text$_ZNKSt19basic_istringstreamIcSt11char_traitsIcESaIcEE5rdbufEv
6063b760 T __ZNKSt19basic_istringstreamIcSt11char_traitsIcESaIcEE5rdbufEv
6063b76c t .text$_ZNKSt19basic_istringstreamIwSt11char_traitsIwESaIwEE3strEv
6063b76c T __ZNKSt19basic_istringstreamIwSt11char_traitsIwESaIwEE3strEv
6063b9a8 t .text$_ZNKSt19basic_istringstreamIwSt11char_traitsIwESaIwEE5rdbufEv
6063b9a8 T __ZNKSt19basic_istringstreamIwSt11char_traitsIwESaIwEE5rdbufEv
6063b9b4 t .text$_ZNKSt19basic_ostringstreamIcSt11char_traitsIcESaIcEE3strEv
6063b9b4 T __ZNKSt19basic_ostringstreamIcSt11char_traitsIcESaIcEE3strEv
6063b9d4 t .text$_ZNKSt19basic_ostringstreamIcSt11char_traitsIcESaIcEE5rdbufEv
6063b9d4 T __ZNKSt19basic_ostringstreamIcSt11char_traitsIcESaIcEE5rdbufEv
6063b9e0 t .text$_ZNKSt19basic_ostringstreamIwSt11char_traitsIwESaIwEE3strEv
6063b9e0 T __ZNKSt19basic_ostringstreamIwSt11char_traitsIwESaIwEE3strEv
6063bc1c t .text$_ZNKSt19basic_ostringstreamIwSt11char_traitsIwESaIwEE5rdbufEv
6063bc1c T __ZNKSt19basic_ostringstreamIwSt11char_traitsIwESaIwEE5rdbufEv
6063bc28 t .text$_ZNKSt5ctypeIcE8do_widenEPKcS2_Pc
6063bc28 T __ZNKSt5ctypeIcE8do_widenEPKcS2_Pc
6063bc48 t .text$_ZNKSt5ctypeIcE8do_widenEc
6063bc48 T __ZNKSt5ctypeIcE8do_widenEc
6063bc54 t .text$_ZNKSt5ctypeIcE9do_narrowEPKcS2_cPc
6063bc54 T __ZNKSt5ctypeIcE9do_narrowEPKcS2_cPc
6063bc74 t .text$_ZNKSt5ctypeIcE9do_narrowEcc
6063bc74 T __ZNKSt5ctypeIcE9do_narrowEcc
6063bc80 t .text$_ZNKSt7collateIcE10do_compareEPKcS2_S2_S2_
6063bc80 T __ZNKSt7collateIcE10do_compareEPKcS2_S2_S2_
6063be8c t .text$_ZNKSt7collateIcE12do_transformEPKcS2_
6063be8c T __ZNKSt7collateIcE12do_transformEPKcS2_
6063c0e8 t .text$_ZNKSt7collateIcE4hashEPKcS2_
6063c0e8 T __ZNKSt7collateIcE4hashEPKcS2_
6063c0f8 t .text$_ZNKSt7collateIcE7compareEPKcS2_S2_S2_
6063c0f8 T __ZNKSt7collateIcE7compareEPKcS2_S2_S2_
6063c108 t .text$_ZNKSt7collateIcE7do_hashEPKcS2_
6063c108 T __ZNKSt7collateIcE7do_hashEPKcS2_
6063c130 t .text$_ZNKSt7collateIcE9transformEPKcS2_
6063c130 T __ZNKSt7collateIcE9transformEPKcS2_
6063c154 t .text$_ZNKSt7collateIwE10do_compareEPKwS2_S2_S2_
6063c154 T __ZNKSt7collateIwE10do_compareEPKwS2_S2_S2_
6063c358 t .text$_ZNKSt7collateIwE12do_transformEPKwS2_
6063c358 T __ZNKSt7collateIwE12do_transformEPKwS2_
6063c5b4 t .text$_ZNKSt7collateIwE4hashEPKwS2_
6063c5b4 T __ZNKSt7collateIwE4hashEPKwS2_
6063c5c4 t .text$_ZNKSt7collateIwE7compareEPKwS2_S2_S2_
6063c5c4 T __ZNKSt7collateIwE7compareEPKwS2_S2_S2_
6063c5d4 t .text$_ZNKSt7collateIwE7do_hashEPKwS2_
6063c5d4 T __ZNKSt7collateIwE7do_hashEPKwS2_
6063c600 t .text$_ZNKSt7collateIwE9transformEPKwS2_
6063c600 T __ZNKSt7collateIwE9transformEPKwS2_
6063c624 t .text$_ZNKSt7num_getIcSt19istreambuf_iteratorIcSt11char_traitsIcEEE14_M_extract_intIjEES3_S3_S3_RSt8ios_baseRSt12_Ios_IostateRT_
6063c624 T __ZNKSt7num_getIcSt19istreambuf_iteratorIcSt11char_traitsIcEEE14_M_extract_intIjEES3_S3_S3_RSt8ios_baseRSt12_Ios_IostateRT_
6063d344 t .text$_ZNKSt7num_getIcSt19istreambuf_iteratorIcSt11char_traitsIcEEE14_M_extract_intIlEES3_S3_S3_RSt8ios_baseRSt12_Ios_IostateRT_
6063d344 T __ZNKSt7num_getIcSt19istreambuf_iteratorIcSt11char_traitsIcEEE14_M_extract_intIlEES3_S3_S3_RSt8ios_baseRSt12_Ios_IostateRT_
6063e098 t .text$_ZNKSt7num_getIcSt19istreambuf_iteratorIcSt11char_traitsIcEEE14_M_extract_intImEES3_S3_S3_RSt8ios_baseRSt12_Ios_IostateRT_
6063e098 T __ZNKSt7num_getIcSt19istreambuf_iteratorIcSt11char_traitsIcEEE14_M_extract_intImEES3_S3_S3_RSt8ios_baseRSt12_Ios_IostateRT_
6063edb8 t .text$_ZNKSt7num_getIcSt19istreambuf_iteratorIcSt11char_traitsIcEEE14_M_extract_intItEES3_S3_S3_RSt8ios_baseRSt12_Ios_IostateRT_
6063edb8 T __ZNKSt7num_getIcSt19istreambuf_iteratorIcSt11char_traitsIcEEE14_M_extract_intItEES3_S3_S3_RSt8ios_baseRSt12_Ios_IostateRT_
6063fabc t .text$_ZNKSt7num_getIcSt19istreambuf_iteratorIcSt11char_traitsIcEEE14_M_extract_intIxEES3_S3_S3_RSt8ios_baseRSt12_Ios_IostateRT_
6063fabc T __ZNKSt7num_getIcSt19istreambuf_iteratorIcSt11char_traitsIcEEE14_M_extract_intIxEES3_S3_S3_RSt8ios_baseRSt12_Ios_IostateRT_
60640a38 t .text$_ZNKSt7num_getIcSt19istreambuf_iteratorIcSt11char_traitsIcEEE14_M_extract_intIyEES3_S3_S3_RSt8ios_baseRSt12_Ios_IostateRT_
60640a38 T __ZNKSt7num_getIcSt19istreambuf_iteratorIcSt11char_traitsIcEEE14_M_extract_intIyEES3_S3_S3_RSt8ios_baseRSt12_Ios_IostateRT_
606418fc t .text$_ZNKSt7num_getIcSt19istreambuf_iteratorIcSt11char_traitsIcEEE16_M_extract_floatES3_S3_RSt8ios_baseRSt12_Ios_IostateRSs
606418fc T __ZNKSt7num_getIcSt19istreambuf_iteratorIcSt11char_traitsIcEEE16_M_extract_floatES3_S3_RSt8ios_baseRSt12_Ios_IostateRSs
60642c30 t .text$_ZNKSt7num_getIcSt19istreambuf_iteratorIcSt11char_traitsIcEEE3getES3_S3_RSt8ios_baseRSt12_Ios_IostateRPv
60642c30 T __ZNKSt7num_getIcSt19istreambuf_iteratorIcSt11char_traitsIcEEE3getES3_S3_RSt8ios_baseRSt12_Ios_IostateRPv
60642c58 t .text$_ZNKSt7num_getIcSt19istreambuf_iteratorIcSt11char_traitsIcEEE3getES3_S3_RSt8ios_baseRSt12_Ios_IostateRb
60642c58 T __ZNKSt7num_getIcSt19istreambuf_iteratorIcSt11char_traitsIcEEE3getES3_S3_RSt8ios_baseRSt12_Ios_IostateRb
60642c80 t .text$_ZNKSt7num_getIcSt19istreambuf_iteratorIcSt11char_traitsIcEEE3getES3_S3_RSt8ios_baseRSt12_Ios_IostateRd
60642c80 T __ZNKSt7num_getIcSt19istreambuf_iteratorIcSt11char_traitsIcEEE3getES3_S3_RSt8ios_baseRSt12_Ios_IostateRd
60642ca8 t .text$_ZNKSt7num_getIcSt19istreambuf_iteratorIcSt11char_traitsIcEEE3getES3_S3_RSt8ios_baseRSt12_Ios_IostateRe
60642ca8 T __ZNKSt7num_getIcSt19istreambuf_iteratorIcSt11char_traitsIcEEE3getES3_S3_RSt8ios_baseRSt12_Ios_IostateRe
60642cd0 t .text$_ZNKSt7num_getIcSt19istreambuf_iteratorIcSt11char_traitsIcEEE3getES3_S3_RSt8ios_baseRSt12_Ios_IostateRf
60642cd0 T __ZNKSt7num_getIcSt19istreambuf_iteratorIcSt11char_traitsIcEEE3getES3_S3_RSt8ios_baseRSt12_Ios_IostateRf
60642cf8 t .text$_ZNKSt7num_getIcSt19istreambuf_iteratorIcSt11char_traitsIcEEE3getES3_S3_RSt8ios_baseRSt12_Ios_IostateRj
60642cf8 T __ZNKSt7num_getIcSt19istreambuf_iteratorIcSt11char_traitsIcEEE3getES3_S3_RSt8ios_baseRSt12_Ios_IostateRj
60642d20 t .text$_ZNKSt7num_getIcSt19istreambuf_iteratorIcSt11char_traitsIcEEE3getES3_S3_RSt8ios_baseRSt12_Ios_IostateRl
60642d20 T __ZNKSt7num_getIcSt19istreambuf_iteratorIcSt11char_traitsIcEEE3getES3_S3_RSt8ios_baseRSt12_Ios_IostateRl
60642d48 t .text$_ZNKSt7num_getIcSt19istreambuf_iteratorIcSt11char_traitsIcEEE3getES3_S3_RSt8ios_baseRSt12_Ios_IostateRm
60642d48 T __ZNKSt7num_getIcSt19istreambuf_iteratorIcSt11char_traitsIcEEE3getES3_S3_RSt8ios_baseRSt12_Ios_IostateRm
60642d70 t .text$_ZNKSt7num_getIcSt19istreambuf_iteratorIcSt11char_traitsIcEEE3getES3_S3_RSt8ios_baseRSt12_Ios_IostateRt
60642d70 T __ZNKSt7num_getIcSt19istreambuf_iteratorIcSt11char_traitsIcEEE3getES3_S3_RSt8ios_baseRSt12_Ios_IostateRt
60642d98 t .text$_ZNKSt7num_getIcSt19istreambuf_iteratorIcSt11char_traitsIcEEE3getES3_S3_RSt8ios_baseRSt12_Ios_IostateRx
60642d98 T __ZNKSt7num_getIcSt19istreambuf_iteratorIcSt11char_traitsIcEEE3getES3_S3_RSt8ios_baseRSt12_Ios_IostateRx
60642dc0 t .text$_ZNKSt7num_getIcSt19istreambuf_iteratorIcSt11char_traitsIcEEE3getES3_S3_RSt8ios_baseRSt12_Ios_IostateRy
60642dc0 T __ZNKSt7num_getIcSt19istreambuf_iteratorIcSt11char_traitsIcEEE3getES3_S3_RSt8ios_baseRSt12_Ios_IostateRy
60642de8 t .text$_ZNKSt7num_getIcSt19istreambuf_iteratorIcSt11char_traitsIcEEE6do_getES3_S3_RSt8ios_baseRSt12_Ios_IostateRPv
60642de8 T __ZNKSt7num_getIcSt19istreambuf_iteratorIcSt11char_traitsIcEEE6do_getES3_S3_RSt8ios_baseRSt12_Ios_IostateRPv
60642e58 t .text$_ZNKSt7num_getIcSt19istreambuf_iteratorIcSt11char_traitsIcEEE6do_getES3_S3_RSt8ios_baseRSt12_Ios_IostateRb
60642e58 T __ZNKSt7num_getIcSt19istreambuf_iteratorIcSt11char_traitsIcEEE6do_getES3_S3_RSt8ios_baseRSt12_Ios_IostateRb
606432cc t .text$_ZNKSt7num_getIcSt19istreambuf_iteratorIcSt11char_traitsIcEEE6do_getES3_S3_RSt8ios_baseRSt12_Ios_IostateRd
606432cc T __ZNKSt7num_getIcSt19istreambuf_iteratorIcSt11char_traitsIcEEE6do_getES3_S3_RSt8ios_baseRSt12_Ios_IostateRd
606433f0 t .text$_ZNKSt7num_getIcSt19istreambuf_iteratorIcSt11char_traitsIcEEE6do_getES3_S3_RSt8ios_baseRSt12_Ios_IostateRe
606433f0 T __ZNKSt7num_getIcSt19istreambuf_iteratorIcSt11char_traitsIcEEE6do_getES3_S3_RSt8ios_baseRSt12_Ios_IostateRe
60643514 t .text$_ZNKSt7num_getIcSt19istreambuf_iteratorIcSt11char_traitsIcEEE6do_getES3_S3_RSt8ios_baseRSt12_Ios_IostateRf
60643514 T __ZNKSt7num_getIcSt19istreambuf_iteratorIcSt11char_traitsIcEEE6do_getES3_S3_RSt8ios_baseRSt12_Ios_IostateRf
60643638 t .text$_ZNKSt7num_getIcSt19istreambuf_iteratorIcSt11char_traitsIcEEE6do_getES3_S3_RSt8ios_baseRSt12_Ios_IostateRj
60643638 T __ZNKSt7num_getIcSt19istreambuf_iteratorIcSt11char_traitsIcEEE6do_getES3_S3_RSt8ios_baseRSt12_Ios_IostateRj
60643660 t .text$_ZNKSt7num_getIcSt19istreambuf_iteratorIcSt11char_traitsIcEEE6do_getES3_S3_RSt8ios_baseRSt12_Ios_IostateRl
60643660 T __ZNKSt7num_getIcSt19istreambuf_iteratorIcSt11char_traitsIcEEE6do_getES3_S3_RSt8ios_baseRSt12_Ios_IostateRl
60643688 t .text$_ZNKSt7num_getIcSt19istreambuf_iteratorIcSt11char_traitsIcEEE6do_getES3_S3_RSt8ios_baseRSt12_Ios_IostateRm
60643688 T __ZNKSt7num_getIcSt19istreambuf_iteratorIcSt11char_traitsIcEEE6do_getES3_S3_RSt8ios_baseRSt12_Ios_IostateRm
606436b0 t .text$_ZNKSt7num_getIcSt19istreambuf_iteratorIcSt11char_traitsIcEEE6do_getES3_S3_RSt8ios_baseRSt12_Ios_IostateRt
606436b0 T __ZNKSt7num_getIcSt19istreambuf_iteratorIcSt11char_traitsIcEEE6do_getES3_S3_RSt8ios_baseRSt12_Ios_IostateRt
606436d8 t .text$_ZNKSt7num_getIcSt19istreambuf_iteratorIcSt11char_traitsIcEEE6do_getES3_S3_RSt8ios_baseRSt12_Ios_IostateRx
606436d8 T __ZNKSt7num_getIcSt19istreambuf_iteratorIcSt11char_traitsIcEEE6do_getES3_S3_RSt8ios_baseRSt12_Ios_IostateRx
60643700 t .text$_ZNKSt7num_getIcSt19istreambuf_iteratorIcSt11char_traitsIcEEE6do_getES3_S3_RSt8ios_baseRSt12_Ios_IostateRy
60643700 T __ZNKSt7num_getIcSt19istreambuf_iteratorIcSt11char_traitsIcEEE6do_getES3_S3_RSt8ios_baseRSt12_Ios_IostateRy
60643728 t .text$_ZNKSt7num_getIwSt19istreambuf_iteratorIwSt11char_traitsIwEEE14_M_extract_intIjEES3_S3_S3_RSt8ios_baseRSt12_Ios_IostateRT_
60643728 T __ZNKSt7num_getIwSt19istreambuf_iteratorIwSt11char_traitsIwEEE14_M_extract_intIjEES3_S3_S3_RSt8ios_baseRSt12_Ios_IostateRT_
60644504 t .text$_ZNKSt7num_getIwSt19istreambuf_iteratorIwSt11char_traitsIwEEE14_M_extract_intIlEES3_S3_S3_RSt8ios_baseRSt12_Ios_IostateRT_
60644504 T __ZNKSt7num_getIwSt19istreambuf_iteratorIwSt11char_traitsIwEEE14_M_extract_intIlEES3_S3_S3_RSt8ios_baseRSt12_Ios_IostateRT_
60645318 t .text$_ZNKSt7num_getIwSt19istreambuf_iteratorIwSt11char_traitsIwEEE14_M_extract_intImEES3_S3_S3_RSt8ios_baseRSt12_Ios_IostateRT_
60645318 T __ZNKSt7num_getIwSt19istreambuf_iteratorIwSt11char_traitsIwEEE14_M_extract_intImEES3_S3_S3_RSt8ios_baseRSt12_Ios_IostateRT_
606460f4 t .text$_ZNKSt7num_getIwSt19istreambuf_iteratorIwSt11char_traitsIwEEE14_M_extract_intItEES3_S3_S3_RSt8ios_baseRSt12_Ios_IostateRT_
606460f4 T __ZNKSt7num_getIwSt19istreambuf_iteratorIwSt11char_traitsIwEEE14_M_extract_intItEES3_S3_S3_RSt8ios_baseRSt12_Ios_IostateRT_
60646ee8 t .text$_ZNKSt7num_getIwSt19istreambuf_iteratorIwSt11char_traitsIwEEE14_M_extract_intIxEES3_S3_S3_RSt8ios_baseRSt12_Ios_IostateRT_
60646ee8 T __ZNKSt7num_getIwSt19istreambuf_iteratorIwSt11char_traitsIwEEE14_M_extract_intIxEES3_S3_S3_RSt8ios_baseRSt12_Ios_IostateRT_
60647ef4 t .text$_ZNKSt7num_getIwSt19istreambuf_iteratorIwSt11char_traitsIwEEE14_M_extract_intIyEES3_S3_S3_RSt8ios_baseRSt12_Ios_IostateRT_
60647ef4 T __ZNKSt7num_getIwSt19istreambuf_iteratorIwSt11char_traitsIwEEE14_M_extract_intIyEES3_S3_S3_RSt8ios_baseRSt12_Ios_IostateRT_
60648dfc t .text$_ZNKSt7num_getIwSt19istreambuf_iteratorIwSt11char_traitsIwEEE16_M_extract_floatES3_S3_RSt8ios_baseRSt12_Ios_IostateRSs
60648dfc T __ZNKSt7num_getIwSt19istreambuf_iteratorIwSt11char_traitsIwEEE16_M_extract_floatES3_S3_RSt8ios_baseRSt12_Ios_IostateRSs
6064a1f0 t .text$_ZNKSt7num_getIwSt19istreambuf_iteratorIwSt11char_traitsIwEEE3getES3_S3_RSt8ios_baseRSt12_Ios_IostateRPv
6064a1f0 T __ZNKSt7num_getIwSt19istreambuf_iteratorIwSt11char_traitsIwEEE3getES3_S3_RSt8ios_baseRSt12_Ios_IostateRPv
6064a218 t .text$_ZNKSt7num_getIwSt19istreambuf_iteratorIwSt11char_traitsIwEEE3getES3_S3_RSt8ios_baseRSt12_Ios_IostateRb
6064a218 T __ZNKSt7num_getIwSt19istreambuf_iteratorIwSt11char_traitsIwEEE3getES3_S3_RSt8ios_baseRSt12_Ios_IostateRb
6064a240 t .text$_ZNKSt7num_getIwSt19istreambuf_iteratorIwSt11char_traitsIwEEE3getES3_S3_RSt8ios_baseRSt12_Ios_IostateRd
6064a240 T __ZNKSt7num_getIwSt19istreambuf_iteratorIwSt11char_traitsIwEEE3getES3_S3_RSt8ios_baseRSt12_Ios_IostateRd
6064a268 t .text$_ZNKSt7num_getIwSt19istreambuf_iteratorIwSt11char_traitsIwEEE3getES3_S3_RSt8ios_baseRSt12_Ios_IostateRe
6064a268 T __ZNKSt7num_getIwSt19istreambuf_iteratorIwSt11char_traitsIwEEE3getES3_S3_RSt8ios_baseRSt12_Ios_IostateRe
6064a290 t .text$_ZNKSt7num_getIwSt19istreambuf_iteratorIwSt11char_traitsIwEEE3getES3_S3_RSt8ios_baseRSt12_Ios_IostateRf
6064a290 T __ZNKSt7num_getIwSt19istreambuf_iteratorIwSt11char_traitsIwEEE3getES3_S3_RSt8ios_baseRSt12_Ios_IostateRf
6064a2b8 t .text$_ZNKSt7num_getIwSt19istreambuf_iteratorIwSt11char_traitsIwEEE3getES3_S3_RSt8ios_baseRSt12_Ios_IostateRj
6064a2b8 T __ZNKSt7num_getIwSt19istreambuf_iteratorIwSt11char_traitsIwEEE3getES3_S3_RSt8ios_baseRSt12_Ios_IostateRj
6064a2e0 t .text$_ZNKSt7num_getIwSt19istreambuf_iteratorIwSt11char_traitsIwEEE3getES3_S3_RSt8ios_baseRSt12_Ios_IostateRl
6064a2e0 T __ZNKSt7num_getIwSt19istreambuf_iteratorIwSt11char_traitsIwEEE3getES3_S3_RSt8ios_baseRSt12_Ios_IostateRl
6064a308 t .text$_ZNKSt7num_getIwSt19istreambuf_iteratorIwSt11char_traitsIwEEE3getES3_S3_RSt8ios_baseRSt12_Ios_IostateRm
6064a308 T __ZNKSt7num_getIwSt19istreambuf_iteratorIwSt11char_traitsIwEEE3getES3_S3_RSt8ios_baseRSt12_Ios_IostateRm
6064a330 t .text$_ZNKSt7num_getIwSt19istreambuf_iteratorIwSt11char_traitsIwEEE3getES3_S3_RSt8ios_baseRSt12_Ios_IostateRt
6064a330 T __ZNKSt7num_getIwSt19istreambuf_iteratorIwSt11char_traitsIwEEE3getES3_S3_RSt8ios_baseRSt12_Ios_IostateRt
6064a358 t .text$_ZNKSt7num_getIwSt19istreambuf_iteratorIwSt11char_traitsIwEEE3getES3_S3_RSt8ios_baseRSt12_Ios_IostateRx
6064a358 T __ZNKSt7num_getIwSt19istreambuf_iteratorIwSt11char_traitsIwEEE3getES3_S3_RSt8ios_baseRSt12_Ios_IostateRx
6064a380 t .text$_ZNKSt7num_getIwSt19istreambuf_iteratorIwSt11char_traitsIwEEE3getES3_S3_RSt8ios_baseRSt12_Ios_IostateRy
6064a380 T __ZNKSt7num_getIwSt19istreambuf_iteratorIwSt11char_traitsIwEEE3getES3_S3_RSt8ios_baseRSt12_Ios_IostateRy
6064a3a8 t .text$_ZNKSt7num_getIwSt19istreambuf_iteratorIwSt11char_traitsIwEEE6do_getES3_S3_RSt8ios_baseRSt12_Ios_IostateRPv
6064a3a8 T __ZNKSt7num_getIwSt19istreambuf_iteratorIwSt11char_traitsIwEEE6do_getES3_S3_RSt8ios_baseRSt12_Ios_IostateRPv
6064a414 t .text$_ZNKSt7num_getIwSt19istreambuf_iteratorIwSt11char_traitsIwEEE6do_getES3_S3_RSt8ios_baseRSt12_Ios_IostateRb
6064a414 T __ZNKSt7num_getIwSt19istreambuf_iteratorIwSt11char_traitsIwEEE6do_getES3_S3_RSt8ios_baseRSt12_Ios_IostateRb
6064a8c0 t .text$_ZNKSt7num_getIwSt19istreambuf_iteratorIwSt11char_traitsIwEEE6do_getES3_S3_RSt8ios_baseRSt12_Ios_IostateRd
6064a8c0 T __ZNKSt7num_getIwSt19istreambuf_iteratorIwSt11char_traitsIwEEE6do_getES3_S3_RSt8ios_baseRSt12_Ios_IostateRd
6064a9f0 t .text$_ZNKSt7num_getIwSt19istreambuf_iteratorIwSt11char_traitsIwEEE6do_getES3_S3_RSt8ios_baseRSt12_Ios_IostateRe
6064a9f0 T __ZNKSt7num_getIwSt19istreambuf_iteratorIwSt11char_traitsIwEEE6do_getES3_S3_RSt8ios_baseRSt12_Ios_IostateRe
6064ab20 t .text$_ZNKSt7num_getIwSt19istreambuf_iteratorIwSt11char_traitsIwEEE6do_getES3_S3_RSt8ios_baseRSt12_Ios_IostateRf
6064ab20 T __ZNKSt7num_getIwSt19istreambuf_iteratorIwSt11char_traitsIwEEE6do_getES3_S3_RSt8ios_baseRSt12_Ios_IostateRf
6064ac50 t .text$_ZNKSt7num_getIwSt19istreambuf_iteratorIwSt11char_traitsIwEEE6do_getES3_S3_RSt8ios_baseRSt12_Ios_IostateRj
6064ac50 T __ZNKSt7num_getIwSt19istreambuf_iteratorIwSt11char_traitsIwEEE6do_getES3_S3_RSt8ios_baseRSt12_Ios_IostateRj
6064ac78 t .text$_ZNKSt7num_getIwSt19istreambuf_iteratorIwSt11char_traitsIwEEE6do_getES3_S3_RSt8ios_baseRSt12_Ios_IostateRl
6064ac78 T __ZNKSt7num_getIwSt19istreambuf_iteratorIwSt11char_traitsIwEEE6do_getES3_S3_RSt8ios_baseRSt12_Ios_IostateRl
6064aca0 t .text$_ZNKSt7num_getIwSt19istreambuf_iteratorIwSt11char_traitsIwEEE6do_getES3_S3_RSt8ios_baseRSt12_Ios_IostateRm
6064aca0 T __ZNKSt7num_getIwSt19istreambuf_iteratorIwSt11char_traitsIwEEE6do_getES3_S3_RSt8ios_baseRSt12_Ios_IostateRm
6064acc8 t .text$_ZNKSt7num_getIwSt19istreambuf_iteratorIwSt11char_traitsIwEEE6do_getES3_S3_RSt8ios_baseRSt12_Ios_IostateRt
6064acc8 T __ZNKSt7num_getIwSt19istreambuf_iteratorIwSt11char_traitsIwEEE6do_getES3_S3_RSt8ios_baseRSt12_Ios_IostateRt
6064acf0 t .text$_ZNKSt7num_getIwSt19istreambuf_iteratorIwSt11char_traitsIwEEE6do_getES3_S3_RSt8ios_baseRSt12_Ios_IostateRx
6064acf0 T __ZNKSt7num_getIwSt19istreambuf_iteratorIwSt11char_traitsIwEEE6do_getES3_S3_RSt8ios_baseRSt12_Ios_IostateRx
6064ad18 t .text$_ZNKSt7num_getIwSt19istreambuf_iteratorIwSt11char_traitsIwEEE6do_getES3_S3_RSt8ios_baseRSt12_Ios_IostateRy
6064ad18 T __ZNKSt7num_getIwSt19istreambuf_iteratorIwSt11char_traitsIwEEE6do_getES3_S3_RSt8ios_baseRSt12_Ios_IostateRy
6064ad40 t .text$_ZNKSt7num_putIcSt19ostreambuf_iteratorIcSt11char_traitsIcEEE12_M_group_intEPKcjcRSt8ios_basePcS9_Ri
6064ad40 T __ZNKSt7num_putIcSt19ostreambuf_iteratorIcSt11char_traitsIcEEE12_M_group_intEPKcjcRSt8ios_basePcS9_Ri
6064ad74 t .text$_ZNKSt7num_putIcSt19ostreambuf_iteratorIcSt11char_traitsIcEEE13_M_insert_intIlEES3_S3_RSt8ios_basecT_
6064ad74 T __ZNKSt7num_putIcSt19ostreambuf_iteratorIcSt11char_traitsIcEEE13_M_insert_intIlEES3_S3_RSt8ios_basecT_
6064b054 t .text$_ZNKSt7num_putIcSt19ostreambuf_iteratorIcSt11char_traitsIcEEE13_M_insert_intImEES3_S3_RSt8ios_basecT_
6064b054 T __ZNKSt7num_putIcSt19ostreambuf_iteratorIcSt11char_traitsIcEEE13_M_insert_intImEES3_S3_RSt8ios_basecT_
6064b2cc t .text$_ZNKSt7num_putIcSt19ostreambuf_iteratorIcSt11char_traitsIcEEE13_M_insert_intIxEES3_S3_RSt8ios_basecT_
6064b2cc T __ZNKSt7num_putIcSt19ostreambuf_iteratorIcSt11char_traitsIcEEE13_M_insert_intIxEES3_S3_RSt8ios_basecT_
6064b618 t .text$_ZNKSt7num_putIcSt19ostreambuf_iteratorIcSt11char_traitsIcEEE13_M_insert_intIyEES3_S3_RSt8ios_basecT_
6064b618 T __ZNKSt7num_putIcSt19ostreambuf_iteratorIcSt11char_traitsIcEEE13_M_insert_intIyEES3_S3_RSt8ios_basecT_
6064b8a8 t .text$_ZNKSt7num_putIcSt19ostreambuf_iteratorIcSt11char_traitsIcEEE14_M_group_floatEPKcjcS6_PcS7_Ri
6064b8a8 T __ZNKSt7num_putIcSt19ostreambuf_iteratorIcSt11char_traitsIcEEE14_M_group_floatEPKcjcS6_PcS7_Ri
6064b938 t .text$_ZNKSt7num_putIcSt19ostreambuf_iteratorIcSt11char_traitsIcEEE15_M_insert_floatIdEES3_S3_RSt8ios_baseccT_
6064b938 T __ZNKSt7num_putIcSt19ostreambuf_iteratorIcSt11char_traitsIcEEE15_M_insert_floatIdEES3_S3_RSt8ios_baseccT_
6064be04 t .text$_ZNKSt7num_putIcSt19ostreambuf_iteratorIcSt11char_traitsIcEEE15_M_insert_floatIeEES3_S3_RSt8ios_baseccT_
6064be04 T __ZNKSt7num_putIcSt19ostreambuf_iteratorIcSt11char_traitsIcEEE15_M_insert_floatIeEES3_S3_RSt8ios_baseccT_
6064c2c0 t .text$_ZNKSt7num_putIcSt19ostreambuf_iteratorIcSt11char_traitsIcEEE3putES3_RSt8ios_basecPKv
6064c2c0 T __ZNKSt7num_putIcSt19ostreambuf_iteratorIcSt11char_traitsIcEEE3putES3_RSt8ios_basecPKv
6064c2e8 t .text$_ZNKSt7num_putIcSt19ostreambuf_iteratorIcSt11char_traitsIcEEE3putES3_RSt8ios_basecb
6064c2e8 T __ZNKSt7num_putIcSt19ostreambuf_iteratorIcSt11char_traitsIcEEE3putES3_RSt8ios_basecb
6064c318 t .text$_ZNKSt7num_putIcSt19ostreambuf_iteratorIcSt11char_traitsIcEEE3putES3_RSt8ios_basecd
6064c318 T __ZNKSt7num_putIcSt19ostreambuf_iteratorIcSt11char_traitsIcEEE3putES3_RSt8ios_basecd
6064c344 t .text$_ZNKSt7num_putIcSt19ostreambuf_iteratorIcSt11char_traitsIcEEE3putES3_RSt8ios_basece
6064c344 T __ZNKSt7num_putIcSt19ostreambuf_iteratorIcSt11char_traitsIcEEE3putES3_RSt8ios_basece
6064c370 t .text$_ZNKSt7num_putIcSt19ostreambuf_iteratorIcSt11char_traitsIcEEE3putES3_RSt8ios_basecl
6064c370 T __ZNKSt7num_putIcSt19ostreambuf_iteratorIcSt11char_traitsIcEEE3putES3_RSt8ios_basecl
6064c398 t .text$_ZNKSt7num_putIcSt19ostreambuf_iteratorIcSt11char_traitsIcEEE3putES3_RSt8ios_basecm
6064c398 T __ZNKSt7num_putIcSt19ostreambuf_iteratorIcSt11char_traitsIcEEE3putES3_RSt8ios_basecm
6064c3c0 t .text$_ZNKSt7num_putIcSt19ostreambuf_iteratorIcSt11char_traitsIcEEE3putES3_RSt8ios_basecx
6064c3c0 T __ZNKSt7num_putIcSt19ostreambuf_iteratorIcSt11char_traitsIcEEE3putES3_RSt8ios_basecx
6064c3ec t .text$_ZNKSt7num_putIcSt19ostreambuf_iteratorIcSt11char_traitsIcEEE3putES3_RSt8ios_basecy
6064c3ec T __ZNKSt7num_putIcSt19ostreambuf_iteratorIcSt11char_traitsIcEEE3putES3_RSt8ios_basecy
6064c418 t .text$_ZNKSt7num_putIcSt19ostreambuf_iteratorIcSt11char_traitsIcEEE6_M_padEciRSt8ios_basePcPKcRi
6064c418 T __ZNKSt7num_putIcSt19ostreambuf_iteratorIcSt11char_traitsIcEEE6_M_padEciRSt8ios_basePcPKcRi
6064c448 t .text$_ZNKSt7num_putIcSt19ostreambuf_iteratorIcSt11char_traitsIcEEE6do_putES3_RSt8ios_basecPKv
6064c448 T __ZNKSt7num_putIcSt19ostreambuf_iteratorIcSt11char_traitsIcEEE6do_putES3_RSt8ios_basecPKv
6064c4a0 t .text$_ZNKSt7num_putIcSt19ostreambuf_iteratorIcSt11char_traitsIcEEE6do_putES3_RSt8ios_basecb
6064c4a0 T __ZNKSt7num_putIcSt19ostreambuf_iteratorIcSt11char_traitsIcEEE6do_putES3_RSt8ios_basecb
6064c68c t .text$_ZNKSt7num_putIcSt19ostreambuf_iteratorIcSt11char_traitsIcEEE6do_putES3_RSt8ios_basecd
6064c68c T __ZNKSt7num_putIcSt19ostreambuf_iteratorIcSt11char_traitsIcEEE6do_putES3_RSt8ios_basecd
6064c6b4 t .text$_ZNKSt7num_putIcSt19ostreambuf_iteratorIcSt11char_traitsIcEEE6do_putES3_RSt8ios_basece
6064c6b4 T __ZNKSt7num_putIcSt19ostreambuf_iteratorIcSt11char_traitsIcEEE6do_putES3_RSt8ios_basece
6064c6e0 t .text$_ZNKSt7num_putIcSt19ostreambuf_iteratorIcSt11char_traitsIcEEE6do_putES3_RSt8ios_basecl
6064c6e0 T __ZNKSt7num_putIcSt19ostreambuf_iteratorIcSt11char_traitsIcEEE6do_putES3_RSt8ios_basecl
6064c704 t .text$_ZNKSt7num_putIcSt19ostreambuf_iteratorIcSt11char_traitsIcEEE6do_putES3_RSt8ios_basecm
6064c704 T __ZNKSt7num_putIcSt19ostreambuf_iteratorIcSt11char_traitsIcEEE6do_putES3_RSt8ios_basecm
6064c728 t .text$_ZNKSt7num_putIcSt19ostreambuf_iteratorIcSt11char_traitsIcEEE6do_putES3_RSt8ios_basecx
6064c728 T __ZNKSt7num_putIcSt19ostreambuf_iteratorIcSt11char_traitsIcEEE6do_putES3_RSt8ios_basecx
6064c750 t .text$_ZNKSt7num_putIcSt19ostreambuf_iteratorIcSt11char_traitsIcEEE6do_putES3_RSt8ios_basecy
6064c750 T __ZNKSt7num_putIcSt19ostreambuf_iteratorIcSt11char_traitsIcEEE6do_putES3_RSt8ios_basecy
6064c778 t .text$_ZNKSt7num_putIwSt19ostreambuf_iteratorIwSt11char_traitsIwEEE12_M_group_intEPKcjwRSt8ios_basePwS9_Ri
6064c778 T __ZNKSt7num_putIwSt19ostreambuf_iteratorIwSt11char_traitsIwEEE12_M_group_intEPKcjwRSt8ios_basePwS9_Ri
6064c7b0 t .text$_ZNKSt7num_putIwSt19ostreambuf_iteratorIwSt11char_traitsIwEEE13_M_insert_intIlEES3_S3_RSt8ios_basewT_
6064c7b0 T __ZNKSt7num_putIwSt19ostreambuf_iteratorIwSt11char_traitsIwEEE13_M_insert_intIlEES3_S3_RSt8ios_basewT_
6064cab8 t .text$_ZNKSt7num_putIwSt19ostreambuf_iteratorIwSt11char_traitsIwEEE13_M_insert_intImEES3_S3_RSt8ios_basewT_
6064cab8 T __ZNKSt7num_putIwSt19ostreambuf_iteratorIwSt11char_traitsIwEEE13_M_insert_intImEES3_S3_RSt8ios_basewT_
6064cd54 t .text$_ZNKSt7num_putIwSt19ostreambuf_iteratorIwSt11char_traitsIwEEE13_M_insert_intIxEES3_S3_RSt8ios_basewT_
6064cd54 T __ZNKSt7num_putIwSt19ostreambuf_iteratorIwSt11char_traitsIwEEE13_M_insert_intIxEES3_S3_RSt8ios_basewT_
6064d0c4 t .text$_ZNKSt7num_putIwSt19ostreambuf_iteratorIwSt11char_traitsIwEEE13_M_insert_intIyEES3_S3_RSt8ios_basewT_
6064d0c4 T __ZNKSt7num_putIwSt19ostreambuf_iteratorIwSt11char_traitsIwEEE13_M_insert_intIyEES3_S3_RSt8ios_basewT_
6064d374 t .text$_ZNKSt7num_putIwSt19ostreambuf_iteratorIwSt11char_traitsIwEEE14_M_group_floatEPKcjwPKwPwS9_Ri
6064d374 T __ZNKSt7num_putIwSt19ostreambuf_iteratorIwSt11char_traitsIwEEE14_M_group_floatEPKcjwPKwPwS9_Ri
6064d40c t .text$_ZNKSt7num_putIwSt19ostreambuf_iteratorIwSt11char_traitsIwEEE15_M_insert_floatIdEES3_S3_RSt8ios_basewcT_
6064d40c T __ZNKSt7num_putIwSt19ostreambuf_iteratorIwSt11char_traitsIwEEE15_M_insert_floatIdEES3_S3_RSt8ios_basewcT_
6064d7a0 t .text$_ZNKSt7num_putIwSt19ostreambuf_iteratorIwSt11char_traitsIwEEE15_M_insert_floatIeEES3_S3_RSt8ios_basewcT_
6064d7a0 T __ZNKSt7num_putIwSt19ostreambuf_iteratorIwSt11char_traitsIwEEE15_M_insert_floatIeEES3_S3_RSt8ios_basewcT_
6064db34 t .text$_ZNKSt7num_putIwSt19ostreambuf_iteratorIwSt11char_traitsIwEEE3putES3_RSt8ios_basewPKv
6064db34 T __ZNKSt7num_putIwSt19ostreambuf_iteratorIwSt11char_traitsIwEEE3putES3_RSt8ios_basewPKv
6064db5c t .text$_ZNKSt7num_putIwSt19ostreambuf_iteratorIwSt11char_traitsIwEEE3putES3_RSt8ios_basewb
6064db5c T __ZNKSt7num_putIwSt19ostreambuf_iteratorIwSt11char_traitsIwEEE3putES3_RSt8ios_basewb
6064db8c t .text$_ZNKSt7num_putIwSt19ostreambuf_iteratorIwSt11char_traitsIwEEE3putES3_RSt8ios_basewd
6064db8c T __ZNKSt7num_putIwSt19ostreambuf_iteratorIwSt11char_traitsIwEEE3putES3_RSt8ios_basewd
6064dbb8 t .text$_ZNKSt7num_putIwSt19ostreambuf_iteratorIwSt11char_traitsIwEEE3putES3_RSt8ios_basewe
6064dbb8 T __ZNKSt7num_putIwSt19ostreambuf_iteratorIwSt11char_traitsIwEEE3putES3_RSt8ios_basewe
6064dbe4 t .text$_ZNKSt7num_putIwSt19ostreambuf_iteratorIwSt11char_traitsIwEEE3putES3_RSt8ios_basewl
6064dbe4 T __ZNKSt7num_putIwSt19ostreambuf_iteratorIwSt11char_traitsIwEEE3putES3_RSt8ios_basewl
6064dc0c t .text$_ZNKSt7num_putIwSt19ostreambuf_iteratorIwSt11char_traitsIwEEE3putES3_RSt8ios_basewm
6064dc0c T __ZNKSt7num_putIwSt19ostreambuf_iteratorIwSt11char_traitsIwEEE3putES3_RSt8ios_basewm
6064dc34 t .text$_ZNKSt7num_putIwSt19ostreambuf_iteratorIwSt11char_traitsIwEEE3putES3_RSt8ios_basewx
6064dc34 T __ZNKSt7num_putIwSt19ostreambuf_iteratorIwSt11char_traitsIwEEE3putES3_RSt8ios_basewx
6064dc60 t .text$_ZNKSt7num_putIwSt19ostreambuf_iteratorIwSt11char_traitsIwEEE3putES3_RSt8ios_basewy
6064dc60 T __ZNKSt7num_putIwSt19ostreambuf_iteratorIwSt11char_traitsIwEEE3putES3_RSt8ios_basewy
6064dc8c t .text$_ZNKSt7num_putIwSt19ostreambuf_iteratorIwSt11char_traitsIwEEE6_M_padEwiRSt8ios_basePwPKwRi
6064dc8c T __ZNKSt7num_putIwSt19ostreambuf_iteratorIwSt11char_traitsIwEEE6_M_padEwiRSt8ios_basePwPKwRi
6064dcbc t .text$_ZNKSt7num_putIwSt19ostreambuf_iteratorIwSt11char_traitsIwEEE6do_putES3_RSt8ios_basewPKv
6064dcbc T __ZNKSt7num_putIwSt19ostreambuf_iteratorIwSt11char_traitsIwEEE6do_putES3_RSt8ios_basewPKv
6064dd14 t .text$_ZNKSt7num_putIwSt19ostreambuf_iteratorIwSt11char_traitsIwEEE6do_putES3_RSt8ios_basewb
6064dd14 T __ZNKSt7num_putIwSt19ostreambuf_iteratorIwSt11char_traitsIwEEE6do_putES3_RSt8ios_basewb
6064df0c t .text$_ZNKSt7num_putIwSt19ostreambuf_iteratorIwSt11char_traitsIwEEE6do_putES3_RSt8ios_basewd
6064df0c T __ZNKSt7num_putIwSt19ostreambuf_iteratorIwSt11char_traitsIwEEE6do_putES3_RSt8ios_basewd
6064df34 t .text$_ZNKSt7num_putIwSt19ostreambuf_iteratorIwSt11char_traitsIwEEE6do_putES3_RSt8ios_basewe
6064df34 T __ZNKSt7num_putIwSt19ostreambuf_iteratorIwSt11char_traitsIwEEE6do_putES3_RSt8ios_basewe
6064df60 t .text$_ZNKSt7num_putIwSt19ostreambuf_iteratorIwSt11char_traitsIwEEE6do_putES3_RSt8ios_basewl
6064df60 T __ZNKSt7num_putIwSt19ostreambuf_iteratorIwSt11char_traitsIwEEE6do_putES3_RSt8ios_basewl
6064df84 t .text$_ZNKSt7num_putIwSt19ostreambuf_iteratorIwSt11char_traitsIwEEE6do_putES3_RSt8ios_basewm
6064df84 T __ZNKSt7num_putIwSt19ostreambuf_iteratorIwSt11char_traitsIwEEE6do_putES3_RSt8ios_basewm
6064dfa8 t .text$_ZNKSt7num_putIwSt19ostreambuf_iteratorIwSt11char_traitsIwEEE6do_putES3_RSt8ios_basewx
6064dfa8 T __ZNKSt7num_putIwSt19ostreambuf_iteratorIwSt11char_traitsIwEEE6do_putES3_RSt8ios_basewx
6064dfd0 t .text$_ZNKSt7num_putIwSt19ostreambuf_iteratorIwSt11char_traitsIwEEE6do_putES3_RSt8ios_basewy
6064dfd0 T __ZNKSt7num_putIwSt19ostreambuf_iteratorIwSt11char_traitsIwEEE6do_putES3_RSt8ios_basewy
6064dff8 t .text$_ZNKSt8ios_base5flagsEv
6064dff8 T __ZNKSt8ios_base5flagsEv
6064e004 t .text$_ZNKSt8messagesIcE18_M_convert_to_charERKSs
6064e004 T __ZNKSt8messagesIcE18_M_convert_to_charERKSs
6064e010 t .text$_ZNKSt8messagesIcE20_M_convert_from_charEPc
6064e010 T __ZNKSt8messagesIcE20_M_convert_from_charEPc
6064e020 t .text$_ZNKSt8messagesIcE3getEiiiRKSs
6064e020 T __ZNKSt8messagesIcE3getEiiiRKSs
6064e04c t .text$_ZNKSt8messagesIcE4openERKSsRKSt6locale
6064e04c T __ZNKSt8messagesIcE4openERKSsRKSt6locale
6064e05c t .text$_ZNKSt8messagesIcE4openERKSsRKSt6localePKc
6064e05c T __ZNKSt8messagesIcE4openERKSsRKSt6localePKc
6064e06c t .text$_ZNKSt8messagesIcE5closeEi
6064e06c T __ZNKSt8messagesIcE5closeEi
6064e07c t .text$_ZNKSt8messagesIcE7do_openERKSsRKSt6locale
6064e07c T __ZNKSt8messagesIcE7do_openERKSsRKSt6locale
6064e084 t .text$_ZNKSt8messagesIcE8do_closeEi
6064e084 T __ZNKSt8messagesIcE8do_closeEi
6064e08c t .text$_ZNKSt8messagesIwE18_M_convert_to_charERKSbIwSt11char_traitsIwESaIwEE
6064e08c T __ZNKSt8messagesIwE18_M_convert_to_charERKSbIwSt11char_traitsIwESaIwEE
6064e098 t .text$_ZNKSt8messagesIwE20_M_convert_from_charEPc
6064e098 T __ZNKSt8messagesIwE20_M_convert_from_charEPc
6064e0a8 t .text$_ZNKSt8messagesIwE3getEiiiRKSbIwSt11char_traitsIwESaIwEE
6064e0a8 T __ZNKSt8messagesIwE3getEiiiRKSbIwSt11char_traitsIwESaIwEE
6064e0d4 t .text$_ZNKSt8messagesIwE4openERKSsRKSt6locale
6064e0d4 T __ZNKSt8messagesIwE4openERKSsRKSt6locale
6064e0e4 t .text$_ZNKSt8messagesIwE4openERKSsRKSt6localePKc
6064e0e4 T __ZNKSt8messagesIwE4openERKSsRKSt6localePKc
6064e0f4 t .text$_ZNKSt8messagesIwE5closeEi
6064e0f4 T __ZNKSt8messagesIwE5closeEi
6064e104 t .text$_ZNKSt8messagesIwE7do_openERKSsRKSt6locale
6064e104 T __ZNKSt8messagesIwE7do_openERKSsRKSt6locale
6064e10c t .text$_ZNKSt8messagesIwE8do_closeEi
6064e10c T __ZNKSt8messagesIwE8do_closeEi
6064e114 t .text$_ZNKSt8numpunctIcE11do_groupingEv
6064e114 T __ZNKSt8numpunctIcE11do_groupingEv
6064e148 t .text$_ZNKSt8numpunctIcE11do_truenameEv
6064e148 T __ZNKSt8numpunctIcE11do_truenameEv
6064e17c t .text$_ZNKSt8numpunctIcE12do_falsenameEv
6064e17c T __ZNKSt8numpunctIcE12do_falsenameEv
6064e1b0 t .text$_ZNKSt8numpunctIcE13decimal_pointEv
6064e1b0 T __ZNKSt8numpunctIcE13decimal_pointEv
6064e1c4 t .text$_ZNKSt8numpunctIcE13thousands_sepEv
6064e1c4 T __ZNKSt8numpunctIcE13thousands_sepEv
6064e1d8 t .text$_ZNKSt8numpunctIcE16do_decimal_pointEv
6064e1d8 T __ZNKSt8numpunctIcE16do_decimal_pointEv
6064e1e8 t .text$_ZNKSt8numpunctIcE16do_thousands_sepEv
6064e1e8 T __ZNKSt8numpunctIcE16do_thousands_sepEv
6064e1f8 t .text$_ZNKSt8numpunctIcE8groupingEv
6064e1f8 T __ZNKSt8numpunctIcE8groupingEv
6064e218 t .text$_ZNKSt8numpunctIcE8truenameEv
6064e218 T __ZNKSt8numpunctIcE8truenameEv
6064e238 t .text$_ZNKSt8numpunctIcE9falsenameEv
6064e238 T __ZNKSt8numpunctIcE9falsenameEv
6064e258 t .text$_ZNKSt8numpunctIwE11do_groupingEv
6064e258 T __ZNKSt8numpunctIwE11do_groupingEv
6064e28c t .text$_ZNKSt8numpunctIwE11do_truenameEv
6064e28c T __ZNKSt8numpunctIwE11do_truenameEv
6064e2c0 t .text$_ZNKSt8numpunctIwE12do_falsenameEv
6064e2c0 T __ZNKSt8numpunctIwE12do_falsenameEv
6064e2f4 t .text$_ZNKSt8numpunctIwE13decimal_pointEv
6064e2f4 T __ZNKSt8numpunctIwE13decimal_pointEv
6064e308 t .text$_ZNKSt8numpunctIwE13thousands_sepEv
6064e308 T __ZNKSt8numpunctIwE13thousands_sepEv
6064e31c t .text$_ZNKSt8numpunctIwE16do_decimal_pointEv
6064e31c T __ZNKSt8numpunctIwE16do_decimal_pointEv
6064e32c t .text$_ZNKSt8numpunctIwE16do_thousands_sepEv
6064e32c T __ZNKSt8numpunctIwE16do_thousands_sepEv
6064e33c t .text$_ZNKSt8numpunctIwE8groupingEv
6064e33c T __ZNKSt8numpunctIwE8groupingEv
6064e35c t .text$_ZNKSt8numpunctIwE8truenameEv
6064e35c T __ZNKSt8numpunctIwE8truenameEv
6064e37c t .text$_ZNKSt8numpunctIwE9falsenameEv
6064e37c T __ZNKSt8numpunctIwE9falsenameEv
6064e39c t .text$_ZNKSt8time_getIcSt19istreambuf_iteratorIcSt11char_traitsIcEEE10date_orderEv
6064e39c T __ZNKSt8time_getIcSt19istreambuf_iteratorIcSt11char_traitsIcEEE10date_orderEv
6064e3ac t .text$_ZNKSt8time_getIcSt19istreambuf_iteratorIcSt11char_traitsIcEEE11do_get_dateES3_S3_RSt8ios_baseRSt12_Ios_IostateP2tm
6064e3ac T __ZNKSt8time_getIcSt19istreambuf_iteratorIcSt11char_traitsIcEEE11do_get_dateES3_S3_RSt8ios_baseRSt12_Ios_IostateP2tm
6064e4d4 t .text$_ZNKSt8time_getIcSt19istreambuf_iteratorIcSt11char_traitsIcEEE11do_get_timeES3_S3_RSt8ios_baseRSt12_Ios_IostateP2tm
6064e4d4 T __ZNKSt8time_getIcSt19istreambuf_iteratorIcSt11char_traitsIcEEE11do_get_timeES3_S3_RSt8ios_baseRSt12_Ios_IostateP2tm
6064e5fc t .text$_ZNKSt8time_getIcSt19istreambuf_iteratorIcSt11char_traitsIcEEE11do_get_yearES3_S3_RSt8ios_baseRSt12_Ios_IostateP2tm
6064e5fc T __ZNKSt8time_getIcSt19istreambuf_iteratorIcSt11char_traitsIcEEE11do_get_yearES3_S3_RSt8ios_baseRSt12_Ios_IostateP2tm
6064e950 t .text$_ZNKSt8time_getIcSt19istreambuf_iteratorIcSt11char_traitsIcEEE11get_weekdayES3_S3_RSt8ios_baseRSt12_Ios_IostateP2tm
6064e950 T __ZNKSt8time_getIcSt19istreambuf_iteratorIcSt11char_traitsIcEEE11get_weekdayES3_S3_RSt8ios_baseRSt12_Ios_IostateP2tm
6064e978 t .text$_ZNKSt8time_getIcSt19istreambuf_iteratorIcSt11char_traitsIcEEE13do_date_orderEv
6064e978 T __ZNKSt8time_getIcSt19istreambuf_iteratorIcSt11char_traitsIcEEE13do_date_orderEv
6064e980 t .text$_ZNKSt8time_getIcSt19istreambuf_iteratorIcSt11char_traitsIcEEE13get_monthnameES3_S3_RSt8ios_baseRSt12_Ios_IostateP2tm
6064e980 T __ZNKSt8time_getIcSt19istreambuf_iteratorIcSt11char_traitsIcEEE13get_monthnameES3_S3_RSt8ios_baseRSt12_Ios_IostateP2tm
6064e9a8 t .text$_ZNKSt8time_getIcSt19istreambuf_iteratorIcSt11char_traitsIcEEE14_M_extract_numES3_S3_RiiijRSt8ios_baseRSt12_Ios_Iostate
6064e9a8 T __ZNKSt8time_getIcSt19istreambuf_iteratorIcSt11char_traitsIcEEE14_M_extract_numES3_S3_RiiijRSt8ios_baseRSt12_Ios_Iostate
6064ec70 t .text$_ZNKSt8time_getIcSt19istreambuf_iteratorIcSt11char_traitsIcEEE14do_get_weekdayES3_S3_RSt8ios_baseRSt12_Ios_IostateP2tm
6064ec70 T __ZNKSt8time_getIcSt19istreambuf_iteratorIcSt11char_traitsIcEEE14do_get_weekdayES3_S3_RSt8ios_baseRSt12_Ios_IostateP2tm
6064f198 t .text$_ZNKSt8time_getIcSt19istreambuf_iteratorIcSt11char_traitsIcEEE15_M_extract_nameES3_S3_RiPPKcjRSt8ios_baseRSt12_Ios_Iostate
6064f198 T __ZNKSt8time_getIcSt19istreambuf_iteratorIcSt11char_traitsIcEEE15_M_extract_nameES3_S3_RiPPKcjRSt8ios_baseRSt12_Ios_Iostate
6064f818 t .text$_ZNKSt8time_getIcSt19istreambuf_iteratorIcSt11char_traitsIcEEE16do_get_monthnameES3_S3_RSt8ios_baseRSt12_Ios_IostateP2tm
6064f818 T __ZNKSt8time_getIcSt19istreambuf_iteratorIcSt11char_traitsIcEEE16do_get_monthnameES3_S3_RSt8ios_baseRSt12_Ios_IostateP2tm
6064fdbc t .text$_ZNKSt8time_getIcSt19istreambuf_iteratorIcSt11char_traitsIcEEE21_M_extract_via_formatES3_S3_RSt8ios_baseRSt12_Ios_IostateP2tmPKc
6064fdbc T __ZNKSt8time_getIcSt19istreambuf_iteratorIcSt11char_traitsIcEEE21_M_extract_via_formatES3_S3_RSt8ios_baseRSt12_Ios_IostateP2tmPKc
606510a4 t .text$_ZNKSt8time_getIcSt19istreambuf_iteratorIcSt11char_traitsIcEEE8get_dateES3_S3_RSt8ios_baseRSt12_Ios_IostateP2tm
606510a4 T __ZNKSt8time_getIcSt19istreambuf_iteratorIcSt11char_traitsIcEEE8get_dateES3_S3_RSt8ios_baseRSt12_Ios_IostateP2tm
606510cc t .text$_ZNKSt8time_getIcSt19istreambuf_iteratorIcSt11char_traitsIcEEE8get_timeES3_S3_RSt8ios_baseRSt12_Ios_IostateP2tm
606510cc T __ZNKSt8time_getIcSt19istreambuf_iteratorIcSt11char_traitsIcEEE8get_timeES3_S3_RSt8ios_baseRSt12_Ios_IostateP2tm
606510f4 t .text$_ZNKSt8time_getIcSt19istreambuf_iteratorIcSt11char_traitsIcEEE8get_yearES3_S3_RSt8ios_baseRSt12_Ios_IostateP2tm
606510f4 T __ZNKSt8time_getIcSt19istreambuf_iteratorIcSt11char_traitsIcEEE8get_yearES3_S3_RSt8ios_baseRSt12_Ios_IostateP2tm
6065111c t .text$_ZNKSt8time_getIwSt19istreambuf_iteratorIwSt11char_traitsIwEEE10date_orderEv
6065111c T __ZNKSt8time_getIwSt19istreambuf_iteratorIwSt11char_traitsIwEEE10date_orderEv
6065112c t .text$_ZNKSt8time_getIwSt19istreambuf_iteratorIwSt11char_traitsIwEEE11do_get_dateES3_S3_RSt8ios_baseRSt12_Ios_IostateP2tm
6065112c T __ZNKSt8time_getIwSt19istreambuf_iteratorIwSt11char_traitsIwEEE11do_get_dateES3_S3_RSt8ios_baseRSt12_Ios_IostateP2tm
60651258 t .text$_ZNKSt8time_getIwSt19istreambuf_iteratorIwSt11char_traitsIwEEE11do_get_timeES3_S3_RSt8ios_baseRSt12_Ios_IostateP2tm
60651258 T __ZNKSt8time_getIwSt19istreambuf_iteratorIwSt11char_traitsIwEEE11do_get_timeES3_S3_RSt8ios_baseRSt12_Ios_IostateP2tm
60651384 t .text$_ZNKSt8time_getIwSt19istreambuf_iteratorIwSt11char_traitsIwEEE11do_get_yearES3_S3_RSt8ios_baseRSt12_Ios_IostateP2tm
60651384 T __ZNKSt8time_getIwSt19istreambuf_iteratorIwSt11char_traitsIwEEE11do_get_yearES3_S3_RSt8ios_baseRSt12_Ios_IostateP2tm
606516bc t .text$_ZNKSt8time_getIwSt19istreambuf_iteratorIwSt11char_traitsIwEEE11get_weekdayES3_S3_RSt8ios_baseRSt12_Ios_IostateP2tm
606516bc T __ZNKSt8time_getIwSt19istreambuf_iteratorIwSt11char_traitsIwEEE11get_weekdayES3_S3_RSt8ios_baseRSt12_Ios_IostateP2tm
606516e4 t .text$_ZNKSt8time_getIwSt19istreambuf_iteratorIwSt11char_traitsIwEEE13do_date_orderEv
606516e4 T __ZNKSt8time_getIwSt19istreambuf_iteratorIwSt11char_traitsIwEEE13do_date_orderEv
606516ec t .text$_ZNKSt8time_getIwSt19istreambuf_iteratorIwSt11char_traitsIwEEE13get_monthnameES3_S3_RSt8ios_baseRSt12_Ios_IostateP2tm
606516ec T __ZNKSt8time_getIwSt19istreambuf_iteratorIwSt11char_traitsIwEEE13get_monthnameES3_S3_RSt8ios_baseRSt12_Ios_IostateP2tm
60651714 t .text$_ZNKSt8time_getIwSt19istreambuf_iteratorIwSt11char_traitsIwEEE14_M_extract_numES3_S3_RiiijRSt8ios_baseRSt12_Ios_Iostate
60651714 T __ZNKSt8time_getIwSt19istreambuf_iteratorIwSt11char_traitsIwEEE14_M_extract_numES3_S3_RiiijRSt8ios_baseRSt12_Ios_Iostate
606519b0 t .text$_ZNKSt8time_getIwSt19istreambuf_iteratorIwSt11char_traitsIwEEE14do_get_weekdayES3_S3_RSt8ios_baseRSt12_Ios_IostateP2tm
606519b0 T __ZNKSt8time_getIwSt19istreambuf_iteratorIwSt11char_traitsIwEEE14do_get_weekdayES3_S3_RSt8ios_baseRSt12_Ios_IostateP2tm
60651f10 t .text$_ZNKSt8time_getIwSt19istreambuf_iteratorIwSt11char_traitsIwEEE15_M_extract_nameES3_S3_RiPPKwjRSt8ios_baseRSt12_Ios_Iostate
60651f10 T __ZNKSt8time_getIwSt19istreambuf_iteratorIwSt11char_traitsIwEEE15_M_extract_nameES3_S3_RiPPKwjRSt8ios_baseRSt12_Ios_Iostate
60652594 t .text$_ZNKSt8time_getIwSt19istreambuf_iteratorIwSt11char_traitsIwEEE16do_get_monthnameES3_S3_RSt8ios_baseRSt12_Ios_IostateP2tm
60652594 T __ZNKSt8time_getIwSt19istreambuf_iteratorIwSt11char_traitsIwEEE16do_get_monthnameES3_S3_RSt8ios_baseRSt12_Ios_IostateP2tm
60652b5c t .text$_ZNKSt8time_getIwSt19istreambuf_iteratorIwSt11char_traitsIwEEE21_M_extract_via_formatES3_S3_RSt8ios_baseRSt12_Ios_IostateP2tmPKw
60652b5c T __ZNKSt8time_getIwSt19istreambuf_iteratorIwSt11char_traitsIwEEE21_M_extract_via_formatES3_S3_RSt8ios_baseRSt12_Ios_IostateP2tmPKw
60653b30 t .text$_ZNKSt8time_getIwSt19istreambuf_iteratorIwSt11char_traitsIwEEE8get_dateES3_S3_RSt8ios_baseRSt12_Ios_IostateP2tm
60653b30 T __ZNKSt8time_getIwSt19istreambuf_iteratorIwSt11char_traitsIwEEE8get_dateES3_S3_RSt8ios_baseRSt12_Ios_IostateP2tm
60653b58 t .text$_ZNKSt8time_getIwSt19istreambuf_iteratorIwSt11char_traitsIwEEE8get_timeES3_S3_RSt8ios_baseRSt12_Ios_IostateP2tm
60653b58 T __ZNKSt8time_getIwSt19istreambuf_iteratorIwSt11char_traitsIwEEE8get_timeES3_S3_RSt8ios_baseRSt12_Ios_IostateP2tm
60653b80 t .text$_ZNKSt8time_getIwSt19istreambuf_iteratorIwSt11char_traitsIwEEE8get_yearES3_S3_RSt8ios_baseRSt12_Ios_IostateP2tm
60653b80 T __ZNKSt8time_getIwSt19istreambuf_iteratorIwSt11char_traitsIwEEE8get_yearES3_S3_RSt8ios_baseRSt12_Ios_IostateP2tm
60653ba8 t .text$_ZNKSt8time_putIcSt19ostreambuf_iteratorIcSt11char_traitsIcEEE3putES3_RSt8ios_basecPK2tmPKcSB_
60653ba8 T __ZNKSt8time_putIcSt19ostreambuf_iteratorIcSt11char_traitsIcEEE3putES3_RSt8ios_basecPK2tmPKcSB_
60653d48 t .text$_ZNKSt8time_putIcSt19ostreambuf_iteratorIcSt11char_traitsIcEEE3putES3_RSt8ios_basecPK2tmcc
60653d48 T __ZNKSt8time_putIcSt19ostreambuf_iteratorIcSt11char_traitsIcEEE3putES3_RSt8ios_basecPK2tmcc
60653d80 t .text$_ZNKSt8time_putIcSt19ostreambuf_iteratorIcSt11char_traitsIcEEE6do_putES3_RSt8ios_basecPK2tmcc
60653d80 T __ZNKSt8time_putIcSt19ostreambuf_iteratorIcSt11char_traitsIcEEE6do_putES3_RSt8ios_basecPK2tmcc
60653f88 t .text$_ZNKSt8time_putIwSt19ostreambuf_iteratorIwSt11char_traitsIwEEE3putES3_RSt8ios_basewPK2tmPKwSB_
60653f88 T __ZNKSt8time_putIwSt19ostreambuf_iteratorIwSt11char_traitsIwEEE3putES3_RSt8ios_basewPK2tmPKwSB_
606540b0 t .text$_ZNKSt8time_putIwSt19ostreambuf_iteratorIwSt11char_traitsIwEEE3putES3_RSt8ios_basewPK2tmcc
606540b0 T __ZNKSt8time_putIwSt19ostreambuf_iteratorIwSt11char_traitsIwEEE3putES3_RSt8ios_basewPK2tmcc
606540e8 t .text$_ZNKSt8time_putIwSt19ostreambuf_iteratorIwSt11char_traitsIwEEE6do_putES3_RSt8ios_basewPK2tmcc
606540e8 T __ZNKSt8time_putIwSt19ostreambuf_iteratorIwSt11char_traitsIwEEE6do_putES3_RSt8ios_basewPK2tmcc
60654200 t .text$_ZNKSt9basic_iosIcSt11char_traitsIcEE10exceptionsEv
60654200 T __ZNKSt9basic_iosIcSt11char_traitsIcEE10exceptionsEv
6065420c t .text$_ZNKSt9basic_iosIcSt11char_traitsIcEE3badEv
6065420c T __ZNKSt9basic_iosIcSt11char_traitsIcEE3badEv
6065421c t .text$_ZNKSt9basic_iosIcSt11char_traitsIcEE3eofEv
6065421c T __ZNKSt9basic_iosIcSt11char_traitsIcEE3eofEv
6065422c t .text$_ZNKSt9basic_iosIcSt11char_traitsIcEE3tieEv
6065422c T __ZNKSt9basic_iosIcSt11char_traitsIcEE3tieEv
60654238 t .text$_ZNKSt9basic_iosIcSt11char_traitsIcEE4failEv
60654238 T __ZNKSt9basic_iosIcSt11char_traitsIcEE4failEv
6065424c t .text$_ZNKSt9basic_iosIcSt11char_traitsIcEE4fillEv
6065424c T __ZNKSt9basic_iosIcSt11char_traitsIcEE4fillEv
6065427c t .text$_ZNKSt9basic_iosIcSt11char_traitsIcEE4goodEv
6065427c T __ZNKSt9basic_iosIcSt11char_traitsIcEE4goodEv
60654290 t .text$_ZNKSt9basic_iosIcSt11char_traitsIcEE5rdbufEv
60654290 T __ZNKSt9basic_iosIcSt11char_traitsIcEE5rdbufEv
6065429c t .text$_ZNKSt9basic_iosIcSt11char_traitsIcEE5widenEc
6065429c T __ZNKSt9basic_iosIcSt11char_traitsIcEE5widenEc
60654350 t .text$_ZNKSt9basic_iosIcSt11char_traitsIcEE6narrowEcc
60654350 T __ZNKSt9basic_iosIcSt11char_traitsIcEE6narrowEcc
606543bc t .text$_ZNKSt9basic_iosIcSt11char_traitsIcEE7rdstateEv
606543bc T __ZNKSt9basic_iosIcSt11char_traitsIcEE7rdstateEv
